
test1.elf:     file format elf32-littlearm

Sections:
Idx Name          Size      VMA       LMA       File off  Algn
  0 .isr_vector   0000010c  08000000  08000000  00010000  2**0
                  CONTENTS, ALLOC, LOAD, READONLY, DATA
  1 .text         0000808c  08000110  08000110  00010110  2**3
                  CONTENTS, ALLOC, LOAD, READONLY, CODE
  2 .rodata       000005e0  080081a0  080081a0  000181a0  2**3
                  CONTENTS, ALLOC, LOAD, READONLY, DATA
  3 .ARM.extab    00000000  08008780  08008780  00020218  2**0
                  CONTENTS
  4 .ARM          00000000  08008780  08008780  00020218  2**0
                  CONTENTS
  5 .preinit_array 00000000  08008780  08008780  00020218  2**0
                  CONTENTS, ALLOC, LOAD, DATA
  6 .init_array   00000004  08008780  08008780  00018780  2**2
                  CONTENTS, ALLOC, LOAD, DATA
  7 .fini_array   00000004  08008784  08008784  00018784  2**2
                  CONTENTS, ALLOC, LOAD, DATA
  8 .data         00000218  20000000  08008788  00020000  2**2
                  CONTENTS, ALLOC, LOAD, DATA
  9 .bss          00000244  20000218  080089a0  00020218  2**2
                  ALLOC
 10 ._user_heap_stack 00000604  2000045c  080089a0  0002045c  2**0
                  ALLOC
 11 .ARM.attributes 00000029  00000000  00000000  00020218  2**0
                  CONTENTS, READONLY
 12 .comment      00000050  00000000  00000000  00020241  2**0
                  CONTENTS, READONLY
 13 .debug_frame  000014e0  00000000  00000000  00020294  2**2
                  CONTENTS, READONLY, DEBUGGING, OCTETS

Disassembly of section .text:

08000110 <__do_global_dtors_aux>:
 8000110:	b510      	push	{r4, lr}
 8000112:	4c05      	ldr	r4, [pc, #20]	; (8000128 <__do_global_dtors_aux+0x18>)
 8000114:	7823      	ldrb	r3, [r4, #0]
 8000116:	b933      	cbnz	r3, 8000126 <__do_global_dtors_aux+0x16>
 8000118:	4b04      	ldr	r3, [pc, #16]	; (800012c <__do_global_dtors_aux+0x1c>)
 800011a:	b113      	cbz	r3, 8000122 <__do_global_dtors_aux+0x12>
 800011c:	4804      	ldr	r0, [pc, #16]	; (8000130 <__do_global_dtors_aux+0x20>)
 800011e:	f3af 8000 	nop.w
 8000122:	2301      	movs	r3, #1
 8000124:	7023      	strb	r3, [r4, #0]
 8000126:	bd10      	pop	{r4, pc}
 8000128:	20000218 	.word	0x20000218
 800012c:	00000000 	.word	0x00000000
 8000130:	08008184 	.word	0x08008184

08000134 <frame_dummy>:
 8000134:	b508      	push	{r3, lr}
 8000136:	4b03      	ldr	r3, [pc, #12]	; (8000144 <frame_dummy+0x10>)
 8000138:	b11b      	cbz	r3, 8000142 <frame_dummy+0xe>
 800013a:	4903      	ldr	r1, [pc, #12]	; (8000148 <frame_dummy+0x14>)
 800013c:	4803      	ldr	r0, [pc, #12]	; (800014c <frame_dummy+0x18>)
 800013e:	f3af 8000 	nop.w
 8000142:	bd08      	pop	{r3, pc}
 8000144:	00000000 	.word	0x00000000
 8000148:	2000021c 	.word	0x2000021c
 800014c:	08008184 	.word	0x08008184

08000150 <strlen>:
 8000150:	4603      	mov	r3, r0
 8000152:	f813 2b01 	ldrb.w	r2, [r3], #1
 8000156:	2a00      	cmp	r2, #0
 8000158:	d1fb      	bne.n	8000152 <strlen+0x2>
 800015a:	1a18      	subs	r0, r3, r0
 800015c:	3801      	subs	r0, #1
 800015e:	4770      	bx	lr

08000160 <__aeabi_drsub>:
 8000160:	f081 4100 	eor.w	r1, r1, #2147483648	; 0x80000000
 8000164:	e002      	b.n	800016c <__adddf3>
 8000166:	bf00      	nop

08000168 <__aeabi_dsub>:
 8000168:	f083 4300 	eor.w	r3, r3, #2147483648	; 0x80000000

0800016c <__adddf3>:
 800016c:	b530      	push	{r4, r5, lr}
 800016e:	ea4f 0441 	mov.w	r4, r1, lsl #1
 8000172:	ea4f 0543 	mov.w	r5, r3, lsl #1
 8000176:	ea94 0f05 	teq	r4, r5
 800017a:	bf08      	it	eq
 800017c:	ea90 0f02 	teqeq	r0, r2
 8000180:	bf1f      	itttt	ne
 8000182:	ea54 0c00 	orrsne.w	ip, r4, r0
 8000186:	ea55 0c02 	orrsne.w	ip, r5, r2
 800018a:	ea7f 5c64 	mvnsne.w	ip, r4, asr #21
 800018e:	ea7f 5c65 	mvnsne.w	ip, r5, asr #21
 8000192:	f000 80e2 	beq.w	800035a <__adddf3+0x1ee>
 8000196:	ea4f 5454 	mov.w	r4, r4, lsr #21
 800019a:	ebd4 5555 	rsbs	r5, r4, r5, lsr #21
 800019e:	bfb8      	it	lt
 80001a0:	426d      	neglt	r5, r5
 80001a2:	dd0c      	ble.n	80001be <__adddf3+0x52>
 80001a4:	442c      	add	r4, r5
 80001a6:	ea80 0202 	eor.w	r2, r0, r2
 80001aa:	ea81 0303 	eor.w	r3, r1, r3
 80001ae:	ea82 0000 	eor.w	r0, r2, r0
 80001b2:	ea83 0101 	eor.w	r1, r3, r1
 80001b6:	ea80 0202 	eor.w	r2, r0, r2
 80001ba:	ea81 0303 	eor.w	r3, r1, r3
 80001be:	2d36      	cmp	r5, #54	; 0x36
 80001c0:	bf88      	it	hi
 80001c2:	bd30      	pophi	{r4, r5, pc}
 80001c4:	f011 4f00 	tst.w	r1, #2147483648	; 0x80000000
 80001c8:	ea4f 3101 	mov.w	r1, r1, lsl #12
 80001cc:	f44f 1c80 	mov.w	ip, #1048576	; 0x100000
 80001d0:	ea4c 3111 	orr.w	r1, ip, r1, lsr #12
 80001d4:	d002      	beq.n	80001dc <__adddf3+0x70>
 80001d6:	4240      	negs	r0, r0
 80001d8:	eb61 0141 	sbc.w	r1, r1, r1, lsl #1
 80001dc:	f013 4f00 	tst.w	r3, #2147483648	; 0x80000000
 80001e0:	ea4f 3303 	mov.w	r3, r3, lsl #12
 80001e4:	ea4c 3313 	orr.w	r3, ip, r3, lsr #12
 80001e8:	d002      	beq.n	80001f0 <__adddf3+0x84>
 80001ea:	4252      	negs	r2, r2
 80001ec:	eb63 0343 	sbc.w	r3, r3, r3, lsl #1
 80001f0:	ea94 0f05 	teq	r4, r5
 80001f4:	f000 80a7 	beq.w	8000346 <__adddf3+0x1da>
 80001f8:	f1a4 0401 	sub.w	r4, r4, #1
 80001fc:	f1d5 0e20 	rsbs	lr, r5, #32
 8000200:	db0d      	blt.n	800021e <__adddf3+0xb2>
 8000202:	fa02 fc0e 	lsl.w	ip, r2, lr
 8000206:	fa22 f205 	lsr.w	r2, r2, r5
 800020a:	1880      	adds	r0, r0, r2
 800020c:	f141 0100 	adc.w	r1, r1, #0
 8000210:	fa03 f20e 	lsl.w	r2, r3, lr
 8000214:	1880      	adds	r0, r0, r2
 8000216:	fa43 f305 	asr.w	r3, r3, r5
 800021a:	4159      	adcs	r1, r3
 800021c:	e00e      	b.n	800023c <__adddf3+0xd0>
 800021e:	f1a5 0520 	sub.w	r5, r5, #32
 8000222:	f10e 0e20 	add.w	lr, lr, #32
 8000226:	2a01      	cmp	r2, #1
 8000228:	fa03 fc0e 	lsl.w	ip, r3, lr
 800022c:	bf28      	it	cs
 800022e:	f04c 0c02 	orrcs.w	ip, ip, #2
 8000232:	fa43 f305 	asr.w	r3, r3, r5
 8000236:	18c0      	adds	r0, r0, r3
 8000238:	eb51 71e3 	adcs.w	r1, r1, r3, asr #31
 800023c:	f001 4500 	and.w	r5, r1, #2147483648	; 0x80000000
 8000240:	d507      	bpl.n	8000252 <__adddf3+0xe6>
 8000242:	f04f 0e00 	mov.w	lr, #0
 8000246:	f1dc 0c00 	rsbs	ip, ip, #0
 800024a:	eb7e 0000 	sbcs.w	r0, lr, r0
 800024e:	eb6e 0101 	sbc.w	r1, lr, r1
 8000252:	f5b1 1f80 	cmp.w	r1, #1048576	; 0x100000
 8000256:	d31b      	bcc.n	8000290 <__adddf3+0x124>
 8000258:	f5b1 1f00 	cmp.w	r1, #2097152	; 0x200000
 800025c:	d30c      	bcc.n	8000278 <__adddf3+0x10c>
 800025e:	0849      	lsrs	r1, r1, #1
 8000260:	ea5f 0030 	movs.w	r0, r0, rrx
 8000264:	ea4f 0c3c 	mov.w	ip, ip, rrx
 8000268:	f104 0401 	add.w	r4, r4, #1
 800026c:	ea4f 5244 	mov.w	r2, r4, lsl #21
 8000270:	f512 0f80 	cmn.w	r2, #4194304	; 0x400000
 8000274:	f080 809a 	bcs.w	80003ac <__adddf3+0x240>
 8000278:	f1bc 4f00 	cmp.w	ip, #2147483648	; 0x80000000
 800027c:	bf08      	it	eq
 800027e:	ea5f 0c50 	movseq.w	ip, r0, lsr #1
 8000282:	f150 0000 	adcs.w	r0, r0, #0
 8000286:	eb41 5104 	adc.w	r1, r1, r4, lsl #20
 800028a:	ea41 0105 	orr.w	r1, r1, r5
 800028e:	bd30      	pop	{r4, r5, pc}
 8000290:	ea5f 0c4c 	movs.w	ip, ip, lsl #1
 8000294:	4140      	adcs	r0, r0
 8000296:	eb41 0101 	adc.w	r1, r1, r1
 800029a:	3c01      	subs	r4, #1
 800029c:	bf28      	it	cs
 800029e:	f5b1 1f80 	cmpcs.w	r1, #1048576	; 0x100000
 80002a2:	d2e9      	bcs.n	8000278 <__adddf3+0x10c>
 80002a4:	f091 0f00 	teq	r1, #0
 80002a8:	bf04      	itt	eq
 80002aa:	4601      	moveq	r1, r0
 80002ac:	2000      	moveq	r0, #0
 80002ae:	fab1 f381 	clz	r3, r1
 80002b2:	bf08      	it	eq
 80002b4:	3320      	addeq	r3, #32
 80002b6:	f1a3 030b 	sub.w	r3, r3, #11
 80002ba:	f1b3 0220 	subs.w	r2, r3, #32
 80002be:	da0c      	bge.n	80002da <__adddf3+0x16e>
 80002c0:	320c      	adds	r2, #12
 80002c2:	dd08      	ble.n	80002d6 <__adddf3+0x16a>
 80002c4:	f102 0c14 	add.w	ip, r2, #20
 80002c8:	f1c2 020c 	rsb	r2, r2, #12
 80002cc:	fa01 f00c 	lsl.w	r0, r1, ip
 80002d0:	fa21 f102 	lsr.w	r1, r1, r2
 80002d4:	e00c      	b.n	80002f0 <__adddf3+0x184>
 80002d6:	f102 0214 	add.w	r2, r2, #20
 80002da:	bfd8      	it	le
 80002dc:	f1c2 0c20 	rsble	ip, r2, #32
 80002e0:	fa01 f102 	lsl.w	r1, r1, r2
 80002e4:	fa20 fc0c 	lsr.w	ip, r0, ip
 80002e8:	bfdc      	itt	le
 80002ea:	ea41 010c 	orrle.w	r1, r1, ip
 80002ee:	4090      	lslle	r0, r2
 80002f0:	1ae4      	subs	r4, r4, r3
 80002f2:	bfa2      	ittt	ge
 80002f4:	eb01 5104 	addge.w	r1, r1, r4, lsl #20
 80002f8:	4329      	orrge	r1, r5
 80002fa:	bd30      	popge	{r4, r5, pc}
 80002fc:	ea6f 0404 	mvn.w	r4, r4
 8000300:	3c1f      	subs	r4, #31
 8000302:	da1c      	bge.n	800033e <__adddf3+0x1d2>
 8000304:	340c      	adds	r4, #12
 8000306:	dc0e      	bgt.n	8000326 <__adddf3+0x1ba>
 8000308:	f104 0414 	add.w	r4, r4, #20
 800030c:	f1c4 0220 	rsb	r2, r4, #32
 8000310:	fa20 f004 	lsr.w	r0, r0, r4
 8000314:	fa01 f302 	lsl.w	r3, r1, r2
 8000318:	ea40 0003 	orr.w	r0, r0, r3
 800031c:	fa21 f304 	lsr.w	r3, r1, r4
 8000320:	ea45 0103 	orr.w	r1, r5, r3
 8000324:	bd30      	pop	{r4, r5, pc}
 8000326:	f1c4 040c 	rsb	r4, r4, #12
 800032a:	f1c4 0220 	rsb	r2, r4, #32
 800032e:	fa20 f002 	lsr.w	r0, r0, r2
 8000332:	fa01 f304 	lsl.w	r3, r1, r4
 8000336:	ea40 0003 	orr.w	r0, r0, r3
 800033a:	4629      	mov	r1, r5
 800033c:	bd30      	pop	{r4, r5, pc}
 800033e:	fa21 f004 	lsr.w	r0, r1, r4
 8000342:	4629      	mov	r1, r5
 8000344:	bd30      	pop	{r4, r5, pc}
 8000346:	f094 0f00 	teq	r4, #0
 800034a:	f483 1380 	eor.w	r3, r3, #1048576	; 0x100000
 800034e:	bf06      	itte	eq
 8000350:	f481 1180 	eoreq.w	r1, r1, #1048576	; 0x100000
 8000354:	3401      	addeq	r4, #1
 8000356:	3d01      	subne	r5, #1
 8000358:	e74e      	b.n	80001f8 <__adddf3+0x8c>
 800035a:	ea7f 5c64 	mvns.w	ip, r4, asr #21
 800035e:	bf18      	it	ne
 8000360:	ea7f 5c65 	mvnsne.w	ip, r5, asr #21
 8000364:	d029      	beq.n	80003ba <__adddf3+0x24e>
 8000366:	ea94 0f05 	teq	r4, r5
 800036a:	bf08      	it	eq
 800036c:	ea90 0f02 	teqeq	r0, r2
 8000370:	d005      	beq.n	800037e <__adddf3+0x212>
 8000372:	ea54 0c00 	orrs.w	ip, r4, r0
 8000376:	bf04      	itt	eq
 8000378:	4619      	moveq	r1, r3
 800037a:	4610      	moveq	r0, r2
 800037c:	bd30      	pop	{r4, r5, pc}
 800037e:	ea91 0f03 	teq	r1, r3
 8000382:	bf1e      	ittt	ne
 8000384:	2100      	movne	r1, #0
 8000386:	2000      	movne	r0, #0
 8000388:	bd30      	popne	{r4, r5, pc}
 800038a:	ea5f 5c54 	movs.w	ip, r4, lsr #21
 800038e:	d105      	bne.n	800039c <__adddf3+0x230>
 8000390:	0040      	lsls	r0, r0, #1
 8000392:	4149      	adcs	r1, r1
 8000394:	bf28      	it	cs
 8000396:	f041 4100 	orrcs.w	r1, r1, #2147483648	; 0x80000000
 800039a:	bd30      	pop	{r4, r5, pc}
 800039c:	f514 0480 	adds.w	r4, r4, #4194304	; 0x400000
 80003a0:	bf3c      	itt	cc
 80003a2:	f501 1180 	addcc.w	r1, r1, #1048576	; 0x100000
 80003a6:	bd30      	popcc	{r4, r5, pc}
 80003a8:	f001 4500 	and.w	r5, r1, #2147483648	; 0x80000000
 80003ac:	f045 41fe 	orr.w	r1, r5, #2130706432	; 0x7f000000
 80003b0:	f441 0170 	orr.w	r1, r1, #15728640	; 0xf00000
 80003b4:	f04f 0000 	mov.w	r0, #0
 80003b8:	bd30      	pop	{r4, r5, pc}
 80003ba:	ea7f 5c64 	mvns.w	ip, r4, asr #21
 80003be:	bf1a      	itte	ne
 80003c0:	4619      	movne	r1, r3
 80003c2:	4610      	movne	r0, r2
 80003c4:	ea7f 5c65 	mvnseq.w	ip, r5, asr #21
 80003c8:	bf1c      	itt	ne
 80003ca:	460b      	movne	r3, r1
 80003cc:	4602      	movne	r2, r0
 80003ce:	ea50 3401 	orrs.w	r4, r0, r1, lsl #12
 80003d2:	bf06      	itte	eq
 80003d4:	ea52 3503 	orrseq.w	r5, r2, r3, lsl #12
 80003d8:	ea91 0f03 	teqeq	r1, r3
 80003dc:	f441 2100 	orrne.w	r1, r1, #524288	; 0x80000
 80003e0:	bd30      	pop	{r4, r5, pc}
 80003e2:	bf00      	nop

080003e4 <__aeabi_ui2d>:
 80003e4:	f090 0f00 	teq	r0, #0
 80003e8:	bf04      	itt	eq
 80003ea:	2100      	moveq	r1, #0
 80003ec:	4770      	bxeq	lr
 80003ee:	b530      	push	{r4, r5, lr}
 80003f0:	f44f 6480 	mov.w	r4, #1024	; 0x400
 80003f4:	f104 0432 	add.w	r4, r4, #50	; 0x32
 80003f8:	f04f 0500 	mov.w	r5, #0
 80003fc:	f04f 0100 	mov.w	r1, #0
 8000400:	e750      	b.n	80002a4 <__adddf3+0x138>
 8000402:	bf00      	nop

08000404 <__aeabi_i2d>:
 8000404:	f090 0f00 	teq	r0, #0
 8000408:	bf04      	itt	eq
 800040a:	2100      	moveq	r1, #0
 800040c:	4770      	bxeq	lr
 800040e:	b530      	push	{r4, r5, lr}
 8000410:	f44f 6480 	mov.w	r4, #1024	; 0x400
 8000414:	f104 0432 	add.w	r4, r4, #50	; 0x32
 8000418:	f010 4500 	ands.w	r5, r0, #2147483648	; 0x80000000
 800041c:	bf48      	it	mi
 800041e:	4240      	negmi	r0, r0
 8000420:	f04f 0100 	mov.w	r1, #0
 8000424:	e73e      	b.n	80002a4 <__adddf3+0x138>
 8000426:	bf00      	nop

08000428 <__aeabi_f2d>:
 8000428:	0042      	lsls	r2, r0, #1
 800042a:	ea4f 01e2 	mov.w	r1, r2, asr #3
 800042e:	ea4f 0131 	mov.w	r1, r1, rrx
 8000432:	ea4f 7002 	mov.w	r0, r2, lsl #28
 8000436:	bf1f      	itttt	ne
 8000438:	f012 437f 	andsne.w	r3, r2, #4278190080	; 0xff000000
 800043c:	f093 4f7f 	teqne	r3, #4278190080	; 0xff000000
 8000440:	f081 5160 	eorne.w	r1, r1, #939524096	; 0x38000000
 8000444:	4770      	bxne	lr
 8000446:	f032 427f 	bics.w	r2, r2, #4278190080	; 0xff000000
 800044a:	bf08      	it	eq
 800044c:	4770      	bxeq	lr
 800044e:	f093 4f7f 	teq	r3, #4278190080	; 0xff000000
 8000452:	bf04      	itt	eq
 8000454:	f441 2100 	orreq.w	r1, r1, #524288	; 0x80000
 8000458:	4770      	bxeq	lr
 800045a:	b530      	push	{r4, r5, lr}
 800045c:	f44f 7460 	mov.w	r4, #896	; 0x380
 8000460:	f001 4500 	and.w	r5, r1, #2147483648	; 0x80000000
 8000464:	f021 4100 	bic.w	r1, r1, #2147483648	; 0x80000000
 8000468:	e71c      	b.n	80002a4 <__adddf3+0x138>
 800046a:	bf00      	nop

0800046c <__aeabi_ul2d>:
 800046c:	ea50 0201 	orrs.w	r2, r0, r1
 8000470:	bf08      	it	eq
 8000472:	4770      	bxeq	lr
 8000474:	b530      	push	{r4, r5, lr}
 8000476:	f04f 0500 	mov.w	r5, #0
 800047a:	e00a      	b.n	8000492 <__aeabi_l2d+0x16>

0800047c <__aeabi_l2d>:
 800047c:	ea50 0201 	orrs.w	r2, r0, r1
 8000480:	bf08      	it	eq
 8000482:	4770      	bxeq	lr
 8000484:	b530      	push	{r4, r5, lr}
 8000486:	f011 4500 	ands.w	r5, r1, #2147483648	; 0x80000000
 800048a:	d502      	bpl.n	8000492 <__aeabi_l2d+0x16>
 800048c:	4240      	negs	r0, r0
 800048e:	eb61 0141 	sbc.w	r1, r1, r1, lsl #1
 8000492:	f44f 6480 	mov.w	r4, #1024	; 0x400
 8000496:	f104 0432 	add.w	r4, r4, #50	; 0x32
 800049a:	ea5f 5c91 	movs.w	ip, r1, lsr #22
 800049e:	f43f aed8 	beq.w	8000252 <__adddf3+0xe6>
 80004a2:	f04f 0203 	mov.w	r2, #3
 80004a6:	ea5f 0cdc 	movs.w	ip, ip, lsr #3
 80004aa:	bf18      	it	ne
 80004ac:	3203      	addne	r2, #3
 80004ae:	ea5f 0cdc 	movs.w	ip, ip, lsr #3
 80004b2:	bf18      	it	ne
 80004b4:	3203      	addne	r2, #3
 80004b6:	eb02 02dc 	add.w	r2, r2, ip, lsr #3
 80004ba:	f1c2 0320 	rsb	r3, r2, #32
 80004be:	fa00 fc03 	lsl.w	ip, r0, r3
 80004c2:	fa20 f002 	lsr.w	r0, r0, r2
 80004c6:	fa01 fe03 	lsl.w	lr, r1, r3
 80004ca:	ea40 000e 	orr.w	r0, r0, lr
 80004ce:	fa21 f102 	lsr.w	r1, r1, r2
 80004d2:	4414      	add	r4, r2
 80004d4:	e6bd      	b.n	8000252 <__adddf3+0xe6>
 80004d6:	bf00      	nop

080004d8 <__aeabi_dmul>:
 80004d8:	b570      	push	{r4, r5, r6, lr}
 80004da:	f04f 0cff 	mov.w	ip, #255	; 0xff
 80004de:	f44c 6ce0 	orr.w	ip, ip, #1792	; 0x700
 80004e2:	ea1c 5411 	ands.w	r4, ip, r1, lsr #20
 80004e6:	bf1d      	ittte	ne
 80004e8:	ea1c 5513 	andsne.w	r5, ip, r3, lsr #20
 80004ec:	ea94 0f0c 	teqne	r4, ip
 80004f0:	ea95 0f0c 	teqne	r5, ip
 80004f4:	f000 f8de 	bleq	80006b4 <__aeabi_dmul+0x1dc>
 80004f8:	442c      	add	r4, r5
 80004fa:	ea81 0603 	eor.w	r6, r1, r3
 80004fe:	ea21 514c 	bic.w	r1, r1, ip, lsl #21
 8000502:	ea23 534c 	bic.w	r3, r3, ip, lsl #21
 8000506:	ea50 3501 	orrs.w	r5, r0, r1, lsl #12
 800050a:	bf18      	it	ne
 800050c:	ea52 3503 	orrsne.w	r5, r2, r3, lsl #12
 8000510:	f441 1180 	orr.w	r1, r1, #1048576	; 0x100000
 8000514:	f443 1380 	orr.w	r3, r3, #1048576	; 0x100000
 8000518:	d038      	beq.n	800058c <__aeabi_dmul+0xb4>
 800051a:	fba0 ce02 	umull	ip, lr, r0, r2
 800051e:	f04f 0500 	mov.w	r5, #0
 8000522:	fbe1 e502 	umlal	lr, r5, r1, r2
 8000526:	f006 4200 	and.w	r2, r6, #2147483648	; 0x80000000
 800052a:	fbe0 e503 	umlal	lr, r5, r0, r3
 800052e:	f04f 0600 	mov.w	r6, #0
 8000532:	fbe1 5603 	umlal	r5, r6, r1, r3
 8000536:	f09c 0f00 	teq	ip, #0
 800053a:	bf18      	it	ne
 800053c:	f04e 0e01 	orrne.w	lr, lr, #1
 8000540:	f1a4 04ff 	sub.w	r4, r4, #255	; 0xff
 8000544:	f5b6 7f00 	cmp.w	r6, #512	; 0x200
 8000548:	f564 7440 	sbc.w	r4, r4, #768	; 0x300
 800054c:	d204      	bcs.n	8000558 <__aeabi_dmul+0x80>
 800054e:	ea5f 0e4e 	movs.w	lr, lr, lsl #1
 8000552:	416d      	adcs	r5, r5
 8000554:	eb46 0606 	adc.w	r6, r6, r6
 8000558:	ea42 21c6 	orr.w	r1, r2, r6, lsl #11
 800055c:	ea41 5155 	orr.w	r1, r1, r5, lsr #21
 8000560:	ea4f 20c5 	mov.w	r0, r5, lsl #11
 8000564:	ea40 505e 	orr.w	r0, r0, lr, lsr #21
 8000568:	ea4f 2ece 	mov.w	lr, lr, lsl #11
 800056c:	f1b4 0cfd 	subs.w	ip, r4, #253	; 0xfd
 8000570:	bf88      	it	hi
 8000572:	f5bc 6fe0 	cmphi.w	ip, #1792	; 0x700
 8000576:	d81e      	bhi.n	80005b6 <__aeabi_dmul+0xde>
 8000578:	f1be 4f00 	cmp.w	lr, #2147483648	; 0x80000000
 800057c:	bf08      	it	eq
 800057e:	ea5f 0e50 	movseq.w	lr, r0, lsr #1
 8000582:	f150 0000 	adcs.w	r0, r0, #0
 8000586:	eb41 5104 	adc.w	r1, r1, r4, lsl #20
 800058a:	bd70      	pop	{r4, r5, r6, pc}
 800058c:	f006 4600 	and.w	r6, r6, #2147483648	; 0x80000000
 8000590:	ea46 0101 	orr.w	r1, r6, r1
 8000594:	ea40 0002 	orr.w	r0, r0, r2
 8000598:	ea81 0103 	eor.w	r1, r1, r3
 800059c:	ebb4 045c 	subs.w	r4, r4, ip, lsr #1
 80005a0:	bfc2      	ittt	gt
 80005a2:	ebd4 050c 	rsbsgt	r5, r4, ip
 80005a6:	ea41 5104 	orrgt.w	r1, r1, r4, lsl #20
 80005aa:	bd70      	popgt	{r4, r5, r6, pc}
 80005ac:	f441 1180 	orr.w	r1, r1, #1048576	; 0x100000
 80005b0:	f04f 0e00 	mov.w	lr, #0
 80005b4:	3c01      	subs	r4, #1
 80005b6:	f300 80ab 	bgt.w	8000710 <__aeabi_dmul+0x238>
 80005ba:	f114 0f36 	cmn.w	r4, #54	; 0x36
 80005be:	bfde      	ittt	le
 80005c0:	2000      	movle	r0, #0
 80005c2:	f001 4100 	andle.w	r1, r1, #2147483648	; 0x80000000
 80005c6:	bd70      	pople	{r4, r5, r6, pc}
 80005c8:	f1c4 0400 	rsb	r4, r4, #0
 80005cc:	3c20      	subs	r4, #32
 80005ce:	da35      	bge.n	800063c <__aeabi_dmul+0x164>
 80005d0:	340c      	adds	r4, #12
 80005d2:	dc1b      	bgt.n	800060c <__aeabi_dmul+0x134>
 80005d4:	f104 0414 	add.w	r4, r4, #20
 80005d8:	f1c4 0520 	rsb	r5, r4, #32
 80005dc:	fa00 f305 	lsl.w	r3, r0, r5
 80005e0:	fa20 f004 	lsr.w	r0, r0, r4
 80005e4:	fa01 f205 	lsl.w	r2, r1, r5
 80005e8:	ea40 0002 	orr.w	r0, r0, r2
 80005ec:	f001 4200 	and.w	r2, r1, #2147483648	; 0x80000000
 80005f0:	f021 4100 	bic.w	r1, r1, #2147483648	; 0x80000000
 80005f4:	eb10 70d3 	adds.w	r0, r0, r3, lsr #31
 80005f8:	fa21 f604 	lsr.w	r6, r1, r4
 80005fc:	eb42 0106 	adc.w	r1, r2, r6
 8000600:	ea5e 0e43 	orrs.w	lr, lr, r3, lsl #1
 8000604:	bf08      	it	eq
 8000606:	ea20 70d3 	biceq.w	r0, r0, r3, lsr #31
 800060a:	bd70      	pop	{r4, r5, r6, pc}
 800060c:	f1c4 040c 	rsb	r4, r4, #12
 8000610:	f1c4 0520 	rsb	r5, r4, #32
 8000614:	fa00 f304 	lsl.w	r3, r0, r4
 8000618:	fa20 f005 	lsr.w	r0, r0, r5
 800061c:	fa01 f204 	lsl.w	r2, r1, r4
 8000620:	ea40 0002 	orr.w	r0, r0, r2
 8000624:	f001 4100 	and.w	r1, r1, #2147483648	; 0x80000000
 8000628:	eb10 70d3 	adds.w	r0, r0, r3, lsr #31
 800062c:	f141 0100 	adc.w	r1, r1, #0
 8000630:	ea5e 0e43 	orrs.w	lr, lr, r3, lsl #1
 8000634:	bf08      	it	eq
 8000636:	ea20 70d3 	biceq.w	r0, r0, r3, lsr #31
 800063a:	bd70      	pop	{r4, r5, r6, pc}
 800063c:	f1c4 0520 	rsb	r5, r4, #32
 8000640:	fa00 f205 	lsl.w	r2, r0, r5
 8000644:	ea4e 0e02 	orr.w	lr, lr, r2
 8000648:	fa20 f304 	lsr.w	r3, r0, r4
 800064c:	fa01 f205 	lsl.w	r2, r1, r5
 8000650:	ea43 0302 	orr.w	r3, r3, r2
 8000654:	fa21 f004 	lsr.w	r0, r1, r4
 8000658:	f001 4100 	and.w	r1, r1, #2147483648	; 0x80000000
 800065c:	fa21 f204 	lsr.w	r2, r1, r4
 8000660:	ea20 0002 	bic.w	r0, r0, r2
 8000664:	eb00 70d3 	add.w	r0, r0, r3, lsr #31
 8000668:	ea5e 0e43 	orrs.w	lr, lr, r3, lsl #1
 800066c:	bf08      	it	eq
 800066e:	ea20 70d3 	biceq.w	r0, r0, r3, lsr #31
 8000672:	bd70      	pop	{r4, r5, r6, pc}
 8000674:	f094 0f00 	teq	r4, #0
 8000678:	d10f      	bne.n	800069a <__aeabi_dmul+0x1c2>
 800067a:	f001 4600 	and.w	r6, r1, #2147483648	; 0x80000000
 800067e:	0040      	lsls	r0, r0, #1
 8000680:	eb41 0101 	adc.w	r1, r1, r1
 8000684:	f411 1f80 	tst.w	r1, #1048576	; 0x100000
 8000688:	bf08      	it	eq
 800068a:	3c01      	subeq	r4, #1
 800068c:	d0f7      	beq.n	800067e <__aeabi_dmul+0x1a6>
 800068e:	ea41 0106 	orr.w	r1, r1, r6
 8000692:	f095 0f00 	teq	r5, #0
 8000696:	bf18      	it	ne
 8000698:	4770      	bxne	lr
 800069a:	f003 4600 	and.w	r6, r3, #2147483648	; 0x80000000
 800069e:	0052      	lsls	r2, r2, #1
 80006a0:	eb43 0303 	adc.w	r3, r3, r3
 80006a4:	f413 1f80 	tst.w	r3, #1048576	; 0x100000
 80006a8:	bf08      	it	eq
 80006aa:	3d01      	subeq	r5, #1
 80006ac:	d0f7      	beq.n	800069e <__aeabi_dmul+0x1c6>
 80006ae:	ea43 0306 	orr.w	r3, r3, r6
 80006b2:	4770      	bx	lr
 80006b4:	ea94 0f0c 	teq	r4, ip
 80006b8:	ea0c 5513 	and.w	r5, ip, r3, lsr #20
 80006bc:	bf18      	it	ne
 80006be:	ea95 0f0c 	teqne	r5, ip
 80006c2:	d00c      	beq.n	80006de <__aeabi_dmul+0x206>
 80006c4:	ea50 0641 	orrs.w	r6, r0, r1, lsl #1
 80006c8:	bf18      	it	ne
 80006ca:	ea52 0643 	orrsne.w	r6, r2, r3, lsl #1
 80006ce:	d1d1      	bne.n	8000674 <__aeabi_dmul+0x19c>
 80006d0:	ea81 0103 	eor.w	r1, r1, r3
 80006d4:	f001 4100 	and.w	r1, r1, #2147483648	; 0x80000000
 80006d8:	f04f 0000 	mov.w	r0, #0
 80006dc:	bd70      	pop	{r4, r5, r6, pc}
 80006de:	ea50 0641 	orrs.w	r6, r0, r1, lsl #1
 80006e2:	bf06      	itte	eq
 80006e4:	4610      	moveq	r0, r2
 80006e6:	4619      	moveq	r1, r3
 80006e8:	ea52 0643 	orrsne.w	r6, r2, r3, lsl #1
 80006ec:	d019      	beq.n	8000722 <__aeabi_dmul+0x24a>
 80006ee:	ea94 0f0c 	teq	r4, ip
 80006f2:	d102      	bne.n	80006fa <__aeabi_dmul+0x222>
 80006f4:	ea50 3601 	orrs.w	r6, r0, r1, lsl #12
 80006f8:	d113      	bne.n	8000722 <__aeabi_dmul+0x24a>
 80006fa:	ea95 0f0c 	teq	r5, ip
 80006fe:	d105      	bne.n	800070c <__aeabi_dmul+0x234>
 8000700:	ea52 3603 	orrs.w	r6, r2, r3, lsl #12
 8000704:	bf1c      	itt	ne
 8000706:	4610      	movne	r0, r2
 8000708:	4619      	movne	r1, r3
 800070a:	d10a      	bne.n	8000722 <__aeabi_dmul+0x24a>
 800070c:	ea81 0103 	eor.w	r1, r1, r3
 8000710:	f001 4100 	and.w	r1, r1, #2147483648	; 0x80000000
 8000714:	f041 41fe 	orr.w	r1, r1, #2130706432	; 0x7f000000
 8000718:	f441 0170 	orr.w	r1, r1, #15728640	; 0xf00000
 800071c:	f04f 0000 	mov.w	r0, #0
 8000720:	bd70      	pop	{r4, r5, r6, pc}
 8000722:	f041 41fe 	orr.w	r1, r1, #2130706432	; 0x7f000000
 8000726:	f441 0178 	orr.w	r1, r1, #16252928	; 0xf80000
 800072a:	bd70      	pop	{r4, r5, r6, pc}

0800072c <__aeabi_ddiv>:
 800072c:	b570      	push	{r4, r5, r6, lr}
 800072e:	f04f 0cff 	mov.w	ip, #255	; 0xff
 8000732:	f44c 6ce0 	orr.w	ip, ip, #1792	; 0x700
 8000736:	ea1c 5411 	ands.w	r4, ip, r1, lsr #20
 800073a:	bf1d      	ittte	ne
 800073c:	ea1c 5513 	andsne.w	r5, ip, r3, lsr #20
 8000740:	ea94 0f0c 	teqne	r4, ip
 8000744:	ea95 0f0c 	teqne	r5, ip
 8000748:	f000 f8a7 	bleq	800089a <__aeabi_ddiv+0x16e>
 800074c:	eba4 0405 	sub.w	r4, r4, r5
 8000750:	ea81 0e03 	eor.w	lr, r1, r3
 8000754:	ea52 3503 	orrs.w	r5, r2, r3, lsl #12
 8000758:	ea4f 3101 	mov.w	r1, r1, lsl #12
 800075c:	f000 8088 	beq.w	8000870 <__aeabi_ddiv+0x144>
 8000760:	ea4f 3303 	mov.w	r3, r3, lsl #12
 8000764:	f04f 5580 	mov.w	r5, #268435456	; 0x10000000
 8000768:	ea45 1313 	orr.w	r3, r5, r3, lsr #4
 800076c:	ea43 6312 	orr.w	r3, r3, r2, lsr #24
 8000770:	ea4f 2202 	mov.w	r2, r2, lsl #8
 8000774:	ea45 1511 	orr.w	r5, r5, r1, lsr #4
 8000778:	ea45 6510 	orr.w	r5, r5, r0, lsr #24
 800077c:	ea4f 2600 	mov.w	r6, r0, lsl #8
 8000780:	f00e 4100 	and.w	r1, lr, #2147483648	; 0x80000000
 8000784:	429d      	cmp	r5, r3
 8000786:	bf08      	it	eq
 8000788:	4296      	cmpeq	r6, r2
 800078a:	f144 04fd 	adc.w	r4, r4, #253	; 0xfd
 800078e:	f504 7440 	add.w	r4, r4, #768	; 0x300
 8000792:	d202      	bcs.n	800079a <__aeabi_ddiv+0x6e>
 8000794:	085b      	lsrs	r3, r3, #1
 8000796:	ea4f 0232 	mov.w	r2, r2, rrx
 800079a:	1ab6      	subs	r6, r6, r2
 800079c:	eb65 0503 	sbc.w	r5, r5, r3
 80007a0:	085b      	lsrs	r3, r3, #1
 80007a2:	ea4f 0232 	mov.w	r2, r2, rrx
 80007a6:	f44f 1080 	mov.w	r0, #1048576	; 0x100000
 80007aa:	f44f 2c00 	mov.w	ip, #524288	; 0x80000
 80007ae:	ebb6 0e02 	subs.w	lr, r6, r2
 80007b2:	eb75 0e03 	sbcs.w	lr, r5, r3
 80007b6:	bf22      	ittt	cs
 80007b8:	1ab6      	subcs	r6, r6, r2
 80007ba:	4675      	movcs	r5, lr
 80007bc:	ea40 000c 	orrcs.w	r0, r0, ip
 80007c0:	085b      	lsrs	r3, r3, #1
 80007c2:	ea4f 0232 	mov.w	r2, r2, rrx
 80007c6:	ebb6 0e02 	subs.w	lr, r6, r2
 80007ca:	eb75 0e03 	sbcs.w	lr, r5, r3
 80007ce:	bf22      	ittt	cs
 80007d0:	1ab6      	subcs	r6, r6, r2
 80007d2:	4675      	movcs	r5, lr
 80007d4:	ea40 005c 	orrcs.w	r0, r0, ip, lsr #1
 80007d8:	085b      	lsrs	r3, r3, #1
 80007da:	ea4f 0232 	mov.w	r2, r2, rrx
 80007de:	ebb6 0e02 	subs.w	lr, r6, r2
 80007e2:	eb75 0e03 	sbcs.w	lr, r5, r3
 80007e6:	bf22      	ittt	cs
 80007e8:	1ab6      	subcs	r6, r6, r2
 80007ea:	4675      	movcs	r5, lr
 80007ec:	ea40 009c 	orrcs.w	r0, r0, ip, lsr #2
 80007f0:	085b      	lsrs	r3, r3, #1
 80007f2:	ea4f 0232 	mov.w	r2, r2, rrx
 80007f6:	ebb6 0e02 	subs.w	lr, r6, r2
 80007fa:	eb75 0e03 	sbcs.w	lr, r5, r3
 80007fe:	bf22      	ittt	cs
 8000800:	1ab6      	subcs	r6, r6, r2
 8000802:	4675      	movcs	r5, lr
 8000804:	ea40 00dc 	orrcs.w	r0, r0, ip, lsr #3
 8000808:	ea55 0e06 	orrs.w	lr, r5, r6
 800080c:	d018      	beq.n	8000840 <__aeabi_ddiv+0x114>
 800080e:	ea4f 1505 	mov.w	r5, r5, lsl #4
 8000812:	ea45 7516 	orr.w	r5, r5, r6, lsr #28
 8000816:	ea4f 1606 	mov.w	r6, r6, lsl #4
 800081a:	ea4f 03c3 	mov.w	r3, r3, lsl #3
 800081e:	ea43 7352 	orr.w	r3, r3, r2, lsr #29
 8000822:	ea4f 02c2 	mov.w	r2, r2, lsl #3
 8000826:	ea5f 1c1c 	movs.w	ip, ip, lsr #4
 800082a:	d1c0      	bne.n	80007ae <__aeabi_ddiv+0x82>
 800082c:	f411 1f80 	tst.w	r1, #1048576	; 0x100000
 8000830:	d10b      	bne.n	800084a <__aeabi_ddiv+0x11e>
 8000832:	ea41 0100 	orr.w	r1, r1, r0
 8000836:	f04f 0000 	mov.w	r0, #0
 800083a:	f04f 4c00 	mov.w	ip, #2147483648	; 0x80000000
 800083e:	e7b6      	b.n	80007ae <__aeabi_ddiv+0x82>
 8000840:	f411 1f80 	tst.w	r1, #1048576	; 0x100000
 8000844:	bf04      	itt	eq
 8000846:	4301      	orreq	r1, r0
 8000848:	2000      	moveq	r0, #0
 800084a:	f1b4 0cfd 	subs.w	ip, r4, #253	; 0xfd
 800084e:	bf88      	it	hi
 8000850:	f5bc 6fe0 	cmphi.w	ip, #1792	; 0x700
 8000854:	f63f aeaf 	bhi.w	80005b6 <__aeabi_dmul+0xde>
 8000858:	ebb5 0c03 	subs.w	ip, r5, r3
 800085c:	bf04      	itt	eq
 800085e:	ebb6 0c02 	subseq.w	ip, r6, r2
 8000862:	ea5f 0c50 	movseq.w	ip, r0, lsr #1
 8000866:	f150 0000 	adcs.w	r0, r0, #0
 800086a:	eb41 5104 	adc.w	r1, r1, r4, lsl #20
 800086e:	bd70      	pop	{r4, r5, r6, pc}
 8000870:	f00e 4e00 	and.w	lr, lr, #2147483648	; 0x80000000
 8000874:	ea4e 3111 	orr.w	r1, lr, r1, lsr #12
 8000878:	eb14 045c 	adds.w	r4, r4, ip, lsr #1
 800087c:	bfc2      	ittt	gt
 800087e:	ebd4 050c 	rsbsgt	r5, r4, ip
 8000882:	ea41 5104 	orrgt.w	r1, r1, r4, lsl #20
 8000886:	bd70      	popgt	{r4, r5, r6, pc}
 8000888:	f441 1180 	orr.w	r1, r1, #1048576	; 0x100000
 800088c:	f04f 0e00 	mov.w	lr, #0
 8000890:	3c01      	subs	r4, #1
 8000892:	e690      	b.n	80005b6 <__aeabi_dmul+0xde>
 8000894:	ea45 0e06 	orr.w	lr, r5, r6
 8000898:	e68d      	b.n	80005b6 <__aeabi_dmul+0xde>
 800089a:	ea0c 5513 	and.w	r5, ip, r3, lsr #20
 800089e:	ea94 0f0c 	teq	r4, ip
 80008a2:	bf08      	it	eq
 80008a4:	ea95 0f0c 	teqeq	r5, ip
 80008a8:	f43f af3b 	beq.w	8000722 <__aeabi_dmul+0x24a>
 80008ac:	ea94 0f0c 	teq	r4, ip
 80008b0:	d10a      	bne.n	80008c8 <__aeabi_ddiv+0x19c>
 80008b2:	ea50 3401 	orrs.w	r4, r0, r1, lsl #12
 80008b6:	f47f af34 	bne.w	8000722 <__aeabi_dmul+0x24a>
 80008ba:	ea95 0f0c 	teq	r5, ip
 80008be:	f47f af25 	bne.w	800070c <__aeabi_dmul+0x234>
 80008c2:	4610      	mov	r0, r2
 80008c4:	4619      	mov	r1, r3
 80008c6:	e72c      	b.n	8000722 <__aeabi_dmul+0x24a>
 80008c8:	ea95 0f0c 	teq	r5, ip
 80008cc:	d106      	bne.n	80008dc <__aeabi_ddiv+0x1b0>
 80008ce:	ea52 3503 	orrs.w	r5, r2, r3, lsl #12
 80008d2:	f43f aefd 	beq.w	80006d0 <__aeabi_dmul+0x1f8>
 80008d6:	4610      	mov	r0, r2
 80008d8:	4619      	mov	r1, r3
 80008da:	e722      	b.n	8000722 <__aeabi_dmul+0x24a>
 80008dc:	ea50 0641 	orrs.w	r6, r0, r1, lsl #1
 80008e0:	bf18      	it	ne
 80008e2:	ea52 0643 	orrsne.w	r6, r2, r3, lsl #1
 80008e6:	f47f aec5 	bne.w	8000674 <__aeabi_dmul+0x19c>
 80008ea:	ea50 0441 	orrs.w	r4, r0, r1, lsl #1
 80008ee:	f47f af0d 	bne.w	800070c <__aeabi_dmul+0x234>
 80008f2:	ea52 0543 	orrs.w	r5, r2, r3, lsl #1
 80008f6:	f47f aeeb 	bne.w	80006d0 <__aeabi_dmul+0x1f8>
 80008fa:	e712      	b.n	8000722 <__aeabi_dmul+0x24a>

080008fc <__gedf2>:
 80008fc:	f04f 3cff 	mov.w	ip, #4294967295
 8000900:	e006      	b.n	8000910 <__cmpdf2+0x4>
 8000902:	bf00      	nop

08000904 <__ledf2>:
 8000904:	f04f 0c01 	mov.w	ip, #1
 8000908:	e002      	b.n	8000910 <__cmpdf2+0x4>
 800090a:	bf00      	nop

0800090c <__cmpdf2>:
 800090c:	f04f 0c01 	mov.w	ip, #1
 8000910:	f84d cd04 	str.w	ip, [sp, #-4]!
 8000914:	ea4f 0c41 	mov.w	ip, r1, lsl #1
 8000918:	ea7f 5c6c 	mvns.w	ip, ip, asr #21
 800091c:	ea4f 0c43 	mov.w	ip, r3, lsl #1
 8000920:	bf18      	it	ne
 8000922:	ea7f 5c6c 	mvnsne.w	ip, ip, asr #21
 8000926:	d01b      	beq.n	8000960 <__cmpdf2+0x54>
 8000928:	b001      	add	sp, #4
 800092a:	ea50 0c41 	orrs.w	ip, r0, r1, lsl #1
 800092e:	bf0c      	ite	eq
 8000930:	ea52 0c43 	orrseq.w	ip, r2, r3, lsl #1
 8000934:	ea91 0f03 	teqne	r1, r3
 8000938:	bf02      	ittt	eq
 800093a:	ea90 0f02 	teqeq	r0, r2
 800093e:	2000      	moveq	r0, #0
 8000940:	4770      	bxeq	lr
 8000942:	f110 0f00 	cmn.w	r0, #0
 8000946:	ea91 0f03 	teq	r1, r3
 800094a:	bf58      	it	pl
 800094c:	4299      	cmppl	r1, r3
 800094e:	bf08      	it	eq
 8000950:	4290      	cmpeq	r0, r2
 8000952:	bf2c      	ite	cs
 8000954:	17d8      	asrcs	r0, r3, #31
 8000956:	ea6f 70e3 	mvncc.w	r0, r3, asr #31
 800095a:	f040 0001 	orr.w	r0, r0, #1
 800095e:	4770      	bx	lr
 8000960:	ea4f 0c41 	mov.w	ip, r1, lsl #1
 8000964:	ea7f 5c6c 	mvns.w	ip, ip, asr #21
 8000968:	d102      	bne.n	8000970 <__cmpdf2+0x64>
 800096a:	ea50 3c01 	orrs.w	ip, r0, r1, lsl #12
 800096e:	d107      	bne.n	8000980 <__cmpdf2+0x74>
 8000970:	ea4f 0c43 	mov.w	ip, r3, lsl #1
 8000974:	ea7f 5c6c 	mvns.w	ip, ip, asr #21
 8000978:	d1d6      	bne.n	8000928 <__cmpdf2+0x1c>
 800097a:	ea52 3c03 	orrs.w	ip, r2, r3, lsl #12
 800097e:	d0d3      	beq.n	8000928 <__cmpdf2+0x1c>
 8000980:	f85d 0b04 	ldr.w	r0, [sp], #4
 8000984:	4770      	bx	lr
 8000986:	bf00      	nop

08000988 <__aeabi_cdrcmple>:
 8000988:	4684      	mov	ip, r0
 800098a:	4610      	mov	r0, r2
 800098c:	4662      	mov	r2, ip
 800098e:	468c      	mov	ip, r1
 8000990:	4619      	mov	r1, r3
 8000992:	4663      	mov	r3, ip
 8000994:	e000      	b.n	8000998 <__aeabi_cdcmpeq>
 8000996:	bf00      	nop

08000998 <__aeabi_cdcmpeq>:
 8000998:	b501      	push	{r0, lr}
 800099a:	f7ff ffb7 	bl	800090c <__cmpdf2>
 800099e:	2800      	cmp	r0, #0
 80009a0:	bf48      	it	mi
 80009a2:	f110 0f00 	cmnmi.w	r0, #0
 80009a6:	bd01      	pop	{r0, pc}

080009a8 <__aeabi_dcmpeq>:
 80009a8:	f84d ed08 	str.w	lr, [sp, #-8]!
 80009ac:	f7ff fff4 	bl	8000998 <__aeabi_cdcmpeq>
 80009b0:	bf0c      	ite	eq
 80009b2:	2001      	moveq	r0, #1
 80009b4:	2000      	movne	r0, #0
 80009b6:	f85d fb08 	ldr.w	pc, [sp], #8
 80009ba:	bf00      	nop

080009bc <__aeabi_dcmplt>:
 80009bc:	f84d ed08 	str.w	lr, [sp, #-8]!
 80009c0:	f7ff ffea 	bl	8000998 <__aeabi_cdcmpeq>
 80009c4:	bf34      	ite	cc
 80009c6:	2001      	movcc	r0, #1
 80009c8:	2000      	movcs	r0, #0
 80009ca:	f85d fb08 	ldr.w	pc, [sp], #8
 80009ce:	bf00      	nop

080009d0 <__aeabi_dcmple>:
 80009d0:	f84d ed08 	str.w	lr, [sp, #-8]!
 80009d4:	f7ff ffe0 	bl	8000998 <__aeabi_cdcmpeq>
 80009d8:	bf94      	ite	ls
 80009da:	2001      	movls	r0, #1
 80009dc:	2000      	movhi	r0, #0
 80009de:	f85d fb08 	ldr.w	pc, [sp], #8
 80009e2:	bf00      	nop

080009e4 <__aeabi_dcmpge>:
 80009e4:	f84d ed08 	str.w	lr, [sp, #-8]!
 80009e8:	f7ff ffce 	bl	8000988 <__aeabi_cdrcmple>
 80009ec:	bf94      	ite	ls
 80009ee:	2001      	movls	r0, #1
 80009f0:	2000      	movhi	r0, #0
 80009f2:	f85d fb08 	ldr.w	pc, [sp], #8
 80009f6:	bf00      	nop

080009f8 <__aeabi_dcmpgt>:
 80009f8:	f84d ed08 	str.w	lr, [sp, #-8]!
 80009fc:	f7ff ffc4 	bl	8000988 <__aeabi_cdrcmple>
 8000a00:	bf34      	ite	cc
 8000a02:	2001      	movcc	r0, #1
 8000a04:	2000      	movcs	r0, #0
 8000a06:	f85d fb08 	ldr.w	pc, [sp], #8
 8000a0a:	bf00      	nop

08000a0c <__aeabi_dcmpun>:
 8000a0c:	ea4f 0c41 	mov.w	ip, r1, lsl #1
 8000a10:	ea7f 5c6c 	mvns.w	ip, ip, asr #21
 8000a14:	d102      	bne.n	8000a1c <__aeabi_dcmpun+0x10>
 8000a16:	ea50 3c01 	orrs.w	ip, r0, r1, lsl #12
 8000a1a:	d10a      	bne.n	8000a32 <__aeabi_dcmpun+0x26>
 8000a1c:	ea4f 0c43 	mov.w	ip, r3, lsl #1
 8000a20:	ea7f 5c6c 	mvns.w	ip, ip, asr #21
 8000a24:	d102      	bne.n	8000a2c <__aeabi_dcmpun+0x20>
 8000a26:	ea52 3c03 	orrs.w	ip, r2, r3, lsl #12
 8000a2a:	d102      	bne.n	8000a32 <__aeabi_dcmpun+0x26>
 8000a2c:	f04f 0000 	mov.w	r0, #0
 8000a30:	4770      	bx	lr
 8000a32:	f04f 0001 	mov.w	r0, #1
 8000a36:	4770      	bx	lr

08000a38 <__aeabi_d2iz>:
 8000a38:	ea4f 0241 	mov.w	r2, r1, lsl #1
 8000a3c:	f512 1200 	adds.w	r2, r2, #2097152	; 0x200000
 8000a40:	d215      	bcs.n	8000a6e <__aeabi_d2iz+0x36>
 8000a42:	d511      	bpl.n	8000a68 <__aeabi_d2iz+0x30>
 8000a44:	f46f 7378 	mvn.w	r3, #992	; 0x3e0
 8000a48:	ebb3 5262 	subs.w	r2, r3, r2, asr #21
 8000a4c:	d912      	bls.n	8000a74 <__aeabi_d2iz+0x3c>
 8000a4e:	ea4f 23c1 	mov.w	r3, r1, lsl #11
 8000a52:	f043 4300 	orr.w	r3, r3, #2147483648	; 0x80000000
 8000a56:	ea43 5350 	orr.w	r3, r3, r0, lsr #21
 8000a5a:	f011 4f00 	tst.w	r1, #2147483648	; 0x80000000
 8000a5e:	fa23 f002 	lsr.w	r0, r3, r2
 8000a62:	bf18      	it	ne
 8000a64:	4240      	negne	r0, r0
 8000a66:	4770      	bx	lr
 8000a68:	f04f 0000 	mov.w	r0, #0
 8000a6c:	4770      	bx	lr
 8000a6e:	ea50 3001 	orrs.w	r0, r0, r1, lsl #12
 8000a72:	d105      	bne.n	8000a80 <__aeabi_d2iz+0x48>
 8000a74:	f011 4000 	ands.w	r0, r1, #2147483648	; 0x80000000
 8000a78:	bf08      	it	eq
 8000a7a:	f06f 4000 	mvneq.w	r0, #2147483648	; 0x80000000
 8000a7e:	4770      	bx	lr
 8000a80:	f04f 0000 	mov.w	r0, #0
 8000a84:	4770      	bx	lr
 8000a86:	bf00      	nop

08000a88 <__aeabi_d2f>:
 8000a88:	ea4f 0241 	mov.w	r2, r1, lsl #1
 8000a8c:	f1b2 43e0 	subs.w	r3, r2, #1879048192	; 0x70000000
 8000a90:	bf24      	itt	cs
 8000a92:	f5b3 1c00 	subscs.w	ip, r3, #2097152	; 0x200000
 8000a96:	f1dc 5cfe 	rsbscs	ip, ip, #532676608	; 0x1fc00000
 8000a9a:	d90d      	bls.n	8000ab8 <__aeabi_d2f+0x30>
 8000a9c:	f001 4c00 	and.w	ip, r1, #2147483648	; 0x80000000
 8000aa0:	ea4f 02c0 	mov.w	r2, r0, lsl #3
 8000aa4:	ea4c 7050 	orr.w	r0, ip, r0, lsr #29
 8000aa8:	f1b2 4f00 	cmp.w	r2, #2147483648	; 0x80000000
 8000aac:	eb40 0083 	adc.w	r0, r0, r3, lsl #2
 8000ab0:	bf08      	it	eq
 8000ab2:	f020 0001 	biceq.w	r0, r0, #1
 8000ab6:	4770      	bx	lr
 8000ab8:	f011 4f80 	tst.w	r1, #1073741824	; 0x40000000
 8000abc:	d121      	bne.n	8000b02 <__aeabi_d2f+0x7a>
 8000abe:	f113 7238 	adds.w	r2, r3, #48234496	; 0x2e00000
 8000ac2:	bfbc      	itt	lt
 8000ac4:	f001 4000 	andlt.w	r0, r1, #2147483648	; 0x80000000
 8000ac8:	4770      	bxlt	lr
 8000aca:	f441 1180 	orr.w	r1, r1, #1048576	; 0x100000
 8000ace:	ea4f 5252 	mov.w	r2, r2, lsr #21
 8000ad2:	f1c2 0218 	rsb	r2, r2, #24
 8000ad6:	f1c2 0c20 	rsb	ip, r2, #32
 8000ada:	fa10 f30c 	lsls.w	r3, r0, ip
 8000ade:	fa20 f002 	lsr.w	r0, r0, r2
 8000ae2:	bf18      	it	ne
 8000ae4:	f040 0001 	orrne.w	r0, r0, #1
 8000ae8:	ea4f 23c1 	mov.w	r3, r1, lsl #11
 8000aec:	ea4f 23d3 	mov.w	r3, r3, lsr #11
 8000af0:	fa03 fc0c 	lsl.w	ip, r3, ip
 8000af4:	ea40 000c 	orr.w	r0, r0, ip
 8000af8:	fa23 f302 	lsr.w	r3, r3, r2
 8000afc:	ea4f 0343 	mov.w	r3, r3, lsl #1
 8000b00:	e7cc      	b.n	8000a9c <__aeabi_d2f+0x14>
 8000b02:	ea7f 5362 	mvns.w	r3, r2, asr #21
 8000b06:	d107      	bne.n	8000b18 <__aeabi_d2f+0x90>
 8000b08:	ea50 3301 	orrs.w	r3, r0, r1, lsl #12
 8000b0c:	bf1e      	ittt	ne
 8000b0e:	f04f 40fe 	movne.w	r0, #2130706432	; 0x7f000000
 8000b12:	f440 0040 	orrne.w	r0, r0, #12582912	; 0xc00000
 8000b16:	4770      	bxne	lr
 8000b18:	f001 4000 	and.w	r0, r1, #2147483648	; 0x80000000
 8000b1c:	f040 40fe 	orr.w	r0, r0, #2130706432	; 0x7f000000
 8000b20:	f440 0000 	orr.w	r0, r0, #8388608	; 0x800000
 8000b24:	4770      	bx	lr
 8000b26:	bf00      	nop

08000b28 <__aeabi_frsub>:
 8000b28:	f080 4000 	eor.w	r0, r0, #2147483648	; 0x80000000
 8000b2c:	e002      	b.n	8000b34 <__addsf3>
 8000b2e:	bf00      	nop

08000b30 <__aeabi_fsub>:
 8000b30:	f081 4100 	eor.w	r1, r1, #2147483648	; 0x80000000

08000b34 <__addsf3>:
 8000b34:	0042      	lsls	r2, r0, #1
 8000b36:	bf1f      	itttt	ne
 8000b38:	ea5f 0341 	movsne.w	r3, r1, lsl #1
 8000b3c:	ea92 0f03 	teqne	r2, r3
 8000b40:	ea7f 6c22 	mvnsne.w	ip, r2, asr #24
 8000b44:	ea7f 6c23 	mvnsne.w	ip, r3, asr #24
 8000b48:	d06a      	beq.n	8000c20 <__addsf3+0xec>
 8000b4a:	ea4f 6212 	mov.w	r2, r2, lsr #24
 8000b4e:	ebd2 6313 	rsbs	r3, r2, r3, lsr #24
 8000b52:	bfc1      	itttt	gt
 8000b54:	18d2      	addgt	r2, r2, r3
 8000b56:	4041      	eorgt	r1, r0
 8000b58:	4048      	eorgt	r0, r1
 8000b5a:	4041      	eorgt	r1, r0
 8000b5c:	bfb8      	it	lt
 8000b5e:	425b      	neglt	r3, r3
 8000b60:	2b19      	cmp	r3, #25
 8000b62:	bf88      	it	hi
 8000b64:	4770      	bxhi	lr
 8000b66:	f010 4f00 	tst.w	r0, #2147483648	; 0x80000000
 8000b6a:	f440 0000 	orr.w	r0, r0, #8388608	; 0x800000
 8000b6e:	f020 407f 	bic.w	r0, r0, #4278190080	; 0xff000000
 8000b72:	bf18      	it	ne
 8000b74:	4240      	negne	r0, r0
 8000b76:	f011 4f00 	tst.w	r1, #2147483648	; 0x80000000
 8000b7a:	f441 0100 	orr.w	r1, r1, #8388608	; 0x800000
 8000b7e:	f021 417f 	bic.w	r1, r1, #4278190080	; 0xff000000
 8000b82:	bf18      	it	ne
 8000b84:	4249      	negne	r1, r1
 8000b86:	ea92 0f03 	teq	r2, r3
 8000b8a:	d03f      	beq.n	8000c0c <__addsf3+0xd8>
 8000b8c:	f1a2 0201 	sub.w	r2, r2, #1
 8000b90:	fa41 fc03 	asr.w	ip, r1, r3
 8000b94:	eb10 000c 	adds.w	r0, r0, ip
 8000b98:	f1c3 0320 	rsb	r3, r3, #32
 8000b9c:	fa01 f103 	lsl.w	r1, r1, r3
 8000ba0:	f000 4300 	and.w	r3, r0, #2147483648	; 0x80000000
 8000ba4:	d502      	bpl.n	8000bac <__addsf3+0x78>
 8000ba6:	4249      	negs	r1, r1
 8000ba8:	eb60 0040 	sbc.w	r0, r0, r0, lsl #1
 8000bac:	f5b0 0f00 	cmp.w	r0, #8388608	; 0x800000
 8000bb0:	d313      	bcc.n	8000bda <__addsf3+0xa6>
 8000bb2:	f1b0 7f80 	cmp.w	r0, #16777216	; 0x1000000
 8000bb6:	d306      	bcc.n	8000bc6 <__addsf3+0x92>
 8000bb8:	0840      	lsrs	r0, r0, #1
 8000bba:	ea4f 0131 	mov.w	r1, r1, rrx
 8000bbe:	f102 0201 	add.w	r2, r2, #1
 8000bc2:	2afe      	cmp	r2, #254	; 0xfe
 8000bc4:	d251      	bcs.n	8000c6a <__addsf3+0x136>
 8000bc6:	f1b1 4f00 	cmp.w	r1, #2147483648	; 0x80000000
 8000bca:	eb40 50c2 	adc.w	r0, r0, r2, lsl #23
 8000bce:	bf08      	it	eq
 8000bd0:	f020 0001 	biceq.w	r0, r0, #1
 8000bd4:	ea40 0003 	orr.w	r0, r0, r3
 8000bd8:	4770      	bx	lr
 8000bda:	0049      	lsls	r1, r1, #1
 8000bdc:	eb40 0000 	adc.w	r0, r0, r0
 8000be0:	3a01      	subs	r2, #1
 8000be2:	bf28      	it	cs
 8000be4:	f5b0 0f00 	cmpcs.w	r0, #8388608	; 0x800000
 8000be8:	d2ed      	bcs.n	8000bc6 <__addsf3+0x92>
 8000bea:	fab0 fc80 	clz	ip, r0
 8000bee:	f1ac 0c08 	sub.w	ip, ip, #8
 8000bf2:	ebb2 020c 	subs.w	r2, r2, ip
 8000bf6:	fa00 f00c 	lsl.w	r0, r0, ip
 8000bfa:	bfaa      	itet	ge
 8000bfc:	eb00 50c2 	addge.w	r0, r0, r2, lsl #23
 8000c00:	4252      	neglt	r2, r2
 8000c02:	4318      	orrge	r0, r3
 8000c04:	bfbc      	itt	lt
 8000c06:	40d0      	lsrlt	r0, r2
 8000c08:	4318      	orrlt	r0, r3
 8000c0a:	4770      	bx	lr
 8000c0c:	f092 0f00 	teq	r2, #0
 8000c10:	f481 0100 	eor.w	r1, r1, #8388608	; 0x800000
 8000c14:	bf06      	itte	eq
 8000c16:	f480 0000 	eoreq.w	r0, r0, #8388608	; 0x800000
 8000c1a:	3201      	addeq	r2, #1
 8000c1c:	3b01      	subne	r3, #1
 8000c1e:	e7b5      	b.n	8000b8c <__addsf3+0x58>
 8000c20:	ea4f 0341 	mov.w	r3, r1, lsl #1
 8000c24:	ea7f 6c22 	mvns.w	ip, r2, asr #24
 8000c28:	bf18      	it	ne
 8000c2a:	ea7f 6c23 	mvnsne.w	ip, r3, asr #24
 8000c2e:	d021      	beq.n	8000c74 <__addsf3+0x140>
 8000c30:	ea92 0f03 	teq	r2, r3
 8000c34:	d004      	beq.n	8000c40 <__addsf3+0x10c>
 8000c36:	f092 0f00 	teq	r2, #0
 8000c3a:	bf08      	it	eq
 8000c3c:	4608      	moveq	r0, r1
 8000c3e:	4770      	bx	lr
 8000c40:	ea90 0f01 	teq	r0, r1
 8000c44:	bf1c      	itt	ne
 8000c46:	2000      	movne	r0, #0
 8000c48:	4770      	bxne	lr
 8000c4a:	f012 4f7f 	tst.w	r2, #4278190080	; 0xff000000
 8000c4e:	d104      	bne.n	8000c5a <__addsf3+0x126>
 8000c50:	0040      	lsls	r0, r0, #1
 8000c52:	bf28      	it	cs
 8000c54:	f040 4000 	orrcs.w	r0, r0, #2147483648	; 0x80000000
 8000c58:	4770      	bx	lr
 8000c5a:	f112 7200 	adds.w	r2, r2, #33554432	; 0x2000000
 8000c5e:	bf3c      	itt	cc
 8000c60:	f500 0000 	addcc.w	r0, r0, #8388608	; 0x800000
 8000c64:	4770      	bxcc	lr
 8000c66:	f000 4300 	and.w	r3, r0, #2147483648	; 0x80000000
 8000c6a:	f043 40fe 	orr.w	r0, r3, #2130706432	; 0x7f000000
 8000c6e:	f440 0000 	orr.w	r0, r0, #8388608	; 0x800000
 8000c72:	4770      	bx	lr
 8000c74:	ea7f 6222 	mvns.w	r2, r2, asr #24
 8000c78:	bf16      	itet	ne
 8000c7a:	4608      	movne	r0, r1
 8000c7c:	ea7f 6323 	mvnseq.w	r3, r3, asr #24
 8000c80:	4601      	movne	r1, r0
 8000c82:	0242      	lsls	r2, r0, #9
 8000c84:	bf06      	itte	eq
 8000c86:	ea5f 2341 	movseq.w	r3, r1, lsl #9
 8000c8a:	ea90 0f01 	teqeq	r0, r1
 8000c8e:	f440 0080 	orrne.w	r0, r0, #4194304	; 0x400000
 8000c92:	4770      	bx	lr

08000c94 <__aeabi_ui2f>:
 8000c94:	f04f 0300 	mov.w	r3, #0
 8000c98:	e004      	b.n	8000ca4 <__aeabi_i2f+0x8>
 8000c9a:	bf00      	nop

08000c9c <__aeabi_i2f>:
 8000c9c:	f010 4300 	ands.w	r3, r0, #2147483648	; 0x80000000
 8000ca0:	bf48      	it	mi
 8000ca2:	4240      	negmi	r0, r0
 8000ca4:	ea5f 0c00 	movs.w	ip, r0
 8000ca8:	bf08      	it	eq
 8000caa:	4770      	bxeq	lr
 8000cac:	f043 4396 	orr.w	r3, r3, #1258291200	; 0x4b000000
 8000cb0:	4601      	mov	r1, r0
 8000cb2:	f04f 0000 	mov.w	r0, #0
 8000cb6:	e01c      	b.n	8000cf2 <__aeabi_l2f+0x2a>

08000cb8 <__aeabi_ul2f>:
 8000cb8:	ea50 0201 	orrs.w	r2, r0, r1
 8000cbc:	bf08      	it	eq
 8000cbe:	4770      	bxeq	lr
 8000cc0:	f04f 0300 	mov.w	r3, #0
 8000cc4:	e00a      	b.n	8000cdc <__aeabi_l2f+0x14>
 8000cc6:	bf00      	nop

08000cc8 <__aeabi_l2f>:
 8000cc8:	ea50 0201 	orrs.w	r2, r0, r1
 8000ccc:	bf08      	it	eq
 8000cce:	4770      	bxeq	lr
 8000cd0:	f011 4300 	ands.w	r3, r1, #2147483648	; 0x80000000
 8000cd4:	d502      	bpl.n	8000cdc <__aeabi_l2f+0x14>
 8000cd6:	4240      	negs	r0, r0
 8000cd8:	eb61 0141 	sbc.w	r1, r1, r1, lsl #1
 8000cdc:	ea5f 0c01 	movs.w	ip, r1
 8000ce0:	bf02      	ittt	eq
 8000ce2:	4684      	moveq	ip, r0
 8000ce4:	4601      	moveq	r1, r0
 8000ce6:	2000      	moveq	r0, #0
 8000ce8:	f043 43b6 	orr.w	r3, r3, #1526726656	; 0x5b000000
 8000cec:	bf08      	it	eq
 8000cee:	f1a3 5380 	subeq.w	r3, r3, #268435456	; 0x10000000
 8000cf2:	f5a3 0300 	sub.w	r3, r3, #8388608	; 0x800000
 8000cf6:	fabc f28c 	clz	r2, ip
 8000cfa:	3a08      	subs	r2, #8
 8000cfc:	eba3 53c2 	sub.w	r3, r3, r2, lsl #23
 8000d00:	db10      	blt.n	8000d24 <__aeabi_l2f+0x5c>
 8000d02:	fa01 fc02 	lsl.w	ip, r1, r2
 8000d06:	4463      	add	r3, ip
 8000d08:	fa00 fc02 	lsl.w	ip, r0, r2
 8000d0c:	f1c2 0220 	rsb	r2, r2, #32
 8000d10:	f1bc 4f00 	cmp.w	ip, #2147483648	; 0x80000000
 8000d14:	fa20 f202 	lsr.w	r2, r0, r2
 8000d18:	eb43 0002 	adc.w	r0, r3, r2
 8000d1c:	bf08      	it	eq
 8000d1e:	f020 0001 	biceq.w	r0, r0, #1
 8000d22:	4770      	bx	lr
 8000d24:	f102 0220 	add.w	r2, r2, #32
 8000d28:	fa01 fc02 	lsl.w	ip, r1, r2
 8000d2c:	f1c2 0220 	rsb	r2, r2, #32
 8000d30:	ea50 004c 	orrs.w	r0, r0, ip, lsl #1
 8000d34:	fa21 f202 	lsr.w	r2, r1, r2
 8000d38:	eb43 0002 	adc.w	r0, r3, r2
 8000d3c:	bf08      	it	eq
 8000d3e:	ea20 70dc 	biceq.w	r0, r0, ip, lsr #31
 8000d42:	4770      	bx	lr

08000d44 <__aeabi_fmul>:
 8000d44:	f04f 0cff 	mov.w	ip, #255	; 0xff
 8000d48:	ea1c 52d0 	ands.w	r2, ip, r0, lsr #23
 8000d4c:	bf1e      	ittt	ne
 8000d4e:	ea1c 53d1 	andsne.w	r3, ip, r1, lsr #23
 8000d52:	ea92 0f0c 	teqne	r2, ip
 8000d56:	ea93 0f0c 	teqne	r3, ip
 8000d5a:	d06f      	beq.n	8000e3c <__aeabi_fmul+0xf8>
 8000d5c:	441a      	add	r2, r3
 8000d5e:	ea80 0c01 	eor.w	ip, r0, r1
 8000d62:	0240      	lsls	r0, r0, #9
 8000d64:	bf18      	it	ne
 8000d66:	ea5f 2141 	movsne.w	r1, r1, lsl #9
 8000d6a:	d01e      	beq.n	8000daa <__aeabi_fmul+0x66>
 8000d6c:	f04f 6300 	mov.w	r3, #134217728	; 0x8000000
 8000d70:	ea43 1050 	orr.w	r0, r3, r0, lsr #5
 8000d74:	ea43 1151 	orr.w	r1, r3, r1, lsr #5
 8000d78:	fba0 3101 	umull	r3, r1, r0, r1
 8000d7c:	f00c 4000 	and.w	r0, ip, #2147483648	; 0x80000000
 8000d80:	f5b1 0f00 	cmp.w	r1, #8388608	; 0x800000
 8000d84:	bf3e      	ittt	cc
 8000d86:	0049      	lslcc	r1, r1, #1
 8000d88:	ea41 71d3 	orrcc.w	r1, r1, r3, lsr #31
 8000d8c:	005b      	lslcc	r3, r3, #1
 8000d8e:	ea40 0001 	orr.w	r0, r0, r1
 8000d92:	f162 027f 	sbc.w	r2, r2, #127	; 0x7f
 8000d96:	2afd      	cmp	r2, #253	; 0xfd
 8000d98:	d81d      	bhi.n	8000dd6 <__aeabi_fmul+0x92>
 8000d9a:	f1b3 4f00 	cmp.w	r3, #2147483648	; 0x80000000
 8000d9e:	eb40 50c2 	adc.w	r0, r0, r2, lsl #23
 8000da2:	bf08      	it	eq
 8000da4:	f020 0001 	biceq.w	r0, r0, #1
 8000da8:	4770      	bx	lr
 8000daa:	f090 0f00 	teq	r0, #0
 8000dae:	f00c 4c00 	and.w	ip, ip, #2147483648	; 0x80000000
 8000db2:	bf08      	it	eq
 8000db4:	0249      	lsleq	r1, r1, #9
 8000db6:	ea4c 2050 	orr.w	r0, ip, r0, lsr #9
 8000dba:	ea40 2051 	orr.w	r0, r0, r1, lsr #9
 8000dbe:	3a7f      	subs	r2, #127	; 0x7f
 8000dc0:	bfc2      	ittt	gt
 8000dc2:	f1d2 03ff 	rsbsgt	r3, r2, #255	; 0xff
 8000dc6:	ea40 50c2 	orrgt.w	r0, r0, r2, lsl #23
 8000dca:	4770      	bxgt	lr
 8000dcc:	f440 0000 	orr.w	r0, r0, #8388608	; 0x800000
 8000dd0:	f04f 0300 	mov.w	r3, #0
 8000dd4:	3a01      	subs	r2, #1
 8000dd6:	dc5d      	bgt.n	8000e94 <__aeabi_fmul+0x150>
 8000dd8:	f112 0f19 	cmn.w	r2, #25
 8000ddc:	bfdc      	itt	le
 8000dde:	f000 4000 	andle.w	r0, r0, #2147483648	; 0x80000000
 8000de2:	4770      	bxle	lr
 8000de4:	f1c2 0200 	rsb	r2, r2, #0
 8000de8:	0041      	lsls	r1, r0, #1
 8000dea:	fa21 f102 	lsr.w	r1, r1, r2
 8000dee:	f1c2 0220 	rsb	r2, r2, #32
 8000df2:	fa00 fc02 	lsl.w	ip, r0, r2
 8000df6:	ea5f 0031 	movs.w	r0, r1, rrx
 8000dfa:	f140 0000 	adc.w	r0, r0, #0
 8000dfe:	ea53 034c 	orrs.w	r3, r3, ip, lsl #1
 8000e02:	bf08      	it	eq
 8000e04:	ea20 70dc 	biceq.w	r0, r0, ip, lsr #31
 8000e08:	4770      	bx	lr
 8000e0a:	f092 0f00 	teq	r2, #0
 8000e0e:	f000 4c00 	and.w	ip, r0, #2147483648	; 0x80000000
 8000e12:	bf02      	ittt	eq
 8000e14:	0040      	lsleq	r0, r0, #1
 8000e16:	f410 0f00 	tsteq.w	r0, #8388608	; 0x800000
 8000e1a:	3a01      	subeq	r2, #1
 8000e1c:	d0f9      	beq.n	8000e12 <__aeabi_fmul+0xce>
 8000e1e:	ea40 000c 	orr.w	r0, r0, ip
 8000e22:	f093 0f00 	teq	r3, #0
 8000e26:	f001 4c00 	and.w	ip, r1, #2147483648	; 0x80000000
 8000e2a:	bf02      	ittt	eq
 8000e2c:	0049      	lsleq	r1, r1, #1
 8000e2e:	f411 0f00 	tsteq.w	r1, #8388608	; 0x800000
 8000e32:	3b01      	subeq	r3, #1
 8000e34:	d0f9      	beq.n	8000e2a <__aeabi_fmul+0xe6>
 8000e36:	ea41 010c 	orr.w	r1, r1, ip
 8000e3a:	e78f      	b.n	8000d5c <__aeabi_fmul+0x18>
 8000e3c:	ea0c 53d1 	and.w	r3, ip, r1, lsr #23
 8000e40:	ea92 0f0c 	teq	r2, ip
 8000e44:	bf18      	it	ne
 8000e46:	ea93 0f0c 	teqne	r3, ip
 8000e4a:	d00a      	beq.n	8000e62 <__aeabi_fmul+0x11e>
 8000e4c:	f030 4c00 	bics.w	ip, r0, #2147483648	; 0x80000000
 8000e50:	bf18      	it	ne
 8000e52:	f031 4c00 	bicsne.w	ip, r1, #2147483648	; 0x80000000
 8000e56:	d1d8      	bne.n	8000e0a <__aeabi_fmul+0xc6>
 8000e58:	ea80 0001 	eor.w	r0, r0, r1
 8000e5c:	f000 4000 	and.w	r0, r0, #2147483648	; 0x80000000
 8000e60:	4770      	bx	lr
 8000e62:	f090 0f00 	teq	r0, #0
 8000e66:	bf17      	itett	ne
 8000e68:	f090 4f00 	teqne	r0, #2147483648	; 0x80000000
 8000e6c:	4608      	moveq	r0, r1
 8000e6e:	f091 0f00 	teqne	r1, #0
 8000e72:	f091 4f00 	teqne	r1, #2147483648	; 0x80000000
 8000e76:	d014      	beq.n	8000ea2 <__aeabi_fmul+0x15e>
 8000e78:	ea92 0f0c 	teq	r2, ip
 8000e7c:	d101      	bne.n	8000e82 <__aeabi_fmul+0x13e>
 8000e7e:	0242      	lsls	r2, r0, #9
 8000e80:	d10f      	bne.n	8000ea2 <__aeabi_fmul+0x15e>
 8000e82:	ea93 0f0c 	teq	r3, ip
 8000e86:	d103      	bne.n	8000e90 <__aeabi_fmul+0x14c>
 8000e88:	024b      	lsls	r3, r1, #9
 8000e8a:	bf18      	it	ne
 8000e8c:	4608      	movne	r0, r1
 8000e8e:	d108      	bne.n	8000ea2 <__aeabi_fmul+0x15e>
 8000e90:	ea80 0001 	eor.w	r0, r0, r1
 8000e94:	f000 4000 	and.w	r0, r0, #2147483648	; 0x80000000
 8000e98:	f040 40fe 	orr.w	r0, r0, #2130706432	; 0x7f000000
 8000e9c:	f440 0000 	orr.w	r0, r0, #8388608	; 0x800000
 8000ea0:	4770      	bx	lr
 8000ea2:	f040 40fe 	orr.w	r0, r0, #2130706432	; 0x7f000000
 8000ea6:	f440 0040 	orr.w	r0, r0, #12582912	; 0xc00000
 8000eaa:	4770      	bx	lr

08000eac <__aeabi_fdiv>:
 8000eac:	f04f 0cff 	mov.w	ip, #255	; 0xff
 8000eb0:	ea1c 52d0 	ands.w	r2, ip, r0, lsr #23
 8000eb4:	bf1e      	ittt	ne
 8000eb6:	ea1c 53d1 	andsne.w	r3, ip, r1, lsr #23
 8000eba:	ea92 0f0c 	teqne	r2, ip
 8000ebe:	ea93 0f0c 	teqne	r3, ip
 8000ec2:	d069      	beq.n	8000f98 <__aeabi_fdiv+0xec>
 8000ec4:	eba2 0203 	sub.w	r2, r2, r3
 8000ec8:	ea80 0c01 	eor.w	ip, r0, r1
 8000ecc:	0249      	lsls	r1, r1, #9
 8000ece:	ea4f 2040 	mov.w	r0, r0, lsl #9
 8000ed2:	d037      	beq.n	8000f44 <__aeabi_fdiv+0x98>
 8000ed4:	f04f 5380 	mov.w	r3, #268435456	; 0x10000000
 8000ed8:	ea43 1111 	orr.w	r1, r3, r1, lsr #4
 8000edc:	ea43 1310 	orr.w	r3, r3, r0, lsr #4
 8000ee0:	f00c 4000 	and.w	r0, ip, #2147483648	; 0x80000000
 8000ee4:	428b      	cmp	r3, r1
 8000ee6:	bf38      	it	cc
 8000ee8:	005b      	lslcc	r3, r3, #1
 8000eea:	f142 027d 	adc.w	r2, r2, #125	; 0x7d
 8000eee:	f44f 0c00 	mov.w	ip, #8388608	; 0x800000
 8000ef2:	428b      	cmp	r3, r1
 8000ef4:	bf24      	itt	cs
 8000ef6:	1a5b      	subcs	r3, r3, r1
 8000ef8:	ea40 000c 	orrcs.w	r0, r0, ip
 8000efc:	ebb3 0f51 	cmp.w	r3, r1, lsr #1
 8000f00:	bf24      	itt	cs
 8000f02:	eba3 0351 	subcs.w	r3, r3, r1, lsr #1
 8000f06:	ea40 005c 	orrcs.w	r0, r0, ip, lsr #1
 8000f0a:	ebb3 0f91 	cmp.w	r3, r1, lsr #2
 8000f0e:	bf24      	itt	cs
 8000f10:	eba3 0391 	subcs.w	r3, r3, r1, lsr #2
 8000f14:	ea40 009c 	orrcs.w	r0, r0, ip, lsr #2
 8000f18:	ebb3 0fd1 	cmp.w	r3, r1, lsr #3
 8000f1c:	bf24      	itt	cs
 8000f1e:	eba3 03d1 	subcs.w	r3, r3, r1, lsr #3
 8000f22:	ea40 00dc 	orrcs.w	r0, r0, ip, lsr #3
 8000f26:	011b      	lsls	r3, r3, #4
 8000f28:	bf18      	it	ne
 8000f2a:	ea5f 1c1c 	movsne.w	ip, ip, lsr #4
 8000f2e:	d1e0      	bne.n	8000ef2 <__aeabi_fdiv+0x46>
 8000f30:	2afd      	cmp	r2, #253	; 0xfd
 8000f32:	f63f af50 	bhi.w	8000dd6 <__aeabi_fmul+0x92>
 8000f36:	428b      	cmp	r3, r1
 8000f38:	eb40 50c2 	adc.w	r0, r0, r2, lsl #23
 8000f3c:	bf08      	it	eq
 8000f3e:	f020 0001 	biceq.w	r0, r0, #1
 8000f42:	4770      	bx	lr
 8000f44:	f00c 4c00 	and.w	ip, ip, #2147483648	; 0x80000000
 8000f48:	ea4c 2050 	orr.w	r0, ip, r0, lsr #9
 8000f4c:	327f      	adds	r2, #127	; 0x7f
 8000f4e:	bfc2      	ittt	gt
 8000f50:	f1d2 03ff 	rsbsgt	r3, r2, #255	; 0xff
 8000f54:	ea40 50c2 	orrgt.w	r0, r0, r2, lsl #23
 8000f58:	4770      	bxgt	lr
 8000f5a:	f440 0000 	orr.w	r0, r0, #8388608	; 0x800000
 8000f5e:	f04f 0300 	mov.w	r3, #0
 8000f62:	3a01      	subs	r2, #1
 8000f64:	e737      	b.n	8000dd6 <__aeabi_fmul+0x92>
 8000f66:	f092 0f00 	teq	r2, #0
 8000f6a:	f000 4c00 	and.w	ip, r0, #2147483648	; 0x80000000
 8000f6e:	bf02      	ittt	eq
 8000f70:	0040      	lsleq	r0, r0, #1
 8000f72:	f410 0f00 	tsteq.w	r0, #8388608	; 0x800000
 8000f76:	3a01      	subeq	r2, #1
 8000f78:	d0f9      	beq.n	8000f6e <__aeabi_fdiv+0xc2>
 8000f7a:	ea40 000c 	orr.w	r0, r0, ip
 8000f7e:	f093 0f00 	teq	r3, #0
 8000f82:	f001 4c00 	and.w	ip, r1, #2147483648	; 0x80000000
 8000f86:	bf02      	ittt	eq
 8000f88:	0049      	lsleq	r1, r1, #1
 8000f8a:	f411 0f00 	tsteq.w	r1, #8388608	; 0x800000
 8000f8e:	3b01      	subeq	r3, #1
 8000f90:	d0f9      	beq.n	8000f86 <__aeabi_fdiv+0xda>
 8000f92:	ea41 010c 	orr.w	r1, r1, ip
 8000f96:	e795      	b.n	8000ec4 <__aeabi_fdiv+0x18>
 8000f98:	ea0c 53d1 	and.w	r3, ip, r1, lsr #23
 8000f9c:	ea92 0f0c 	teq	r2, ip
 8000fa0:	d108      	bne.n	8000fb4 <__aeabi_fdiv+0x108>
 8000fa2:	0242      	lsls	r2, r0, #9
 8000fa4:	f47f af7d 	bne.w	8000ea2 <__aeabi_fmul+0x15e>
 8000fa8:	ea93 0f0c 	teq	r3, ip
 8000fac:	f47f af70 	bne.w	8000e90 <__aeabi_fmul+0x14c>
 8000fb0:	4608      	mov	r0, r1
 8000fb2:	e776      	b.n	8000ea2 <__aeabi_fmul+0x15e>
 8000fb4:	ea93 0f0c 	teq	r3, ip
 8000fb8:	d104      	bne.n	8000fc4 <__aeabi_fdiv+0x118>
 8000fba:	024b      	lsls	r3, r1, #9
 8000fbc:	f43f af4c 	beq.w	8000e58 <__aeabi_fmul+0x114>
 8000fc0:	4608      	mov	r0, r1
 8000fc2:	e76e      	b.n	8000ea2 <__aeabi_fmul+0x15e>
 8000fc4:	f030 4c00 	bics.w	ip, r0, #2147483648	; 0x80000000
 8000fc8:	bf18      	it	ne
 8000fca:	f031 4c00 	bicsne.w	ip, r1, #2147483648	; 0x80000000
 8000fce:	d1ca      	bne.n	8000f66 <__aeabi_fdiv+0xba>
 8000fd0:	f030 4200 	bics.w	r2, r0, #2147483648	; 0x80000000
 8000fd4:	f47f af5c 	bne.w	8000e90 <__aeabi_fmul+0x14c>
 8000fd8:	f031 4300 	bics.w	r3, r1, #2147483648	; 0x80000000
 8000fdc:	f47f af3c 	bne.w	8000e58 <__aeabi_fmul+0x114>
 8000fe0:	e75f      	b.n	8000ea2 <__aeabi_fmul+0x15e>
 8000fe2:	bf00      	nop

08000fe4 <__gesf2>:
 8000fe4:	f04f 3cff 	mov.w	ip, #4294967295
 8000fe8:	e006      	b.n	8000ff8 <__cmpsf2+0x4>
 8000fea:	bf00      	nop

08000fec <__lesf2>:
 8000fec:	f04f 0c01 	mov.w	ip, #1
 8000ff0:	e002      	b.n	8000ff8 <__cmpsf2+0x4>
 8000ff2:	bf00      	nop

08000ff4 <__cmpsf2>:
 8000ff4:	f04f 0c01 	mov.w	ip, #1
 8000ff8:	f84d cd04 	str.w	ip, [sp, #-4]!
 8000ffc:	ea4f 0240 	mov.w	r2, r0, lsl #1
 8001000:	ea4f 0341 	mov.w	r3, r1, lsl #1
 8001004:	ea7f 6c22 	mvns.w	ip, r2, asr #24
 8001008:	bf18      	it	ne
 800100a:	ea7f 6c23 	mvnsne.w	ip, r3, asr #24
 800100e:	d011      	beq.n	8001034 <__cmpsf2+0x40>
 8001010:	b001      	add	sp, #4
 8001012:	ea52 0c53 	orrs.w	ip, r2, r3, lsr #1
 8001016:	bf18      	it	ne
 8001018:	ea90 0f01 	teqne	r0, r1
 800101c:	bf58      	it	pl
 800101e:	ebb2 0003 	subspl.w	r0, r2, r3
 8001022:	bf88      	it	hi
 8001024:	17c8      	asrhi	r0, r1, #31
 8001026:	bf38      	it	cc
 8001028:	ea6f 70e1 	mvncc.w	r0, r1, asr #31
 800102c:	bf18      	it	ne
 800102e:	f040 0001 	orrne.w	r0, r0, #1
 8001032:	4770      	bx	lr
 8001034:	ea7f 6c22 	mvns.w	ip, r2, asr #24
 8001038:	d102      	bne.n	8001040 <__cmpsf2+0x4c>
 800103a:	ea5f 2c40 	movs.w	ip, r0, lsl #9
 800103e:	d105      	bne.n	800104c <__cmpsf2+0x58>
 8001040:	ea7f 6c23 	mvns.w	ip, r3, asr #24
 8001044:	d1e4      	bne.n	8001010 <__cmpsf2+0x1c>
 8001046:	ea5f 2c41 	movs.w	ip, r1, lsl #9
 800104a:	d0e1      	beq.n	8001010 <__cmpsf2+0x1c>
 800104c:	f85d 0b04 	ldr.w	r0, [sp], #4
 8001050:	4770      	bx	lr
 8001052:	bf00      	nop

08001054 <__aeabi_cfrcmple>:
 8001054:	4684      	mov	ip, r0
 8001056:	4608      	mov	r0, r1
 8001058:	4661      	mov	r1, ip
 800105a:	e7ff      	b.n	800105c <__aeabi_cfcmpeq>

0800105c <__aeabi_cfcmpeq>:
 800105c:	b50f      	push	{r0, r1, r2, r3, lr}
 800105e:	f7ff ffc9 	bl	8000ff4 <__cmpsf2>
 8001062:	2800      	cmp	r0, #0
 8001064:	bf48      	it	mi
 8001066:	f110 0f00 	cmnmi.w	r0, #0
 800106a:	bd0f      	pop	{r0, r1, r2, r3, pc}

0800106c <__aeabi_fcmpeq>:
 800106c:	f84d ed08 	str.w	lr, [sp, #-8]!
 8001070:	f7ff fff4 	bl	800105c <__aeabi_cfcmpeq>
 8001074:	bf0c      	ite	eq
 8001076:	2001      	moveq	r0, #1
 8001078:	2000      	movne	r0, #0
 800107a:	f85d fb08 	ldr.w	pc, [sp], #8
 800107e:	bf00      	nop

08001080 <__aeabi_fcmplt>:
 8001080:	f84d ed08 	str.w	lr, [sp, #-8]!
 8001084:	f7ff ffea 	bl	800105c <__aeabi_cfcmpeq>
 8001088:	bf34      	ite	cc
 800108a:	2001      	movcc	r0, #1
 800108c:	2000      	movcs	r0, #0
 800108e:	f85d fb08 	ldr.w	pc, [sp], #8
 8001092:	bf00      	nop

08001094 <__aeabi_fcmple>:
 8001094:	f84d ed08 	str.w	lr, [sp, #-8]!
 8001098:	f7ff ffe0 	bl	800105c <__aeabi_cfcmpeq>
 800109c:	bf94      	ite	ls
 800109e:	2001      	movls	r0, #1
 80010a0:	2000      	movhi	r0, #0
 80010a2:	f85d fb08 	ldr.w	pc, [sp], #8
 80010a6:	bf00      	nop

080010a8 <__aeabi_fcmpge>:
 80010a8:	f84d ed08 	str.w	lr, [sp, #-8]!
 80010ac:	f7ff ffd2 	bl	8001054 <__aeabi_cfrcmple>
 80010b0:	bf94      	ite	ls
 80010b2:	2001      	movls	r0, #1
 80010b4:	2000      	movhi	r0, #0
 80010b6:	f85d fb08 	ldr.w	pc, [sp], #8
 80010ba:	bf00      	nop

080010bc <__aeabi_fcmpgt>:
 80010bc:	f84d ed08 	str.w	lr, [sp, #-8]!
 80010c0:	f7ff ffc8 	bl	8001054 <__aeabi_cfrcmple>
 80010c4:	bf34      	ite	cc
 80010c6:	2001      	movcc	r0, #1
 80010c8:	2000      	movcs	r0, #0
 80010ca:	f85d fb08 	ldr.w	pc, [sp], #8
 80010ce:	bf00      	nop

080010d0 <__aeabi_f2iz>:
 80010d0:	ea4f 0240 	mov.w	r2, r0, lsl #1
 80010d4:	f1b2 4ffe 	cmp.w	r2, #2130706432	; 0x7f000000
 80010d8:	d30f      	bcc.n	80010fa <__aeabi_f2iz+0x2a>
 80010da:	f04f 039e 	mov.w	r3, #158	; 0x9e
 80010de:	ebb3 6212 	subs.w	r2, r3, r2, lsr #24
 80010e2:	d90d      	bls.n	8001100 <__aeabi_f2iz+0x30>
 80010e4:	ea4f 2300 	mov.w	r3, r0, lsl #8
 80010e8:	f043 4300 	orr.w	r3, r3, #2147483648	; 0x80000000
 80010ec:	f010 4f00 	tst.w	r0, #2147483648	; 0x80000000
 80010f0:	fa23 f002 	lsr.w	r0, r3, r2
 80010f4:	bf18      	it	ne
 80010f6:	4240      	negne	r0, r0
 80010f8:	4770      	bx	lr
 80010fa:	f04f 0000 	mov.w	r0, #0
 80010fe:	4770      	bx	lr
 8001100:	f112 0f61 	cmn.w	r2, #97	; 0x61
 8001104:	d101      	bne.n	800110a <__aeabi_f2iz+0x3a>
 8001106:	0242      	lsls	r2, r0, #9
 8001108:	d105      	bne.n	8001116 <__aeabi_f2iz+0x46>
 800110a:	f010 4000 	ands.w	r0, r0, #2147483648	; 0x80000000
 800110e:	bf08      	it	eq
 8001110:	f06f 4000 	mvneq.w	r0, #2147483648	; 0x80000000
 8001114:	4770      	bx	lr
 8001116:	f04f 0000 	mov.w	r0, #0
 800111a:	4770      	bx	lr

0800111c <HAL_TIM_IC_CaptureCallback>:
 800111c:	b570      	push	{r4, r5, r6, lr}
 800111e:	7f06      	ldrb	r6, [r0, #28]
 8001120:	4604      	mov	r4, r0
 8001122:	2e01      	cmp	r6, #1
 8001124:	d111      	bne.n	800114a <HAL_TIM_IC_CaptureCallback+0x2e>
 8001126:	4d6b      	ldr	r5, [pc, #428]	; (80012d4 <HAL_TIM_IC_CaptureCallback+0x1b8>)
 8001128:	7829      	ldrb	r1, [r5, #0]
 800112a:	2900      	cmp	r1, #0
 800112c:	d156      	bne.n	80011dc <HAL_TIM_IC_CaptureCallback+0xc0>
 800112e:	f002 fba2 	bl	8003876 <HAL_TIM_ReadCapturedValue>
 8001132:	4b69      	ldr	r3, [pc, #420]	; (80012d8 <HAL_TIM_IC_CaptureCallback+0x1bc>)
 8001134:	702e      	strb	r6, [r5, #0]
 8001136:	6018      	str	r0, [r3, #0]
 8001138:	6823      	ldr	r3, [r4, #0]
 800113a:	6a1a      	ldr	r2, [r3, #32]
 800113c:	f022 020a 	bic.w	r2, r2, #10
 8001140:	621a      	str	r2, [r3, #32]
 8001142:	6a1a      	ldr	r2, [r3, #32]
 8001144:	f042 0202 	orr.w	r2, r2, #2
 8001148:	621a      	str	r2, [r3, #32]
 800114a:	7f23      	ldrb	r3, [r4, #28]
 800114c:	2b02      	cmp	r3, #2
 800114e:	d114      	bne.n	800117a <HAL_TIM_IC_CaptureCallback+0x5e>
 8001150:	4d62      	ldr	r5, [pc, #392]	; (80012dc <HAL_TIM_IC_CaptureCallback+0x1c0>)
 8001152:	782b      	ldrb	r3, [r5, #0]
 8001154:	2b00      	cmp	r3, #0
 8001156:	d15f      	bne.n	8001218 <HAL_TIM_IC_CaptureCallback+0xfc>
 8001158:	2104      	movs	r1, #4
 800115a:	4620      	mov	r0, r4
 800115c:	f002 fb8b 	bl	8003876 <HAL_TIM_ReadCapturedValue>
 8001160:	4b5f      	ldr	r3, [pc, #380]	; (80012e0 <HAL_TIM_IC_CaptureCallback+0x1c4>)
 8001162:	6018      	str	r0, [r3, #0]
 8001164:	2301      	movs	r3, #1
 8001166:	702b      	strb	r3, [r5, #0]
 8001168:	6823      	ldr	r3, [r4, #0]
 800116a:	6a1a      	ldr	r2, [r3, #32]
 800116c:	f022 02a0 	bic.w	r2, r2, #160	; 0xa0
 8001170:	621a      	str	r2, [r3, #32]
 8001172:	6a1a      	ldr	r2, [r3, #32]
 8001174:	f042 0220 	orr.w	r2, r2, #32
 8001178:	621a      	str	r2, [r3, #32]
 800117a:	7f23      	ldrb	r3, [r4, #28]
 800117c:	2b04      	cmp	r3, #4
 800117e:	d114      	bne.n	80011aa <HAL_TIM_IC_CaptureCallback+0x8e>
 8001180:	4d58      	ldr	r5, [pc, #352]	; (80012e4 <HAL_TIM_IC_CaptureCallback+0x1c8>)
 8001182:	782b      	ldrb	r3, [r5, #0]
 8001184:	2b00      	cmp	r3, #0
 8001186:	d166      	bne.n	8001256 <HAL_TIM_IC_CaptureCallback+0x13a>
 8001188:	2108      	movs	r1, #8
 800118a:	4620      	mov	r0, r4
 800118c:	f002 fb73 	bl	8003876 <HAL_TIM_ReadCapturedValue>
 8001190:	4b55      	ldr	r3, [pc, #340]	; (80012e8 <HAL_TIM_IC_CaptureCallback+0x1cc>)
 8001192:	6018      	str	r0, [r3, #0]
 8001194:	2301      	movs	r3, #1
 8001196:	702b      	strb	r3, [r5, #0]
 8001198:	6823      	ldr	r3, [r4, #0]
 800119a:	6a1a      	ldr	r2, [r3, #32]
 800119c:	f422 7200 	bic.w	r2, r2, #512	; 0x200
 80011a0:	621a      	str	r2, [r3, #32]
 80011a2:	6a1a      	ldr	r2, [r3, #32]
 80011a4:	f442 7200 	orr.w	r2, r2, #512	; 0x200
 80011a8:	621a      	str	r2, [r3, #32]
 80011aa:	7f23      	ldrb	r3, [r4, #28]
 80011ac:	2b08      	cmp	r3, #8
 80011ae:	d114      	bne.n	80011da <HAL_TIM_IC_CaptureCallback+0xbe>
 80011b0:	4d4e      	ldr	r5, [pc, #312]	; (80012ec <HAL_TIM_IC_CaptureCallback+0x1d0>)
 80011b2:	782b      	ldrb	r3, [r5, #0]
 80011b4:	2b00      	cmp	r3, #0
 80011b6:	d16d      	bne.n	8001294 <HAL_TIM_IC_CaptureCallback+0x178>
 80011b8:	210c      	movs	r1, #12
 80011ba:	4620      	mov	r0, r4
 80011bc:	f002 fb5b 	bl	8003876 <HAL_TIM_ReadCapturedValue>
 80011c0:	4b4b      	ldr	r3, [pc, #300]	; (80012f0 <HAL_TIM_IC_CaptureCallback+0x1d4>)
 80011c2:	6018      	str	r0, [r3, #0]
 80011c4:	2301      	movs	r3, #1
 80011c6:	702b      	strb	r3, [r5, #0]
 80011c8:	6823      	ldr	r3, [r4, #0]
 80011ca:	6a1a      	ldr	r2, [r3, #32]
 80011cc:	f422 5200 	bic.w	r2, r2, #8192	; 0x2000
 80011d0:	621a      	str	r2, [r3, #32]
 80011d2:	6a1a      	ldr	r2, [r3, #32]
 80011d4:	f442 5200 	orr.w	r2, r2, #8192	; 0x2000
 80011d8:	621a      	str	r2, [r3, #32]
 80011da:	bd70      	pop	{r4, r5, r6, pc}
 80011dc:	2901      	cmp	r1, #1
 80011de:	d1e4      	bne.n	80011aa <HAL_TIM_IC_CaptureCallback+0x8e>
 80011e0:	2100      	movs	r1, #0
 80011e2:	f002 fb48 	bl	8003876 <HAL_TIM_ReadCapturedValue>
 80011e6:	4b43      	ldr	r3, [pc, #268]	; (80012f4 <HAL_TIM_IC_CaptureCallback+0x1d8>)
 80011e8:	6018      	str	r0, [r3, #0]
 80011ea:	4b3b      	ldr	r3, [pc, #236]	; (80012d8 <HAL_TIM_IC_CaptureCallback+0x1bc>)
 80011ec:	681b      	ldr	r3, [r3, #0]
 80011ee:	4298      	cmp	r0, r3
 80011f0:	d90c      	bls.n	800120c <HAL_TIM_IC_CaptureCallback+0xf0>
 80011f2:	1ac3      	subs	r3, r0, r3
 80011f4:	4a40      	ldr	r2, [pc, #256]	; (80012f8 <HAL_TIM_IC_CaptureCallback+0x1dc>)
 80011f6:	6013      	str	r3, [r2, #0]
 80011f8:	6823      	ldr	r3, [r4, #0]
 80011fa:	6a1a      	ldr	r2, [r3, #32]
 80011fc:	f022 020a 	bic.w	r2, r2, #10
 8001200:	621a      	str	r2, [r3, #32]
 8001202:	6a1a      	ldr	r2, [r3, #32]
 8001204:	621a      	str	r2, [r3, #32]
 8001206:	2300      	movs	r3, #0
 8001208:	702b      	strb	r3, [r5, #0]
 800120a:	e79e      	b.n	800114a <HAL_TIM_IC_CaptureCallback+0x2e>
 800120c:	d2f4      	bcs.n	80011f8 <HAL_TIM_IC_CaptureCallback+0xdc>
 800120e:	f5c3 437f 	rsb	r3, r3, #65280	; 0xff00
 8001212:	33ff      	adds	r3, #255	; 0xff
 8001214:	4403      	add	r3, r0
 8001216:	e7ed      	b.n	80011f4 <HAL_TIM_IC_CaptureCallback+0xd8>
 8001218:	2b01      	cmp	r3, #1
 800121a:	d1de      	bne.n	80011da <HAL_TIM_IC_CaptureCallback+0xbe>
 800121c:	2104      	movs	r1, #4
 800121e:	4620      	mov	r0, r4
 8001220:	f002 fb29 	bl	8003876 <HAL_TIM_ReadCapturedValue>
 8001224:	4b35      	ldr	r3, [pc, #212]	; (80012fc <HAL_TIM_IC_CaptureCallback+0x1e0>)
 8001226:	6018      	str	r0, [r3, #0]
 8001228:	4b2d      	ldr	r3, [pc, #180]	; (80012e0 <HAL_TIM_IC_CaptureCallback+0x1c4>)
 800122a:	681b      	ldr	r3, [r3, #0]
 800122c:	4298      	cmp	r0, r3
 800122e:	d90c      	bls.n	800124a <HAL_TIM_IC_CaptureCallback+0x12e>
 8001230:	1ac3      	subs	r3, r0, r3
 8001232:	4a33      	ldr	r2, [pc, #204]	; (8001300 <HAL_TIM_IC_CaptureCallback+0x1e4>)
 8001234:	6013      	str	r3, [r2, #0]
 8001236:	6823      	ldr	r3, [r4, #0]
 8001238:	6a1a      	ldr	r2, [r3, #32]
 800123a:	f022 02a0 	bic.w	r2, r2, #160	; 0xa0
 800123e:	621a      	str	r2, [r3, #32]
 8001240:	6a1a      	ldr	r2, [r3, #32]
 8001242:	621a      	str	r2, [r3, #32]
 8001244:	2300      	movs	r3, #0
 8001246:	702b      	strb	r3, [r5, #0]
 8001248:	e797      	b.n	800117a <HAL_TIM_IC_CaptureCallback+0x5e>
 800124a:	d2f4      	bcs.n	8001236 <HAL_TIM_IC_CaptureCallback+0x11a>
 800124c:	f5c3 437f 	rsb	r3, r3, #65280	; 0xff00
 8001250:	33ff      	adds	r3, #255	; 0xff
 8001252:	4403      	add	r3, r0
 8001254:	e7ed      	b.n	8001232 <HAL_TIM_IC_CaptureCallback+0x116>
 8001256:	2b01      	cmp	r3, #1
 8001258:	d1bf      	bne.n	80011da <HAL_TIM_IC_CaptureCallback+0xbe>
 800125a:	2108      	movs	r1, #8
 800125c:	4620      	mov	r0, r4
 800125e:	f002 fb0a 	bl	8003876 <HAL_TIM_ReadCapturedValue>
 8001262:	4b28      	ldr	r3, [pc, #160]	; (8001304 <HAL_TIM_IC_CaptureCallback+0x1e8>)
 8001264:	6018      	str	r0, [r3, #0]
 8001266:	4b20      	ldr	r3, [pc, #128]	; (80012e8 <HAL_TIM_IC_CaptureCallback+0x1cc>)
 8001268:	681b      	ldr	r3, [r3, #0]
 800126a:	4298      	cmp	r0, r3
 800126c:	d90c      	bls.n	8001288 <HAL_TIM_IC_CaptureCallback+0x16c>
 800126e:	1ac3      	subs	r3, r0, r3
 8001270:	4a25      	ldr	r2, [pc, #148]	; (8001308 <HAL_TIM_IC_CaptureCallback+0x1ec>)
 8001272:	6013      	str	r3, [r2, #0]
 8001274:	6823      	ldr	r3, [r4, #0]
 8001276:	6a1a      	ldr	r2, [r3, #32]
 8001278:	f422 7200 	bic.w	r2, r2, #512	; 0x200
 800127c:	621a      	str	r2, [r3, #32]
 800127e:	6a1a      	ldr	r2, [r3, #32]
 8001280:	621a      	str	r2, [r3, #32]
 8001282:	2300      	movs	r3, #0
 8001284:	702b      	strb	r3, [r5, #0]
 8001286:	e790      	b.n	80011aa <HAL_TIM_IC_CaptureCallback+0x8e>
 8001288:	d2f4      	bcs.n	8001274 <HAL_TIM_IC_CaptureCallback+0x158>
 800128a:	f5c3 437f 	rsb	r3, r3, #65280	; 0xff00
 800128e:	33ff      	adds	r3, #255	; 0xff
 8001290:	4403      	add	r3, r0
 8001292:	e7ed      	b.n	8001270 <HAL_TIM_IC_CaptureCallback+0x154>
 8001294:	2b01      	cmp	r3, #1
 8001296:	d1a0      	bne.n	80011da <HAL_TIM_IC_CaptureCallback+0xbe>
 8001298:	210c      	movs	r1, #12
 800129a:	4620      	mov	r0, r4
 800129c:	f002 faeb 	bl	8003876 <HAL_TIM_ReadCapturedValue>
 80012a0:	4b1a      	ldr	r3, [pc, #104]	; (800130c <HAL_TIM_IC_CaptureCallback+0x1f0>)
 80012a2:	6018      	str	r0, [r3, #0]
 80012a4:	4b12      	ldr	r3, [pc, #72]	; (80012f0 <HAL_TIM_IC_CaptureCallback+0x1d4>)
 80012a6:	681b      	ldr	r3, [r3, #0]
 80012a8:	4298      	cmp	r0, r3
 80012aa:	d90c      	bls.n	80012c6 <HAL_TIM_IC_CaptureCallback+0x1aa>
 80012ac:	1ac3      	subs	r3, r0, r3
 80012ae:	4a18      	ldr	r2, [pc, #96]	; (8001310 <HAL_TIM_IC_CaptureCallback+0x1f4>)
 80012b0:	6013      	str	r3, [r2, #0]
 80012b2:	6823      	ldr	r3, [r4, #0]
 80012b4:	6a1a      	ldr	r2, [r3, #32]
 80012b6:	f422 5200 	bic.w	r2, r2, #8192	; 0x2000
 80012ba:	621a      	str	r2, [r3, #32]
 80012bc:	6a1a      	ldr	r2, [r3, #32]
 80012be:	621a      	str	r2, [r3, #32]
 80012c0:	2300      	movs	r3, #0
 80012c2:	702b      	strb	r3, [r5, #0]
 80012c4:	e789      	b.n	80011da <HAL_TIM_IC_CaptureCallback+0xbe>
 80012c6:	d2f4      	bcs.n	80012b2 <HAL_TIM_IC_CaptureCallback+0x196>
 80012c8:	f5c3 437f 	rsb	r3, r3, #65280	; 0xff00
 80012cc:	33ff      	adds	r3, #255	; 0xff
 80012ce:	4403      	add	r3, r0
 80012d0:	e7ed      	b.n	80012ae <HAL_TIM_IC_CaptureCallback+0x192>
 80012d2:	bf00      	nop
 80012d4:	200002bd 	.word	0x200002bd
 80012d8:	20000264 	.word	0x20000264
 80012dc:	200002be 	.word	0x200002be
 80012e0:	2000026c 	.word	0x2000026c
 80012e4:	200002bf 	.word	0x200002bf
 80012e8:	20000274 	.word	0x20000274
 80012ec:	200002c0 	.word	0x200002c0
 80012f0:	2000027c 	.word	0x2000027c
 80012f4:	20000260 	.word	0x20000260
 80012f8:	2000028c 	.word	0x2000028c
 80012fc:	20000268 	.word	0x20000268
 8001300:	20000290 	.word	0x20000290
 8001304:	20000270 	.word	0x20000270
 8001308:	20000294 	.word	0x20000294
 800130c:	20000278 	.word	0x20000278
 8001310:	20000298 	.word	0x20000298

08001314 <MPU6050_Init>:
 8001314:	b570      	push	{r4, r5, r6, lr}
 8001316:	2401      	movs	r4, #1
 8001318:	f44f 757a 	mov.w	r5, #1000	; 0x3e8
 800131c:	b086      	sub	sp, #24
 800131e:	f10d 0316 	add.w	r3, sp, #22
 8001322:	9300      	str	r3, [sp, #0]
 8001324:	2275      	movs	r2, #117	; 0x75
 8001326:	4623      	mov	r3, r4
 8001328:	21d0      	movs	r1, #208	; 0xd0
 800132a:	e9cd 4501 	strd	r4, r5, [sp, #4]
 800132e:	481d      	ldr	r0, [pc, #116]	; (80013a4 <MPU6050_Init+0x90>)
 8001330:	f001 fe6c 	bl	800300c <HAL_I2C_Mem_Read>
 8001334:	f89d 3016 	ldrb.w	r3, [sp, #22]
 8001338:	2b68      	cmp	r3, #104	; 0x68
 800133a:	d131      	bne.n	80013a0 <MPU6050_Init+0x8c>
 800133c:	2300      	movs	r3, #0
 800133e:	f10d 0617 	add.w	r6, sp, #23
 8001342:	226b      	movs	r2, #107	; 0x6b
 8001344:	21d0      	movs	r1, #208	; 0xd0
 8001346:	f88d 3017 	strb.w	r3, [sp, #23]
 800134a:	e9cd 4501 	strd	r4, r5, [sp, #4]
 800134e:	4623      	mov	r3, r4
 8001350:	4814      	ldr	r0, [pc, #80]	; (80013a4 <MPU6050_Init+0x90>)
 8001352:	9600      	str	r6, [sp, #0]
 8001354:	f001 fdca 	bl	8002eec <HAL_I2C_Mem_Write>
 8001358:	2308      	movs	r3, #8
 800135a:	221b      	movs	r2, #27
 800135c:	21d0      	movs	r1, #208	; 0xd0
 800135e:	f88d 3017 	strb.w	r3, [sp, #23]
 8001362:	e9cd 4501 	strd	r4, r5, [sp, #4]
 8001366:	4623      	mov	r3, r4
 8001368:	480e      	ldr	r0, [pc, #56]	; (80013a4 <MPU6050_Init+0x90>)
 800136a:	9600      	str	r6, [sp, #0]
 800136c:	f001 fdbe 	bl	8002eec <HAL_I2C_Mem_Write>
 8001370:	2310      	movs	r3, #16
 8001372:	221c      	movs	r2, #28
 8001374:	21d0      	movs	r1, #208	; 0xd0
 8001376:	f88d 3017 	strb.w	r3, [sp, #23]
 800137a:	e9cd 4501 	strd	r4, r5, [sp, #4]
 800137e:	4623      	mov	r3, r4
 8001380:	4808      	ldr	r0, [pc, #32]	; (80013a4 <MPU6050_Init+0x90>)
 8001382:	9600      	str	r6, [sp, #0]
 8001384:	f001 fdb2 	bl	8002eec <HAL_I2C_Mem_Write>
 8001388:	2303      	movs	r3, #3
 800138a:	221a      	movs	r2, #26
 800138c:	f88d 3017 	strb.w	r3, [sp, #23]
 8001390:	21d0      	movs	r1, #208	; 0xd0
 8001392:	4623      	mov	r3, r4
 8001394:	e9cd 4501 	strd	r4, r5, [sp, #4]
 8001398:	4802      	ldr	r0, [pc, #8]	; (80013a4 <MPU6050_Init+0x90>)
 800139a:	9600      	str	r6, [sp, #0]
 800139c:	f001 fda6 	bl	8002eec <HAL_I2C_Mem_Write>
 80013a0:	b006      	add	sp, #24
 80013a2:	bd70      	pop	{r4, r5, r6, pc}
 80013a4:	200002d0 	.word	0x200002d0

080013a8 <MPU6050_Read>:
 80013a8:	230e      	movs	r3, #14
 80013aa:	f44f 727a 	mov.w	r2, #1000	; 0x3e8
 80013ae:	b570      	push	{r4, r5, r6, lr}
 80013b0:	b088      	sub	sp, #32
 80013b2:	e9cd 3201 	strd	r3, r2, [sp, #4]
 80013b6:	ab04      	add	r3, sp, #16
 80013b8:	9300      	str	r3, [sp, #0]
 80013ba:	223b      	movs	r2, #59	; 0x3b
 80013bc:	2301      	movs	r3, #1
 80013be:	21d0      	movs	r1, #208	; 0xd0
 80013c0:	481c      	ldr	r0, [pc, #112]	; (8001434 <MPU6050_Read+0x8c>)
 80013c2:	4e1d      	ldr	r6, [pc, #116]	; (8001438 <MPU6050_Read+0x90>)
 80013c4:	f001 fe22 	bl	800300c <HAL_I2C_Mem_Read>
 80013c8:	f8bd 5010 	ldrh.w	r5, [sp, #16]
 80013cc:	8836      	ldrh	r6, [r6, #0]
 80013ce:	ba6d      	rev16	r5, r5
 80013d0:	1bad      	subs	r5, r5, r6
 80013d2:	4e1a      	ldr	r6, [pc, #104]	; (800143c <MPU6050_Read+0x94>)
 80013d4:	f8bd 4012 	ldrh.w	r4, [sp, #18]
 80013d8:	8035      	strh	r5, [r6, #0]
 80013da:	4d19      	ldr	r5, [pc, #100]	; (8001440 <MPU6050_Read+0x98>)
 80013dc:	ba64      	rev16	r4, r4
 80013de:	882d      	ldrh	r5, [r5, #0]
 80013e0:	f8bd 0014 	ldrh.w	r0, [sp, #20]
 80013e4:	1b64      	subs	r4, r4, r5
 80013e6:	4d17      	ldr	r5, [pc, #92]	; (8001444 <MPU6050_Read+0x9c>)
 80013e8:	ba40      	rev16	r0, r0
 80013ea:	802c      	strh	r4, [r5, #0]
 80013ec:	4c16      	ldr	r4, [pc, #88]	; (8001448 <MPU6050_Read+0xa0>)
 80013ee:	f8bd 1018 	ldrh.w	r1, [sp, #24]
 80013f2:	8824      	ldrh	r4, [r4, #0]
 80013f4:	ba49      	rev16	r1, r1
 80013f6:	1b00      	subs	r0, r0, r4
 80013f8:	4c14      	ldr	r4, [pc, #80]	; (800144c <MPU6050_Read+0xa4>)
 80013fa:	f8bd 3016 	ldrh.w	r3, [sp, #22]
 80013fe:	8020      	strh	r0, [r4, #0]
 8001400:	4813      	ldr	r0, [pc, #76]	; (8001450 <MPU6050_Read+0xa8>)
 8001402:	4a14      	ldr	r2, [pc, #80]	; (8001454 <MPU6050_Read+0xac>)
 8001404:	8800      	ldrh	r0, [r0, #0]
 8001406:	ba5b      	rev16	r3, r3
 8001408:	1a09      	subs	r1, r1, r0
 800140a:	4813      	ldr	r0, [pc, #76]	; (8001458 <MPU6050_Read+0xb0>)
 800140c:	8013      	strh	r3, [r2, #0]
 800140e:	8001      	strh	r1, [r0, #0]
 8001410:	4912      	ldr	r1, [pc, #72]	; (800145c <MPU6050_Read+0xb4>)
 8001412:	f8bd 201a 	ldrh.w	r2, [sp, #26]
 8001416:	8809      	ldrh	r1, [r1, #0]
 8001418:	ba52      	rev16	r2, r2
 800141a:	1a52      	subs	r2, r2, r1
 800141c:	4910      	ldr	r1, [pc, #64]	; (8001460 <MPU6050_Read+0xb8>)
 800141e:	f8bd 301c 	ldrh.w	r3, [sp, #28]
 8001422:	800a      	strh	r2, [r1, #0]
 8001424:	4a0f      	ldr	r2, [pc, #60]	; (8001464 <MPU6050_Read+0xbc>)
 8001426:	ba5b      	rev16	r3, r3
 8001428:	8812      	ldrh	r2, [r2, #0]
 800142a:	1a9b      	subs	r3, r3, r2
 800142c:	4a0e      	ldr	r2, [pc, #56]	; (8001468 <MPU6050_Read+0xc0>)
 800142e:	8013      	strh	r3, [r2, #0]
 8001430:	b008      	add	sp, #32
 8001432:	bd70      	pop	{r4, r5, r6, pc}
 8001434:	200002d0 	.word	0x200002d0
 8001438:	20000024 	.word	0x20000024
 800143c:	20000234 	.word	0x20000234
 8001440:	20000026 	.word	0x20000026
 8001444:	20000236 	.word	0x20000236
 8001448:	20000028 	.word	0x20000028
 800144c:	20000238 	.word	0x20000238
 8001450:	2000002a 	.word	0x2000002a
 8001454:	20000440 	.word	0x20000440
 8001458:	2000023a 	.word	0x2000023a
 800145c:	2000002c 	.word	0x2000002c
 8001460:	2000023c 	.word	0x2000023c
 8001464:	2000002e 	.word	0x2000002e
 8001468:	2000023e 	.word	0x2000023e

0800146c <SystemClock_Config>:
 800146c:	b510      	push	{r4, lr}
 800146e:	b090      	sub	sp, #64	; 0x40
 8001470:	2214      	movs	r2, #20
 8001472:	2100      	movs	r1, #0
 8001474:	a808      	add	r0, sp, #32
 8001476:	f002 fe75 	bl	8004164 <memset>
 800147a:	2214      	movs	r2, #20
 800147c:	2100      	movs	r1, #0
 800147e:	a801      	add	r0, sp, #4
 8001480:	f002 fe70 	bl	8004164 <memset>
 8001484:	2402      	movs	r4, #2
 8001486:	f44f 3380 	mov.w	r3, #65536	; 0x10000
 800148a:	2201      	movs	r2, #1
 800148c:	e9cd 430d 	strd	r4, r3, [sp, #52]	; 0x34
 8001490:	e9cd 2306 	strd	r2, r3, [sp, #24]
 8001494:	f44f 13e0 	mov.w	r3, #1835008	; 0x1c0000
 8001498:	a806      	add	r0, sp, #24
 800149a:	920a      	str	r2, [sp, #40]	; 0x28
 800149c:	930f      	str	r3, [sp, #60]	; 0x3c
 800149e:	f001 fef3 	bl	8003288 <HAL_RCC_OscConfig>
 80014a2:	b108      	cbz	r0, 80014a8 <SystemClock_Config+0x3c>
 80014a4:	b672      	cpsid	i
 80014a6:	e7fe      	b.n	80014a6 <SystemClock_Config+0x3a>
 80014a8:	230f      	movs	r3, #15
 80014aa:	e9cd 3401 	strd	r3, r4, [sp, #4]
 80014ae:	f44f 6380 	mov.w	r3, #1024	; 0x400
 80014b2:	9003      	str	r0, [sp, #12]
 80014b4:	e9cd 3004 	strd	r3, r0, [sp, #16]
 80014b8:	4621      	mov	r1, r4
 80014ba:	a801      	add	r0, sp, #4
 80014bc:	f002 f8ba 	bl	8003634 <HAL_RCC_ClockConfig>
 80014c0:	b108      	cbz	r0, 80014c6 <SystemClock_Config+0x5a>
 80014c2:	b672      	cpsid	i
 80014c4:	e7fe      	b.n	80014c4 <SystemClock_Config+0x58>
 80014c6:	b010      	add	sp, #64	; 0x40
 80014c8:	bd10      	pop	{r4, pc}
 80014ca:	0000      	movs	r0, r0
 80014cc:	0000      	movs	r0, r0
	...

080014d0 <main>:
 80014d0:	e92d 4ff0 	stmdb	sp!, {r4, r5, r6, r7, r8, r9, sl, fp, lr}
 80014d4:	b097      	sub	sp, #92	; 0x5c
 80014d6:	f001 f901 	bl	80026dc <HAL_Init>
 80014da:	f7ff ffc7 	bl	800146c <SystemClock_Config>
 80014de:	2210      	movs	r2, #16
 80014e0:	2100      	movs	r1, #0
 80014e2:	a80f      	add	r0, sp, #60	; 0x3c
 80014e4:	f002 fe3e 	bl	8004164 <memset>
 80014e8:	4b96      	ldr	r3, [pc, #600]	; (8001744 <main+0x274>)
 80014ea:	f44f 5100 	mov.w	r1, #8192	; 0x2000
 80014ee:	699a      	ldr	r2, [r3, #24]
 80014f0:	4895      	ldr	r0, [pc, #596]	; (8001748 <main+0x278>)
 80014f2:	f042 0210 	orr.w	r2, r2, #16
 80014f6:	619a      	str	r2, [r3, #24]
 80014f8:	699a      	ldr	r2, [r3, #24]
 80014fa:	2701      	movs	r7, #1
 80014fc:	f002 0210 	and.w	r2, r2, #16
 8001500:	9205      	str	r2, [sp, #20]
 8001502:	9a05      	ldr	r2, [sp, #20]
 8001504:	699a      	ldr	r2, [r3, #24]
 8001506:	2400      	movs	r4, #0
 8001508:	f042 0220 	orr.w	r2, r2, #32
 800150c:	619a      	str	r2, [r3, #24]
 800150e:	699a      	ldr	r2, [r3, #24]
 8001510:	f002 0220 	and.w	r2, r2, #32
 8001514:	9206      	str	r2, [sp, #24]
 8001516:	9a06      	ldr	r2, [sp, #24]
 8001518:	699a      	ldr	r2, [r3, #24]
 800151a:	f042 0204 	orr.w	r2, r2, #4
 800151e:	619a      	str	r2, [r3, #24]
 8001520:	699a      	ldr	r2, [r3, #24]
 8001522:	f002 0204 	and.w	r2, r2, #4
 8001526:	9207      	str	r2, [sp, #28]
 8001528:	9a07      	ldr	r2, [sp, #28]
 800152a:	699a      	ldr	r2, [r3, #24]
 800152c:	f042 0208 	orr.w	r2, r2, #8
 8001530:	619a      	str	r2, [r3, #24]
 8001532:	699b      	ldr	r3, [r3, #24]
 8001534:	2200      	movs	r2, #0
 8001536:	f003 0308 	and.w	r3, r3, #8
 800153a:	9308      	str	r3, [sp, #32]
 800153c:	9b08      	ldr	r3, [sp, #32]
 800153e:	f001 fa43 	bl	80029c8 <HAL_GPIO_WritePin>
 8001542:	f44f 5300 	mov.w	r3, #8192	; 0x2000
 8001546:	e9cd 370f 	strd	r3, r7, [sp, #60]	; 0x3c
 800154a:	2302      	movs	r3, #2
 800154c:	487e      	ldr	r0, [pc, #504]	; (8001748 <main+0x278>)
 800154e:	a90f      	add	r1, sp, #60	; 0x3c
 8001550:	e9cd 4311 	strd	r4, r3, [sp, #68]	; 0x44
 8001554:	f001 f95e 	bl	8002814 <HAL_GPIO_Init>
 8001558:	487c      	ldr	r0, [pc, #496]	; (800174c <main+0x27c>)
 800155a:	497d      	ldr	r1, [pc, #500]	; (8001750 <main+0x280>)
 800155c:	4b7d      	ldr	r3, [pc, #500]	; (8001754 <main+0x284>)
 800155e:	e9c0 4406 	strd	r4, r4, [r0, #24]
 8001562:	e9c0 1300 	strd	r1, r3, [r0]
 8001566:	f44f 4380 	mov.w	r3, #16384	; 0x4000
 800156a:	6204      	str	r4, [r0, #32]
 800156c:	e9c0 3402 	strd	r3, r4, [r0, #8]
 8001570:	e9c0 3404 	strd	r3, r4, [r0, #16]
 8001574:	f001 fc12 	bl	8002d9c <HAL_I2C_Init>
 8001578:	4605      	mov	r5, r0
 800157a:	b108      	cbz	r0, 8001580 <main+0xb0>
 800157c:	b672      	cpsid	i
 800157e:	e7fe      	b.n	800157e <main+0xae>
 8001580:	4601      	mov	r1, r0
 8001582:	e9cd 000b 	strd	r0, r0, [sp, #44]	; 0x2c
 8001586:	2210      	movs	r2, #16
 8001588:	a80f      	add	r0, sp, #60	; 0x3c
 800158a:	f002 fdeb 	bl	8004164 <memset>
 800158e:	2647      	movs	r6, #71	; 0x47
 8001590:	f04f 4380 	mov.w	r3, #1073741824	; 0x40000000
 8001594:	4c70      	ldr	r4, [pc, #448]	; (8001758 <main+0x288>)
 8001596:	e9c4 3600 	strd	r3, r6, [r4]
 800159a:	f64f 73ff 	movw	r3, #65535	; 0xffff
 800159e:	4620      	mov	r0, r4
 80015a0:	e9c4 3503 	strd	r3, r5, [r4, #12]
 80015a4:	60a5      	str	r5, [r4, #8]
 80015a6:	61a5      	str	r5, [r4, #24]
 80015a8:	f002 fab2 	bl	8003b10 <HAL_TIM_IC_Init>
 80015ac:	b108      	cbz	r0, 80015b2 <main+0xe2>
 80015ae:	b672      	cpsid	i
 80015b0:	e7fe      	b.n	80015b0 <main+0xe0>
 80015b2:	e9cd 000b 	strd	r0, r0, [sp, #44]	; 0x2c
 80015b6:	a90b      	add	r1, sp, #44	; 0x2c
 80015b8:	4620      	mov	r0, r4
 80015ba:	f002 fd79 	bl	80040b0 <HAL_TIMEx_MasterConfigSynchronization>
 80015be:	4602      	mov	r2, r0
 80015c0:	b108      	cbz	r0, 80015c6 <main+0xf6>
 80015c2:	b672      	cpsid	i
 80015c4:	e7fe      	b.n	80015c4 <main+0xf4>
 80015c6:	e9cd 070f 	strd	r0, r7, [sp, #60]	; 0x3c
 80015ca:	e9cd 0011 	strd	r0, r0, [sp, #68]	; 0x44
 80015ce:	a90f      	add	r1, sp, #60	; 0x3c
 80015d0:	4620      	mov	r0, r4
 80015d2:	f002 fb7b 	bl	8003ccc <HAL_TIM_IC_ConfigChannel>
 80015d6:	b108      	cbz	r0, 80015dc <main+0x10c>
 80015d8:	b672      	cpsid	i
 80015da:	e7fe      	b.n	80015da <main+0x10a>
 80015dc:	2204      	movs	r2, #4
 80015de:	4620      	mov	r0, r4
 80015e0:	a90f      	add	r1, sp, #60	; 0x3c
 80015e2:	f002 fb73 	bl	8003ccc <HAL_TIM_IC_ConfigChannel>
 80015e6:	b108      	cbz	r0, 80015ec <main+0x11c>
 80015e8:	b672      	cpsid	i
 80015ea:	e7fe      	b.n	80015ea <main+0x11a>
 80015ec:	2208      	movs	r2, #8
 80015ee:	4620      	mov	r0, r4
 80015f0:	a90f      	add	r1, sp, #60	; 0x3c
 80015f2:	f002 fb6b 	bl	8003ccc <HAL_TIM_IC_ConfigChannel>
 80015f6:	b108      	cbz	r0, 80015fc <main+0x12c>
 80015f8:	b672      	cpsid	i
 80015fa:	e7fe      	b.n	80015fa <main+0x12a>
 80015fc:	4620      	mov	r0, r4
 80015fe:	220c      	movs	r2, #12
 8001600:	a90f      	add	r1, sp, #60	; 0x3c
 8001602:	f002 fb63 	bl	8003ccc <HAL_TIM_IC_ConfigChannel>
 8001606:	4604      	mov	r4, r0
 8001608:	b108      	cbz	r0, 800160e <main+0x13e>
 800160a:	b672      	cpsid	i
 800160c:	e7fe      	b.n	800160c <main+0x13c>
 800160e:	4601      	mov	r1, r0
 8001610:	2210      	movs	r2, #16
 8001612:	a80b      	add	r0, sp, #44	; 0x2c
 8001614:	f002 fda6 	bl	8004164 <memset>
 8001618:	221c      	movs	r2, #28
 800161a:	4621      	mov	r1, r4
 800161c:	a80f      	add	r0, sp, #60	; 0x3c
 800161e:	4d4f      	ldr	r5, [pc, #316]	; (800175c <main+0x28c>)
 8001620:	e9cd 4409 	strd	r4, r4, [sp, #36]	; 0x24
 8001624:	f002 fd9e 	bl	8004164 <memset>
 8001628:	4b4d      	ldr	r3, [pc, #308]	; (8001760 <main+0x290>)
 800162a:	4628      	mov	r0, r5
 800162c:	e9c5 3600 	strd	r3, r6, [r5]
 8001630:	f241 3388 	movw	r3, #5000	; 0x1388
 8001634:	60ac      	str	r4, [r5, #8]
 8001636:	e9c5 3403 	strd	r3, r4, [r5, #12]
 800163a:	61ac      	str	r4, [r5, #24]
 800163c:	f002 fa10 	bl	8003a60 <HAL_TIM_Base_Init>
 8001640:	b108      	cbz	r0, 8001646 <main+0x176>
 8001642:	b672      	cpsid	i
 8001644:	e7fe      	b.n	8001644 <main+0x174>
 8001646:	f44f 5380 	mov.w	r3, #4096	; 0x1000
 800164a:	4628      	mov	r0, r5
 800164c:	a90b      	add	r1, sp, #44	; 0x2c
 800164e:	930b      	str	r3, [sp, #44]	; 0x2c
 8001650:	f002 fbca 	bl	8003de8 <HAL_TIM_ConfigClockSource>
 8001654:	b108      	cbz	r0, 800165a <main+0x18a>
 8001656:	b672      	cpsid	i
 8001658:	e7fe      	b.n	8001658 <main+0x188>
 800165a:	4628      	mov	r0, r5
 800165c:	f002 fa2c 	bl	8003ab8 <HAL_TIM_PWM_Init>
 8001660:	b108      	cbz	r0, 8001666 <main+0x196>
 8001662:	b672      	cpsid	i
 8001664:	e7fe      	b.n	8001664 <main+0x194>
 8001666:	2300      	movs	r3, #0
 8001668:	483c      	ldr	r0, [pc, #240]	; (800175c <main+0x28c>)
 800166a:	a909      	add	r1, sp, #36	; 0x24
 800166c:	e9cd 3309 	strd	r3, r3, [sp, #36]	; 0x24
 8001670:	f002 fd1e 	bl	80040b0 <HAL_TIMEx_MasterConfigSynchronization>
 8001674:	b108      	cbz	r0, 800167a <main+0x1aa>
 8001676:	b672      	cpsid	i
 8001678:	e7fe      	b.n	8001678 <main+0x1a8>
 800167a:	2760      	movs	r7, #96	; 0x60
 800167c:	9011      	str	r0, [sp, #68]	; 0x44
 800167e:	e9cd 700f 	strd	r7, r0, [sp, #60]	; 0x3c
 8001682:	9013      	str	r0, [sp, #76]	; 0x4c
 8001684:	2208      	movs	r2, #8
 8001686:	4835      	ldr	r0, [pc, #212]	; (800175c <main+0x28c>)
 8001688:	a90f      	add	r1, sp, #60	; 0x3c
 800168a:	f002 fa99 	bl	8003bc0 <HAL_TIM_PWM_ConfigChannel>
 800168e:	b108      	cbz	r0, 8001694 <main+0x1c4>
 8001690:	b672      	cpsid	i
 8001692:	e7fe      	b.n	8001692 <main+0x1c2>
 8001694:	220c      	movs	r2, #12
 8001696:	4831      	ldr	r0, [pc, #196]	; (800175c <main+0x28c>)
 8001698:	a90f      	add	r1, sp, #60	; 0x3c
 800169a:	f002 fa91 	bl	8003bc0 <HAL_TIM_PWM_ConfigChannel>
 800169e:	4606      	mov	r6, r0
 80016a0:	b108      	cbz	r0, 80016a6 <main+0x1d6>
 80016a2:	b672      	cpsid	i
 80016a4:	e7fe      	b.n	80016a4 <main+0x1d4>
 80016a6:	482d      	ldr	r0, [pc, #180]	; (800175c <main+0x28c>)
 80016a8:	f000 ff1e 	bl	80024e8 <HAL_TIM_MspPostInit>
 80016ac:	2210      	movs	r2, #16
 80016ae:	4631      	mov	r1, r6
 80016b0:	a80b      	add	r0, sp, #44	; 0x2c
 80016b2:	f002 fd57 	bl	8004164 <memset>
 80016b6:	221c      	movs	r2, #28
 80016b8:	4631      	mov	r1, r6
 80016ba:	a80f      	add	r0, sp, #60	; 0x3c
 80016bc:	e9cd 6609 	strd	r6, r6, [sp, #36]	; 0x24
 80016c0:	f002 fd50 	bl	8004164 <memset>
 80016c4:	2347      	movs	r3, #71	; 0x47
 80016c6:	4c27      	ldr	r4, [pc, #156]	; (8001764 <main+0x294>)
 80016c8:	4a27      	ldr	r2, [pc, #156]	; (8001768 <main+0x298>)
 80016ca:	4620      	mov	r0, r4
 80016cc:	e9c4 2300 	strd	r2, r3, [r4]
 80016d0:	f241 3388 	movw	r3, #5000	; 0x1388
 80016d4:	60a6      	str	r6, [r4, #8]
 80016d6:	e9c4 3603 	strd	r3, r6, [r4, #12]
 80016da:	61a6      	str	r6, [r4, #24]
 80016dc:	f002 f9c0 	bl	8003a60 <HAL_TIM_Base_Init>
 80016e0:	b108      	cbz	r0, 80016e6 <main+0x216>
 80016e2:	b672      	cpsid	i
 80016e4:	e7fe      	b.n	80016e4 <main+0x214>
 80016e6:	f44f 5380 	mov.w	r3, #4096	; 0x1000
 80016ea:	4620      	mov	r0, r4
 80016ec:	a90b      	add	r1, sp, #44	; 0x2c
 80016ee:	930b      	str	r3, [sp, #44]	; 0x2c
 80016f0:	f002 fb7a 	bl	8003de8 <HAL_TIM_ConfigClockSource>
 80016f4:	b108      	cbz	r0, 80016fa <main+0x22a>
 80016f6:	b672      	cpsid	i
 80016f8:	e7fe      	b.n	80016f8 <main+0x228>
 80016fa:	4620      	mov	r0, r4
 80016fc:	f002 f9dc 	bl	8003ab8 <HAL_TIM_PWM_Init>
 8001700:	b108      	cbz	r0, 8001706 <main+0x236>
 8001702:	b672      	cpsid	i
 8001704:	e7fe      	b.n	8001704 <main+0x234>
 8001706:	e9cd 0009 	strd	r0, r0, [sp, #36]	; 0x24
 800170a:	a909      	add	r1, sp, #36	; 0x24
 800170c:	4620      	mov	r0, r4
 800170e:	f002 fccf 	bl	80040b0 <HAL_TIMEx_MasterConfigSynchronization>
 8001712:	b108      	cbz	r0, 8001718 <main+0x248>
 8001714:	b672      	cpsid	i
 8001716:	e7fe      	b.n	8001716 <main+0x246>
 8001718:	e9cd 700f 	strd	r7, r0, [sp, #60]	; 0x3c
 800171c:	9011      	str	r0, [sp, #68]	; 0x44
 800171e:	9013      	str	r0, [sp, #76]	; 0x4c
 8001720:	2208      	movs	r2, #8
 8001722:	4620      	mov	r0, r4
 8001724:	a90f      	add	r1, sp, #60	; 0x3c
 8001726:	f002 fa4b 	bl	8003bc0 <HAL_TIM_PWM_ConfigChannel>
 800172a:	b108      	cbz	r0, 8001730 <main+0x260>
 800172c:	b672      	cpsid	i
 800172e:	e7fe      	b.n	800172e <main+0x25e>
 8001730:	220c      	movs	r2, #12
 8001732:	4620      	mov	r0, r4
 8001734:	a90f      	add	r1, sp, #60	; 0x3c
 8001736:	f002 fa43 	bl	8003bc0 <HAL_TIM_PWM_ConfigChannel>
 800173a:	4606      	mov	r6, r0
 800173c:	b1b0      	cbz	r0, 800176c <main+0x29c>
 800173e:	b672      	cpsid	i
 8001740:	e7fe      	b.n	8001740 <main+0x270>
 8001742:	bf00      	nop
 8001744:	40021000 	.word	0x40021000
 8001748:	40011000 	.word	0x40011000
 800174c:	200002d0 	.word	0x200002d0
 8001750:	40005400 	.word	0x40005400
 8001754:	00061a80 	.word	0x00061a80
 8001758:	20000324 	.word	0x20000324
 800175c:	2000036c 	.word	0x2000036c
 8001760:	40000400 	.word	0x40000400
 8001764:	200003b4 	.word	0x200003b4
 8001768:	40000800 	.word	0x40000800
 800176c:	4620      	mov	r0, r4
 800176e:	f000 febb 	bl	80024e8 <HAL_TIM_MspPostInit>
 8001772:	f7ff fdcf 	bl	8001314 <MPU6050_Init>
 8001776:	4632      	mov	r2, r6
 8001778:	f44f 5100 	mov.w	r1, #8192	; 0x2000
 800177c:	48ce      	ldr	r0, [pc, #824]	; (8001ab8 <main+0x5e8>)
 800177e:	f001 f923 	bl	80029c8 <HAL_GPIO_WritePin>
 8001782:	2614      	movs	r6, #20
 8001784:	4fcc      	ldr	r7, [pc, #816]	; (8001ab8 <main+0x5e8>)
 8001786:	f44f 5100 	mov.w	r1, #8192	; 0x2000
 800178a:	4638      	mov	r0, r7
 800178c:	f001 f921 	bl	80029d2 <HAL_GPIO_TogglePin>
 8001790:	2064      	movs	r0, #100	; 0x64
 8001792:	f000 ffc7 	bl	8002724 <HAL_Delay>
 8001796:	3e01      	subs	r6, #1
 8001798:	d1f5      	bne.n	8001786 <main+0x2b6>
 800179a:	4631      	mov	r1, r6
 800179c:	48c7      	ldr	r0, [pc, #796]	; (8001abc <main+0x5ec>)
 800179e:	f002 fc19 	bl	8003fd4 <HAL_TIM_IC_Start_IT>
 80017a2:	2104      	movs	r1, #4
 80017a4:	48c5      	ldr	r0, [pc, #788]	; (8001abc <main+0x5ec>)
 80017a6:	f002 fc15 	bl	8003fd4 <HAL_TIM_IC_Start_IT>
 80017aa:	2108      	movs	r1, #8
 80017ac:	48c3      	ldr	r0, [pc, #780]	; (8001abc <main+0x5ec>)
 80017ae:	f002 fc11 	bl	8003fd4 <HAL_TIM_IC_Start_IT>
 80017b2:	210c      	movs	r1, #12
 80017b4:	48c1      	ldr	r0, [pc, #772]	; (8001abc <main+0x5ec>)
 80017b6:	f002 fc0d 	bl	8003fd4 <HAL_TIM_IC_Start_IT>
 80017ba:	f240 33dd 	movw	r3, #989	; 0x3dd
 80017be:	4ec0      	ldr	r6, [pc, #768]	; (8001ac0 <main+0x5f0>)
 80017c0:	4ac0      	ldr	r2, [pc, #768]	; (8001ac4 <main+0x5f4>)
 80017c2:	48c1      	ldr	r0, [pc, #772]	; (8001ac8 <main+0x5f8>)
 80017c4:	49c1      	ldr	r1, [pc, #772]	; (8001acc <main+0x5fc>)
 80017c6:	6809      	ldr	r1, [r1, #0]
 80017c8:	4299      	cmp	r1, r3
 80017ca:	d9fb      	bls.n	80017c4 <main+0x2f4>
 80017cc:	6831      	ldr	r1, [r6, #0]
 80017ce:	4299      	cmp	r1, r3
 80017d0:	d9f8      	bls.n	80017c4 <main+0x2f4>
 80017d2:	6811      	ldr	r1, [r2, #0]
 80017d4:	4299      	cmp	r1, r3
 80017d6:	d9f5      	bls.n	80017c4 <main+0x2f4>
 80017d8:	6801      	ldr	r1, [r0, #0]
 80017da:	4299      	cmp	r1, r3
 80017dc:	d9f2      	bls.n	80017c4 <main+0x2f4>
 80017de:	f240 30dd 	movw	r0, #989	; 0x3dd
 80017e2:	f240 431a 	movw	r3, #1050	; 0x41a
 80017e6:	6811      	ldr	r1, [r2, #0]
 80017e8:	4281      	cmp	r1, r0
 80017ea:	d9fc      	bls.n	80017e6 <main+0x316>
 80017ec:	6811      	ldr	r1, [r2, #0]
 80017ee:	4299      	cmp	r1, r3
 80017f0:	d8f9      	bhi.n	80017e6 <main+0x316>
 80017f2:	2108      	movs	r1, #8
 80017f4:	48b6      	ldr	r0, [pc, #728]	; (8001ad0 <main+0x600>)
 80017f6:	f002 fbeb 	bl	8003fd0 <HAL_TIM_PWM_Start>
 80017fa:	210c      	movs	r1, #12
 80017fc:	48b4      	ldr	r0, [pc, #720]	; (8001ad0 <main+0x600>)
 80017fe:	f002 fbe7 	bl	8003fd0 <HAL_TIM_PWM_Start>
 8001802:	2108      	movs	r1, #8
 8001804:	48b3      	ldr	r0, [pc, #716]	; (8001ad4 <main+0x604>)
 8001806:	f002 fbe3 	bl	8003fd0 <HAL_TIM_PWM_Start>
 800180a:	210c      	movs	r1, #12
 800180c:	48b1      	ldr	r0, [pc, #708]	; (8001ad4 <main+0x604>)
 800180e:	f002 fbdf 	bl	8003fd0 <HAL_TIM_PWM_Start>
 8001812:	f44f 63fa 	mov.w	r3, #2000	; 0x7d0
 8001816:	682a      	ldr	r2, [r5, #0]
 8001818:	2032      	movs	r0, #50	; 0x32
 800181a:	63d3      	str	r3, [r2, #60]	; 0x3c
 800181c:	6413      	str	r3, [r2, #64]	; 0x40
 800181e:	6822      	ldr	r2, [r4, #0]
 8001820:	63d3      	str	r3, [r2, #60]	; 0x3c
 8001822:	6413      	str	r3, [r2, #64]	; 0x40
 8001824:	f000 ff7e 	bl	8002724 <HAL_Delay>
 8001828:	f44f 737a 	mov.w	r3, #1000	; 0x3e8
 800182c:	682a      	ldr	r2, [r5, #0]
 800182e:	f44f 7096 	mov.w	r0, #300	; 0x12c
 8001832:	63d3      	str	r3, [r2, #60]	; 0x3c
 8001834:	6413      	str	r3, [r2, #64]	; 0x40
 8001836:	6822      	ldr	r2, [r4, #0]
 8001838:	2414      	movs	r4, #20
 800183a:	63d3      	str	r3, [r2, #60]	; 0x3c
 800183c:	6413      	str	r3, [r2, #64]	; 0x40
 800183e:	f000 ff71 	bl	8002724 <HAL_Delay>
 8001842:	2201      	movs	r2, #1
 8001844:	f44f 5100 	mov.w	r1, #8192	; 0x2000
 8001848:	489b      	ldr	r0, [pc, #620]	; (8001ab8 <main+0x5e8>)
 800184a:	f001 f8bd 	bl	80029c8 <HAL_GPIO_WritePin>
 800184e:	4d9a      	ldr	r5, [pc, #616]	; (8001ab8 <main+0x5e8>)
 8001850:	f44f 5100 	mov.w	r1, #8192	; 0x2000
 8001854:	4628      	mov	r0, r5
 8001856:	f001 f8bc 	bl	80029d2 <HAL_GPIO_TogglePin>
 800185a:	2064      	movs	r0, #100	; 0x64
 800185c:	f000 ff62 	bl	8002724 <HAL_Delay>
 8001860:	3c01      	subs	r4, #1
 8001862:	d1f5      	bne.n	8001850 <main+0x380>
 8001864:	f000 ff58 	bl	8002718 <HAL_GetTick>
 8001868:	4b9b      	ldr	r3, [pc, #620]	; (8001ad8 <main+0x608>)
 800186a:	6018      	str	r0, [r3, #0]
 800186c:	f8df b26c 	ldr.w	fp, [pc, #620]	; 8001adc <main+0x60c>
 8001870:	f7ff fd9a 	bl	80013a8 <MPU6050_Read>
 8001874:	f9bb 0000 	ldrsh.w	r0, [fp]
 8001878:	f7fe fdc4 	bl	8000404 <__aeabi_i2d>
 800187c:	a384      	add	r3, pc, #528	; (adr r3, 8001a90 <main+0x5c0>)
 800187e:	e9d3 2300 	ldrd	r2, r3, [r3]
 8001882:	f8df a25c 	ldr.w	sl, [pc, #604]	; 8001ae0 <main+0x610>
 8001886:	f7fe ff51 	bl	800072c <__aeabi_ddiv>
 800188a:	f7ff f8fd 	bl	8000a88 <__aeabi_d2f>
 800188e:	f8da 1000 	ldr.w	r1, [sl]
 8001892:	f7ff f94f 	bl	8000b34 <__addsf3>
 8001896:	f7fe fdc7 	bl	8000428 <__aeabi_f2d>
 800189a:	4b92      	ldr	r3, [pc, #584]	; (8001ae4 <main+0x614>)
 800189c:	4680      	mov	r8, r0
 800189e:	f9b3 0000 	ldrsh.w	r0, [r3]
 80018a2:	4689      	mov	r9, r1
 80018a4:	f7fe fdae 	bl	8000404 <__aeabi_i2d>
 80018a8:	a37b      	add	r3, pc, #492	; (adr r3, 8001a98 <main+0x5c8>)
 80018aa:	e9d3 2300 	ldrd	r2, r3, [r3]
 80018ae:	f7fe fe13 	bl	80004d8 <__aeabi_dmul>
 80018b2:	f005 f96d 	bl	8006b90 <sin>
 80018b6:	4b8c      	ldr	r3, [pc, #560]	; (8001ae8 <main+0x618>)
 80018b8:	4604      	mov	r4, r0
 80018ba:	f9b3 0000 	ldrsh.w	r0, [r3]
 80018be:	460d      	mov	r5, r1
 80018c0:	4240      	negs	r0, r0
 80018c2:	f7fe fd9f 	bl	8000404 <__aeabi_i2d>
 80018c6:	a372      	add	r3, pc, #456	; (adr r3, 8001a90 <main+0x5c0>)
 80018c8:	e9d3 2300 	ldrd	r2, r3, [r3]
 80018cc:	f7fe ff2e 	bl	800072c <__aeabi_ddiv>
 80018d0:	f7ff f8da 	bl	8000a88 <__aeabi_d2f>
 80018d4:	f8da 1004 	ldr.w	r1, [sl, #4]
 80018d8:	f7ff f92c 	bl	8000b34 <__addsf3>
 80018dc:	f7fe fda4 	bl	8000428 <__aeabi_f2d>
 80018e0:	4622      	mov	r2, r4
 80018e2:	4606      	mov	r6, r0
 80018e4:	460f      	mov	r7, r1
 80018e6:	462b      	mov	r3, r5
 80018e8:	4640      	mov	r0, r8
 80018ea:	4649      	mov	r1, r9
 80018ec:	f7fe fdf4 	bl	80004d8 <__aeabi_dmul>
 80018f0:	4602      	mov	r2, r0
 80018f2:	460b      	mov	r3, r1
 80018f4:	4630      	mov	r0, r6
 80018f6:	4639      	mov	r1, r7
 80018f8:	f7fe fc38 	bl	800016c <__adddf3>
 80018fc:	f7ff f8c4 	bl	8000a88 <__aeabi_d2f>
 8001900:	f8ca 0004 	str.w	r0, [sl, #4]
 8001904:	f7fe fd90 	bl	8000428 <__aeabi_f2d>
 8001908:	4622      	mov	r2, r4
 800190a:	462b      	mov	r3, r5
 800190c:	f7fe fde4 	bl	80004d8 <__aeabi_dmul>
 8001910:	4602      	mov	r2, r0
 8001912:	460b      	mov	r3, r1
 8001914:	4640      	mov	r0, r8
 8001916:	4649      	mov	r1, r9
 8001918:	f7fe fc26 	bl	8000168 <__aeabi_dsub>
 800191c:	f7ff f8b4 	bl	8000a88 <__aeabi_d2f>
 8001920:	4b72      	ldr	r3, [pc, #456]	; (8001aec <main+0x61c>)
 8001922:	f8ca 0000 	str.w	r0, [sl]
 8001926:	f9b3 0000 	ldrsh.w	r0, [r3]
 800192a:	f7fe fd6b 	bl	8000404 <__aeabi_i2d>
 800192e:	4b70      	ldr	r3, [pc, #448]	; (8001af0 <main+0x620>)
 8001930:	4680      	mov	r8, r0
 8001932:	f9b3 0000 	ldrsh.w	r0, [r3]
 8001936:	4689      	mov	r9, r1
 8001938:	f7fe fd64 	bl	8000404 <__aeabi_i2d>
 800193c:	4b6d      	ldr	r3, [pc, #436]	; (8001af4 <main+0x624>)
 800193e:	4606      	mov	r6, r0
 8001940:	f9b3 0000 	ldrsh.w	r0, [r3]
 8001944:	460f      	mov	r7, r1
 8001946:	f7fe fd5d 	bl	8000404 <__aeabi_i2d>
 800194a:	4632      	mov	r2, r6
 800194c:	4604      	mov	r4, r0
 800194e:	460d      	mov	r5, r1
 8001950:	463b      	mov	r3, r7
 8001952:	4630      	mov	r0, r6
 8001954:	4639      	mov	r1, r7
 8001956:	f7fe fdbf 	bl	80004d8 <__aeabi_dmul>
 800195a:	4642      	mov	r2, r8
 800195c:	4606      	mov	r6, r0
 800195e:	460f      	mov	r7, r1
 8001960:	464b      	mov	r3, r9
 8001962:	4640      	mov	r0, r8
 8001964:	4649      	mov	r1, r9
 8001966:	f7fe fdb7 	bl	80004d8 <__aeabi_dmul>
 800196a:	4602      	mov	r2, r0
 800196c:	460b      	mov	r3, r1
 800196e:	4630      	mov	r0, r6
 8001970:	4639      	mov	r1, r7
 8001972:	f7fe fbfb 	bl	800016c <__adddf3>
 8001976:	4622      	mov	r2, r4
 8001978:	4606      	mov	r6, r0
 800197a:	460f      	mov	r7, r1
 800197c:	462b      	mov	r3, r5
 800197e:	4620      	mov	r0, r4
 8001980:	4629      	mov	r1, r5
 8001982:	f7fe fda9 	bl	80004d8 <__aeabi_dmul>
 8001986:	4602      	mov	r2, r0
 8001988:	460b      	mov	r3, r1
 800198a:	4630      	mov	r0, r6
 800198c:	4639      	mov	r1, r7
 800198e:	f7fe fbed 	bl	800016c <__adddf3>
 8001992:	f005 f96b 	bl	8006c6c <sqrt>
 8001996:	f7ff f84f 	bl	8000a38 <__aeabi_d2iz>
 800199a:	4c57      	ldr	r4, [pc, #348]	; (8001af8 <main+0x628>)
 800199c:	4242      	negs	r2, r0
 800199e:	f9b4 3000 	ldrsh.w	r3, [r4]
 80019a2:	4d56      	ldr	r5, [pc, #344]	; (8001afc <main+0x62c>)
 80019a4:	4298      	cmp	r0, r3
 80019a6:	bfb8      	it	lt
 80019a8:	8020      	strhlt	r0, [r4, #0]
 80019aa:	f9b4 3000 	ldrsh.w	r3, [r4]
 80019ae:	4606      	mov	r6, r0
 80019b0:	4293      	cmp	r3, r2
 80019b2:	4b53      	ldr	r3, [pc, #332]	; (8001b00 <main+0x630>)
 80019b4:	bfb8      	it	lt
 80019b6:	8022      	strhlt	r2, [r4, #0]
 80019b8:	f9b3 1000 	ldrsh.w	r1, [r3]
 80019bc:	6028      	str	r0, [r5, #0]
 80019be:	4288      	cmp	r0, r1
 80019c0:	bfb8      	it	lt
 80019c2:	8018      	strhlt	r0, [r3, #0]
 80019c4:	f9b3 1000 	ldrsh.w	r1, [r3]
 80019c8:	428a      	cmp	r2, r1
 80019ca:	bfc8      	it	gt
 80019cc:	801a      	strhgt	r2, [r3, #0]
 80019ce:	f9b3 0000 	ldrsh.w	r0, [r3]
 80019d2:	f7ff f963 	bl	8000c9c <__aeabi_i2f>
 80019d6:	4607      	mov	r7, r0
 80019d8:	4630      	mov	r0, r6
 80019da:	f7ff f95f 	bl	8000c9c <__aeabi_i2f>
 80019de:	4601      	mov	r1, r0
 80019e0:	4638      	mov	r0, r7
 80019e2:	f7ff fa63 	bl	8000eac <__aeabi_fdiv>
 80019e6:	f7fe fd1f 	bl	8000428 <__aeabi_f2d>
 80019ea:	f005 f917 	bl	8006c1c <asin>
 80019ee:	a32c      	add	r3, pc, #176	; (adr r3, 8001aa0 <main+0x5d0>)
 80019f0:	e9d3 2300 	ldrd	r2, r3, [r3]
 80019f4:	f7fe fd70 	bl	80004d8 <__aeabi_dmul>
 80019f8:	f7ff f846 	bl	8000a88 <__aeabi_d2f>
 80019fc:	4f41      	ldr	r7, [pc, #260]	; (8001b04 <main+0x634>)
 80019fe:	6038      	str	r0, [r7, #0]
 8001a00:	f9b4 0000 	ldrsh.w	r0, [r4]
 8001a04:	f7ff f94a 	bl	8000c9c <__aeabi_i2f>
 8001a08:	4604      	mov	r4, r0
 8001a0a:	6828      	ldr	r0, [r5, #0]
 8001a0c:	f7ff f946 	bl	8000c9c <__aeabi_i2f>
 8001a10:	4601      	mov	r1, r0
 8001a12:	4620      	mov	r0, r4
 8001a14:	f7ff fa4a 	bl	8000eac <__aeabi_fdiv>
 8001a18:	f7fe fd06 	bl	8000428 <__aeabi_f2d>
 8001a1c:	f005 f8fe 	bl	8006c1c <asin>
 8001a20:	a31f      	add	r3, pc, #124	; (adr r3, 8001aa0 <main+0x5d0>)
 8001a22:	e9d3 2300 	ldrd	r2, r3, [r3]
 8001a26:	f7fe fd57 	bl	80004d8 <__aeabi_dmul>
 8001a2a:	f7ff f82d 	bl	8000a88 <__aeabi_d2f>
 8001a2e:	4b36      	ldr	r3, [pc, #216]	; (8001b08 <main+0x638>)
 8001a30:	4606      	mov	r6, r0
 8001a32:	781a      	ldrb	r2, [r3, #0]
 8001a34:	6078      	str	r0, [r7, #4]
 8001a36:	2a00      	cmp	r2, #0
 8001a38:	f040 8154 	bne.w	8001ce4 <main+0x814>
 8001a3c:	683a      	ldr	r2, [r7, #0]
 8001a3e:	f8ca 0004 	str.w	r0, [sl, #4]
 8001a42:	f8ca 2000 	str.w	r2, [sl]
 8001a46:	2201      	movs	r2, #1
 8001a48:	701a      	strb	r2, [r3, #0]
 8001a4a:	4d30      	ldr	r5, [pc, #192]	; (8001b0c <main+0x63c>)
 8001a4c:	6828      	ldr	r0, [r5, #0]
 8001a4e:	f7fe fceb 	bl	8000428 <__aeabi_f2d>
 8001a52:	a315      	add	r3, pc, #84	; (adr r3, 8001aa8 <main+0x5d8>)
 8001a54:	e9d3 2300 	ldrd	r2, r3, [r3]
 8001a58:	f7fe fd3e 	bl	80004d8 <__aeabi_dmul>
 8001a5c:	4606      	mov	r6, r0
 8001a5e:	f8da 0000 	ldr.w	r0, [sl]
 8001a62:	460f      	mov	r7, r1
 8001a64:	f7fe fce0 	bl	8000428 <__aeabi_f2d>
 8001a68:	a311      	add	r3, pc, #68	; (adr r3, 8001ab0 <main+0x5e0>)
 8001a6a:	e9d3 2300 	ldrd	r2, r3, [r3]
 8001a6e:	f7fe fd33 	bl	80004d8 <__aeabi_dmul>
 8001a72:	4602      	mov	r2, r0
 8001a74:	460b      	mov	r3, r1
 8001a76:	4630      	mov	r0, r6
 8001a78:	4639      	mov	r1, r7
 8001a7a:	f7fe fb77 	bl	800016c <__adddf3>
 8001a7e:	f7ff f803 	bl	8000a88 <__aeabi_d2f>
 8001a82:	4604      	mov	r4, r0
 8001a84:	6028      	str	r0, [r5, #0]
 8001a86:	6868      	ldr	r0, [r5, #4]
 8001a88:	f7fe fcce 	bl	8000428 <__aeabi_f2d>
 8001a8c:	e040      	b.n	8001b10 <main+0x640>
 8001a8e:	bf00      	nop
 8001a90:	00000000 	.word	0x00000000
 8001a94:	40cffb80 	.word	0x40cffb80
 8001a98:	62c8816b 	.word	0x62c8816b
 8001a9c:	3eb1e1ca 	.word	0x3eb1e1ca
 8001aa0:	1a63c1f8 	.word	0x1a63c1f8
 8001aa4:	404ca5dc 	.word	0x404ca5dc
 8001aa8:	cccccccd 	.word	0xcccccccd
 8001aac:	3feccccc 	.word	0x3feccccc
 8001ab0:	9999999a 	.word	0x9999999a
 8001ab4:	3fb99999 	.word	0x3fb99999
 8001ab8:	40011000 	.word	0x40011000
 8001abc:	20000324 	.word	0x20000324
 8001ac0:	20000290 	.word	0x20000290
 8001ac4:	20000294 	.word	0x20000294
 8001ac8:	20000298 	.word	0x20000298
 8001acc:	2000028c 	.word	0x2000028c
 8001ad0:	2000036c 	.word	0x2000036c
 8001ad4:	200003b4 	.word	0x200003b4
 8001ad8:	200003fc 	.word	0x200003fc
 8001adc:	2000023a 	.word	0x2000023a
 8001ae0:	200002c4 	.word	0x200002c4
 8001ae4:	2000023e 	.word	0x2000023e
 8001ae8:	2000023c 	.word	0x2000023c
 8001aec:	20000024 	.word	0x20000024
 8001af0:	20000026 	.word	0x20000026
 8001af4:	20000028 	.word	0x20000028
 8001af8:	20000234 	.word	0x20000234
 8001afc:	2000024c 	.word	0x2000024c
 8001b00:	20000236 	.word	0x20000236
 8001b04:	20000240 	.word	0x20000240
 8001b08:	200002bc 	.word	0x200002bc
 8001b0c:	20000400 	.word	0x20000400
 8001b10:	a393      	add	r3, pc, #588	; (adr r3, 8001d60 <main+0x890>)
 8001b12:	e9d3 2300 	ldrd	r2, r3, [r3]
 8001b16:	f7fe fcdf 	bl	80004d8 <__aeabi_dmul>
 8001b1a:	4606      	mov	r6, r0
 8001b1c:	f8da 0004 	ldr.w	r0, [sl, #4]
 8001b20:	460f      	mov	r7, r1
 8001b22:	f7fe fc81 	bl	8000428 <__aeabi_f2d>
 8001b26:	a390      	add	r3, pc, #576	; (adr r3, 8001d68 <main+0x898>)
 8001b28:	e9d3 2300 	ldrd	r2, r3, [r3]
 8001b2c:	f7fe fcd4 	bl	80004d8 <__aeabi_dmul>
 8001b30:	4602      	mov	r2, r0
 8001b32:	460b      	mov	r3, r1
 8001b34:	4630      	mov	r0, r6
 8001b36:	4639      	mov	r1, r7
 8001b38:	f7fe fb18 	bl	800016c <__adddf3>
 8001b3c:	f7fe ffa4 	bl	8000a88 <__aeabi_d2f>
 8001b40:	4b95      	ldr	r3, [pc, #596]	; (8001d98 <main+0x8c8>)
 8001b42:	4680      	mov	r8, r0
 8001b44:	f9b3 7000 	ldrsh.w	r7, [r3]
 8001b48:	6068      	str	r0, [r5, #4]
 8001b4a:	4278      	negs	r0, r7
 8001b4c:	f7fe fc5a 	bl	8000404 <__aeabi_i2d>
 8001b50:	a387      	add	r3, pc, #540	; (adr r3, 8001d70 <main+0x8a0>)
 8001b52:	e9d3 2300 	ldrd	r2, r3, [r3]
 8001b56:	f7fe fde9 	bl	800072c <__aeabi_ddiv>
 8001b5a:	f7fe ff95 	bl	8000a88 <__aeabi_d2f>
 8001b5e:	498f      	ldr	r1, [pc, #572]	; (8001d9c <main+0x8cc>)
 8001b60:	60a8      	str	r0, [r5, #8]
 8001b62:	4640      	mov	r0, r8
 8001b64:	f7ff f8ee 	bl	8000d44 <__aeabi_fmul>
 8001b68:	4b8d      	ldr	r3, [pc, #564]	; (8001da0 <main+0x8d0>)
 8001b6a:	498c      	ldr	r1, [pc, #560]	; (8001d9c <main+0x8cc>)
 8001b6c:	6018      	str	r0, [r3, #0]
 8001b6e:	4682      	mov	sl, r0
 8001b70:	4620      	mov	r0, r4
 8001b72:	f7ff f8e7 	bl	8000d44 <__aeabi_fmul>
 8001b76:	4b8b      	ldr	r3, [pc, #556]	; (8001da4 <main+0x8d4>)
 8001b78:	4606      	mov	r6, r0
 8001b7a:	6018      	str	r0, [r3, #0]
 8001b7c:	4b8a      	ldr	r3, [pc, #552]	; (8001da8 <main+0x8d8>)
 8001b7e:	f9bb 0000 	ldrsh.w	r0, [fp]
 8001b82:	f8c3 8000 	str.w	r8, [r3]
 8001b86:	4b89      	ldr	r3, [pc, #548]	; (8001dac <main+0x8dc>)
 8001b88:	f8df b224 	ldr.w	fp, [pc, #548]	; 8001db0 <main+0x8e0>
 8001b8c:	601c      	str	r4, [r3, #0]
 8001b8e:	f7ff f885 	bl	8000c9c <__aeabi_i2f>
 8001b92:	f7fe fc49 	bl	8000428 <__aeabi_f2d>
 8001b96:	a378      	add	r3, pc, #480	; (adr r3, 8001d78 <main+0x8a8>)
 8001b98:	e9d3 2300 	ldrd	r2, r3, [r3]
 8001b9c:	f7fe fc9c 	bl	80004d8 <__aeabi_dmul>
 8001ba0:	a373      	add	r3, pc, #460	; (adr r3, 8001d70 <main+0x8a0>)
 8001ba2:	e9d3 2300 	ldrd	r2, r3, [r3]
 8001ba6:	f7fe fdc1 	bl	800072c <__aeabi_ddiv>
 8001baa:	4c82      	ldr	r4, [pc, #520]	; (8001db4 <main+0x8e4>)
 8001bac:	4680      	mov	r8, r0
 8001bae:	6820      	ldr	r0, [r4, #0]
 8001bb0:	4689      	mov	r9, r1
 8001bb2:	f7fe fc39 	bl	8000428 <__aeabi_f2d>
 8001bb6:	a372      	add	r3, pc, #456	; (adr r3, 8001d80 <main+0x8b0>)
 8001bb8:	e9d3 2300 	ldrd	r2, r3, [r3]
 8001bbc:	f7fe fc8c 	bl	80004d8 <__aeabi_dmul>
 8001bc0:	4602      	mov	r2, r0
 8001bc2:	460b      	mov	r3, r1
 8001bc4:	4640      	mov	r0, r8
 8001bc6:	4649      	mov	r1, r9
 8001bc8:	f7fe fad0 	bl	800016c <__adddf3>
 8001bcc:	f7fe ff5c 	bl	8000a88 <__aeabi_d2f>
 8001bd0:	4b79      	ldr	r3, [pc, #484]	; (8001db8 <main+0x8e8>)
 8001bd2:	9001      	str	r0, [sp, #4]
 8001bd4:	6020      	str	r0, [r4, #0]
 8001bd6:	f9b3 0000 	ldrsh.w	r0, [r3]
 8001bda:	f7ff f85f 	bl	8000c9c <__aeabi_i2f>
 8001bde:	f7fe fc23 	bl	8000428 <__aeabi_f2d>
 8001be2:	a365      	add	r3, pc, #404	; (adr r3, 8001d78 <main+0x8a8>)
 8001be4:	e9d3 2300 	ldrd	r2, r3, [r3]
 8001be8:	f7fe fc76 	bl	80004d8 <__aeabi_dmul>
 8001bec:	a360      	add	r3, pc, #384	; (adr r3, 8001d70 <main+0x8a0>)
 8001bee:	e9d3 2300 	ldrd	r2, r3, [r3]
 8001bf2:	f7fe fd9b 	bl	800072c <__aeabi_ddiv>
 8001bf6:	4680      	mov	r8, r0
 8001bf8:	6860      	ldr	r0, [r4, #4]
 8001bfa:	4689      	mov	r9, r1
 8001bfc:	f7fe fc14 	bl	8000428 <__aeabi_f2d>
 8001c00:	a35f      	add	r3, pc, #380	; (adr r3, 8001d80 <main+0x8b0>)
 8001c02:	e9d3 2300 	ldrd	r2, r3, [r3]
 8001c06:	f7fe fc67 	bl	80004d8 <__aeabi_dmul>
 8001c0a:	4602      	mov	r2, r0
 8001c0c:	460b      	mov	r3, r1
 8001c0e:	4640      	mov	r0, r8
 8001c10:	4649      	mov	r1, r9
 8001c12:	f7fe faab 	bl	800016c <__adddf3>
 8001c16:	f7fe ff37 	bl	8000a88 <__aeabi_d2f>
 8001c1a:	6060      	str	r0, [r4, #4]
 8001c1c:	4605      	mov	r5, r0
 8001c1e:	4638      	mov	r0, r7
 8001c20:	f7ff f83c 	bl	8000c9c <__aeabi_i2f>
 8001c24:	f7fe fc00 	bl	8000428 <__aeabi_f2d>
 8001c28:	a353      	add	r3, pc, #332	; (adr r3, 8001d78 <main+0x8a8>)
 8001c2a:	e9d3 2300 	ldrd	r2, r3, [r3]
 8001c2e:	f7fe fc53 	bl	80004d8 <__aeabi_dmul>
 8001c32:	a34f      	add	r3, pc, #316	; (adr r3, 8001d70 <main+0x8a0>)
 8001c34:	e9d3 2300 	ldrd	r2, r3, [r3]
 8001c38:	f7fe fd78 	bl	800072c <__aeabi_ddiv>
 8001c3c:	4680      	mov	r8, r0
 8001c3e:	68a0      	ldr	r0, [r4, #8]
 8001c40:	4689      	mov	r9, r1
 8001c42:	f7fe fbf1 	bl	8000428 <__aeabi_f2d>
 8001c46:	a34e      	add	r3, pc, #312	; (adr r3, 8001d80 <main+0x8b0>)
 8001c48:	e9d3 2300 	ldrd	r2, r3, [r3]
 8001c4c:	f7fe fc44 	bl	80004d8 <__aeabi_dmul>
 8001c50:	4602      	mov	r2, r0
 8001c52:	460b      	mov	r3, r1
 8001c54:	4640      	mov	r0, r8
 8001c56:	4649      	mov	r1, r9
 8001c58:	f7fe fa88 	bl	800016c <__adddf3>
 8001c5c:	f7fe ff14 	bl	8000a88 <__aeabi_d2f>
 8001c60:	4b56      	ldr	r3, [pc, #344]	; (8001dbc <main+0x8ec>)
 8001c62:	4680      	mov	r8, r0
 8001c64:	681a      	ldr	r2, [r3, #0]
 8001c66:	f240 4319 	movw	r3, #1049	; 0x419
 8001c6a:	429a      	cmp	r2, r3
 8001c6c:	4f54      	ldr	r7, [pc, #336]	; (8001dc0 <main+0x8f0>)
 8001c6e:	4a55      	ldr	r2, [pc, #340]	; (8001dc4 <main+0x8f4>)
 8001c70:	60a0      	str	r0, [r4, #8]
 8001c72:	f200 80b1 	bhi.w	8001dd8 <main+0x908>
 8001c76:	4954      	ldr	r1, [pc, #336]	; (8001dc8 <main+0x8f8>)
 8001c78:	6809      	ldr	r1, [r1, #0]
 8001c7a:	4299      	cmp	r1, r3
 8001c7c:	f200 80ac 	bhi.w	8001dd8 <main+0x908>
 8001c80:	2301      	movs	r3, #1
 8001c82:	7013      	strb	r3, [r2, #0]
 8001c84:	4b4d      	ldr	r3, [pc, #308]	; (8001dbc <main+0x8ec>)
 8001c86:	6819      	ldr	r1, [r3, #0]
 8001c88:	f240 4319 	movw	r3, #1049	; 0x419
 8001c8c:	4299      	cmp	r1, r3
 8001c8e:	f200 80aa 	bhi.w	8001de6 <main+0x916>
 8001c92:	4b4d      	ldr	r3, [pc, #308]	; (8001dc8 <main+0x8f8>)
 8001c94:	6819      	ldr	r1, [r3, #0]
 8001c96:	f240 53aa 	movw	r3, #1450	; 0x5aa
 8001c9a:	4299      	cmp	r1, r3
 8001c9c:	f240 80a3 	bls.w	8001de6 <main+0x916>
 8001ca0:	2302      	movs	r3, #2
 8001ca2:	7013      	strb	r3, [r2, #0]
 8001ca4:	2300      	movs	r3, #0
 8001ca6:	4949      	ldr	r1, [pc, #292]	; (8001dcc <main+0x8fc>)
 8001ca8:	603b      	str	r3, [r7, #0]
 8001caa:	600b      	str	r3, [r1, #0]
 8001cac:	4948      	ldr	r1, [pc, #288]	; (8001dd0 <main+0x900>)
 8001cae:	607b      	str	r3, [r7, #4]
 8001cb0:	600b      	str	r3, [r1, #0]
 8001cb2:	4948      	ldr	r1, [pc, #288]	; (8001dd4 <main+0x904>)
 8001cb4:	60bb      	str	r3, [r7, #8]
 8001cb6:	f8cb 3000 	str.w	r3, [fp]
 8001cba:	f8cb 3004 	str.w	r3, [fp, #4]
 8001cbe:	f8cb 3008 	str.w	r3, [fp, #8]
 8001cc2:	600b      	str	r3, [r1, #0]
 8001cc4:	4b3d      	ldr	r3, [pc, #244]	; (8001dbc <main+0x8ec>)
 8001cc6:	6819      	ldr	r1, [r3, #0]
 8001cc8:	f240 4319 	movw	r3, #1049	; 0x419
 8001ccc:	4299      	cmp	r1, r3
 8001cce:	f200 808a 	bhi.w	8001de6 <main+0x916>
 8001cd2:	4b3d      	ldr	r3, [pc, #244]	; (8001dc8 <main+0x8f8>)
 8001cd4:	6819      	ldr	r1, [r3, #0]
 8001cd6:	f240 739e 	movw	r3, #1950	; 0x79e
 8001cda:	4299      	cmp	r1, r3
 8001cdc:	bf84      	itt	hi
 8001cde:	2300      	movhi	r3, #0
 8001ce0:	7013      	strbhi	r3, [r2, #0]
 8001ce2:	e080      	b.n	8001de6 <main+0x916>
 8001ce4:	f8da 0000 	ldr.w	r0, [sl]
 8001ce8:	f7fe fb9e 	bl	8000428 <__aeabi_f2d>
 8001cec:	a326      	add	r3, pc, #152	; (adr r3, 8001d88 <main+0x8b8>)
 8001cee:	e9d3 2300 	ldrd	r2, r3, [r3]
 8001cf2:	f7fe fbf1 	bl	80004d8 <__aeabi_dmul>
 8001cf6:	4604      	mov	r4, r0
 8001cf8:	6838      	ldr	r0, [r7, #0]
 8001cfa:	460d      	mov	r5, r1
 8001cfc:	f7fe fb94 	bl	8000428 <__aeabi_f2d>
 8001d00:	a323      	add	r3, pc, #140	; (adr r3, 8001d90 <main+0x8c0>)
 8001d02:	e9d3 2300 	ldrd	r2, r3, [r3]
 8001d06:	f7fe fbe7 	bl	80004d8 <__aeabi_dmul>
 8001d0a:	4602      	mov	r2, r0
 8001d0c:	460b      	mov	r3, r1
 8001d0e:	4620      	mov	r0, r4
 8001d10:	4629      	mov	r1, r5
 8001d12:	f7fe fa2b 	bl	800016c <__adddf3>
 8001d16:	f7fe feb7 	bl	8000a88 <__aeabi_d2f>
 8001d1a:	f8ca 0000 	str.w	r0, [sl]
 8001d1e:	f8da 0004 	ldr.w	r0, [sl, #4]
 8001d22:	f7fe fb81 	bl	8000428 <__aeabi_f2d>
 8001d26:	a318      	add	r3, pc, #96	; (adr r3, 8001d88 <main+0x8b8>)
 8001d28:	e9d3 2300 	ldrd	r2, r3, [r3]
 8001d2c:	f7fe fbd4 	bl	80004d8 <__aeabi_dmul>
 8001d30:	4604      	mov	r4, r0
 8001d32:	4630      	mov	r0, r6
 8001d34:	460d      	mov	r5, r1
 8001d36:	f7fe fb77 	bl	8000428 <__aeabi_f2d>
 8001d3a:	a315      	add	r3, pc, #84	; (adr r3, 8001d90 <main+0x8c0>)
 8001d3c:	e9d3 2300 	ldrd	r2, r3, [r3]
 8001d40:	f7fe fbca 	bl	80004d8 <__aeabi_dmul>
 8001d44:	4602      	mov	r2, r0
 8001d46:	460b      	mov	r3, r1
 8001d48:	4620      	mov	r0, r4
 8001d4a:	4629      	mov	r1, r5
 8001d4c:	f7fe fa0e 	bl	800016c <__adddf3>
 8001d50:	f7fe fe9a 	bl	8000a88 <__aeabi_d2f>
 8001d54:	f8ca 0004 	str.w	r0, [sl, #4]
 8001d58:	e677      	b.n	8001a4a <main+0x57a>
 8001d5a:	bf00      	nop
 8001d5c:	f3af 8000 	nop.w
 8001d60:	cccccccd 	.word	0xcccccccd
 8001d64:	3feccccc 	.word	0x3feccccc
 8001d68:	9999999a 	.word	0x9999999a
 8001d6c:	3fb99999 	.word	0x3fb99999
 8001d70:	00000000 	.word	0x00000000
 8001d74:	40506000 	.word	0x40506000
 8001d78:	33333333 	.word	0x33333333
 8001d7c:	3fd33333 	.word	0x3fd33333
 8001d80:	66666666 	.word	0x66666666
 8001d84:	3fe66666 	.word	0x3fe66666
 8001d88:	3d70a3d7 	.word	0x3d70a3d7
 8001d8c:	3fefd70a 	.word	0x3fefd70a
 8001d90:	47ae147b 	.word	0x47ae147b
 8001d94:	3f747ae1 	.word	0x3f747ae1
 8001d98:	2000023e 	.word	0x2000023e
 8001d9c:	41700000 	.word	0x41700000
 8001da0:	20000424 	.word	0x20000424
 8001da4:	20000438 	.word	0x20000438
 8001da8:	20000428 	.word	0x20000428
 8001dac:	2000043c 	.word	0x2000043c
 8001db0:	2000042c 	.word	0x2000042c
 8001db4:	20000254 	.word	0x20000254
 8001db8:	2000023c 	.word	0x2000023c
 8001dbc:	20000294 	.word	0x20000294
 8001dc0:	2000029c 	.word	0x2000029c
 8001dc4:	20000250 	.word	0x20000250
 8001dc8:	20000298 	.word	0x20000298
 8001dcc:	20000410 	.word	0x20000410
 8001dd0:	2000040c 	.word	0x2000040c
 8001dd4:	20000420 	.word	0x20000420
 8001dd8:	7813      	ldrb	r3, [r2, #0]
 8001dda:	2b01      	cmp	r3, #1
 8001ddc:	f43f af52 	beq.w	8001c84 <main+0x7b4>
 8001de0:	2b02      	cmp	r3, #2
 8001de2:	f43f af6f 	beq.w	8001cc4 <main+0x7f4>
 8001de6:	f240 53f5 	movw	r3, #1525	; 0x5f5
 8001dea:	49a9      	ldr	r1, [pc, #676]	; (8002090 <main+0xbc0>)
 8001dec:	4ca9      	ldr	r4, [pc, #676]	; (8002094 <main+0xbc4>)
 8001dee:	680a      	ldr	r2, [r1, #0]
 8001df0:	429a      	cmp	r2, r3
 8001df2:	f240 827a 	bls.w	80022ea <main+0xe1a>
 8001df6:	6808      	ldr	r0, [r1, #0]
 8001df8:	f2a0 50f5 	subw	r0, r0, #1525	; 0x5f5
 8001dfc:	f7fe ff4a 	bl	8000c94 <__aeabi_ui2f>
 8001e00:	6020      	str	r0, [r4, #0]
 8001e02:	4631      	mov	r1, r6
 8001e04:	6820      	ldr	r0, [r4, #0]
 8001e06:	f7fe fe93 	bl	8000b30 <__aeabi_fsub>
 8001e0a:	49a3      	ldr	r1, [pc, #652]	; (8002098 <main+0xbc8>)
 8001e0c:	f7ff f84e 	bl	8000eac <__aeabi_fdiv>
 8001e10:	f240 52f5 	movw	r2, #1525	; 0x5f5
 8001e14:	4ba1      	ldr	r3, [pc, #644]	; (800209c <main+0xbcc>)
 8001e16:	4606      	mov	r6, r0
 8001e18:	6819      	ldr	r1, [r3, #0]
 8001e1a:	6020      	str	r0, [r4, #0]
 8001e1c:	4291      	cmp	r1, r2
 8001e1e:	f240 826f 	bls.w	8002300 <main+0xe30>
 8001e22:	6818      	ldr	r0, [r3, #0]
 8001e24:	f2a0 50f5 	subw	r0, r0, #1525	; 0x5f5
 8001e28:	f7fe ff34 	bl	8000c94 <__aeabi_ui2f>
 8001e2c:	6060      	str	r0, [r4, #4]
 8001e2e:	4651      	mov	r1, sl
 8001e30:	6860      	ldr	r0, [r4, #4]
 8001e32:	f7fe fe7d 	bl	8000b30 <__aeabi_fsub>
 8001e36:	4998      	ldr	r1, [pc, #608]	; (8002098 <main+0xbc8>)
 8001e38:	f7ff f838 	bl	8000eac <__aeabi_fdiv>
 8001e3c:	4b98      	ldr	r3, [pc, #608]	; (80020a0 <main+0xbd0>)
 8001e3e:	4681      	mov	r9, r0
 8001e40:	681a      	ldr	r2, [r3, #0]
 8001e42:	f240 437e 	movw	r3, #1150	; 0x47e
 8001e46:	429a      	cmp	r2, r3
 8001e48:	6060      	str	r0, [r4, #4]
 8001e4a:	d912      	bls.n	8001e72 <main+0x9a2>
 8001e4c:	f240 620e 	movw	r2, #1550	; 0x60e
 8001e50:	4b94      	ldr	r3, [pc, #592]	; (80020a4 <main+0xbd4>)
 8001e52:	6819      	ldr	r1, [r3, #0]
 8001e54:	4291      	cmp	r1, r2
 8001e56:	f240 825d 	bls.w	8002314 <main+0xe44>
 8001e5a:	6818      	ldr	r0, [r3, #0]
 8001e5c:	f2a0 600e 	subw	r0, r0, #1550	; 0x60e
 8001e60:	f7fe fac0 	bl	80003e4 <__aeabi_ui2d>
 8001e64:	2200      	movs	r2, #0
 8001e66:	4b90      	ldr	r3, [pc, #576]	; (80020a8 <main+0xbd8>)
 8001e68:	f7fe fc60 	bl	800072c <__aeabi_ddiv>
 8001e6c:	f7fe fe0c 	bl	8000a88 <__aeabi_d2f>
 8001e70:	60a0      	str	r0, [r4, #8]
 8001e72:	4b88      	ldr	r3, [pc, #544]	; (8002094 <main+0xbc4>)
 8001e74:	4641      	mov	r1, r8
 8001e76:	6898      	ldr	r0, [r3, #8]
 8001e78:	f7fe fe5a 	bl	8000b30 <__aeabi_fsub>
 8001e7c:	f8df 822c 	ldr.w	r8, [pc, #556]	; 80020ac <main+0xbdc>
 8001e80:	4629      	mov	r1, r5
 8001e82:	f8c8 0008 	str.w	r0, [r8, #8]
 8001e86:	9000      	str	r0, [sp, #0]
 8001e88:	4648      	mov	r0, r9
 8001e8a:	f7fe fe51 	bl	8000b30 <__aeabi_fsub>
 8001e8e:	9901      	ldr	r1, [sp, #4]
 8001e90:	f8c8 0004 	str.w	r0, [r8, #4]
 8001e94:	4604      	mov	r4, r0
 8001e96:	4630      	mov	r0, r6
 8001e98:	f7fe fe4a 	bl	8000b30 <__aeabi_fsub>
 8001e9c:	68b9      	ldr	r1, [r7, #8]
 8001e9e:	f8c8 0000 	str.w	r0, [r8]
 8001ea2:	4605      	mov	r5, r0
 8001ea4:	9800      	ldr	r0, [sp, #0]
 8001ea6:	f7fe fe45 	bl	8000b34 <__addsf3>
 8001eaa:	6879      	ldr	r1, [r7, #4]
 8001eac:	60b8      	str	r0, [r7, #8]
 8001eae:	4680      	mov	r8, r0
 8001eb0:	4620      	mov	r0, r4
 8001eb2:	f7fe fe3f 	bl	8000b34 <__addsf3>
 8001eb6:	6839      	ldr	r1, [r7, #0]
 8001eb8:	6078      	str	r0, [r7, #4]
 8001eba:	4681      	mov	r9, r0
 8001ebc:	4628      	mov	r0, r5
 8001ebe:	f7fe fe39 	bl	8000b34 <__addsf3>
 8001ec2:	f8df a1ec 	ldr.w	sl, [pc, #492]	; 80020b0 <main+0xbe0>
 8001ec6:	6038      	str	r0, [r7, #0]
 8001ec8:	f8da 6000 	ldr.w	r6, [sl]
 8001ecc:	9002      	str	r0, [sp, #8]
 8001ece:	4631      	mov	r1, r6
 8001ed0:	4878      	ldr	r0, [pc, #480]	; (80020b4 <main+0xbe4>)
 8001ed2:	f7fe ffeb 	bl	8000eac <__aeabi_fdiv>
 8001ed6:	9b02      	ldr	r3, [sp, #8]
 8001ed8:	4601      	mov	r1, r0
 8001eda:	9001      	str	r0, [sp, #4]
 8001edc:	4618      	mov	r0, r3
 8001ede:	f7ff f8cf 	bl	8001080 <__aeabi_fcmplt>
 8001ee2:	b108      	cbz	r0, 8001ee8 <main+0xa18>
 8001ee4:	9901      	ldr	r1, [sp, #4]
 8001ee6:	6039      	str	r1, [r7, #0]
 8001ee8:	4631      	mov	r1, r6
 8001eea:	4873      	ldr	r0, [pc, #460]	; (80020b8 <main+0xbe8>)
 8001eec:	f7fe ffde 	bl	8000eac <__aeabi_fdiv>
 8001ef0:	4601      	mov	r1, r0
 8001ef2:	9001      	str	r0, [sp, #4]
 8001ef4:	6838      	ldr	r0, [r7, #0]
 8001ef6:	f7ff f8e1 	bl	80010bc <__aeabi_fcmpgt>
 8001efa:	b108      	cbz	r0, 8001f00 <main+0xa30>
 8001efc:	9901      	ldr	r1, [sp, #4]
 8001efe:	6039      	str	r1, [r7, #0]
 8001f00:	f8da a004 	ldr.w	sl, [sl, #4]
 8001f04:	486b      	ldr	r0, [pc, #428]	; (80020b4 <main+0xbe4>)
 8001f06:	4651      	mov	r1, sl
 8001f08:	f7fe ffd0 	bl	8000eac <__aeabi_fdiv>
 8001f0c:	4601      	mov	r1, r0
 8001f0e:	9001      	str	r0, [sp, #4]
 8001f10:	4648      	mov	r0, r9
 8001f12:	f7ff f8b5 	bl	8001080 <__aeabi_fcmplt>
 8001f16:	b108      	cbz	r0, 8001f1c <main+0xa4c>
 8001f18:	9901      	ldr	r1, [sp, #4]
 8001f1a:	6079      	str	r1, [r7, #4]
 8001f1c:	4651      	mov	r1, sl
 8001f1e:	4866      	ldr	r0, [pc, #408]	; (80020b8 <main+0xbe8>)
 8001f20:	f7fe ffc4 	bl	8000eac <__aeabi_fdiv>
 8001f24:	4681      	mov	r9, r0
 8001f26:	4601      	mov	r1, r0
 8001f28:	6878      	ldr	r0, [r7, #4]
 8001f2a:	f7ff f8c7 	bl	80010bc <__aeabi_fcmpgt>
 8001f2e:	b108      	cbz	r0, 8001f34 <main+0xa64>
 8001f30:	f8c7 9004 	str.w	r9, [r7, #4]
 8001f34:	4b5e      	ldr	r3, [pc, #376]	; (80020b0 <main+0xbe0>)
 8001f36:	485f      	ldr	r0, [pc, #380]	; (80020b4 <main+0xbe4>)
 8001f38:	f8d3 9008 	ldr.w	r9, [r3, #8]
 8001f3c:	4649      	mov	r1, r9
 8001f3e:	f7fe ffb5 	bl	8000eac <__aeabi_fdiv>
 8001f42:	4601      	mov	r1, r0
 8001f44:	9001      	str	r0, [sp, #4]
 8001f46:	4640      	mov	r0, r8
 8001f48:	f7ff f89a 	bl	8001080 <__aeabi_fcmplt>
 8001f4c:	b108      	cbz	r0, 8001f52 <main+0xa82>
 8001f4e:	9901      	ldr	r1, [sp, #4]
 8001f50:	60b9      	str	r1, [r7, #8]
 8001f52:	4649      	mov	r1, r9
 8001f54:	4858      	ldr	r0, [pc, #352]	; (80020b8 <main+0xbe8>)
 8001f56:	f7fe ffa9 	bl	8000eac <__aeabi_fdiv>
 8001f5a:	4680      	mov	r8, r0
 8001f5c:	4601      	mov	r1, r0
 8001f5e:	68b8      	ldr	r0, [r7, #8]
 8001f60:	f7ff f8ac 	bl	80010bc <__aeabi_fcmpgt>
 8001f64:	b108      	cbz	r0, 8001f6a <main+0xa9a>
 8001f66:	f8c7 8008 	str.w	r8, [r7, #8]
 8001f6a:	f8db 1008 	ldr.w	r1, [fp, #8]
 8001f6e:	9800      	ldr	r0, [sp, #0]
 8001f70:	f7fe fdde 	bl	8000b30 <__aeabi_fsub>
 8001f74:	f8df 8144 	ldr.w	r8, [pc, #324]	; 80020bc <main+0xbec>
 8001f78:	f8db 1004 	ldr.w	r1, [fp, #4]
 8001f7c:	9002      	str	r0, [sp, #8]
 8001f7e:	f8c8 0008 	str.w	r0, [r8, #8]
 8001f82:	4620      	mov	r0, r4
 8001f84:	f7fe fdd4 	bl	8000b30 <__aeabi_fsub>
 8001f88:	f8db 1000 	ldr.w	r1, [fp]
 8001f8c:	f8c8 0004 	str.w	r0, [r8, #4]
 8001f90:	4607      	mov	r7, r0
 8001f92:	4628      	mov	r0, r5
 8001f94:	f7fe fdcc 	bl	8000b30 <__aeabi_fsub>
 8001f98:	9b00      	ldr	r3, [sp, #0]
 8001f9a:	f8c8 0000 	str.w	r0, [r8]
 8001f9e:	f8cb 3008 	str.w	r3, [fp, #8]
 8001fa2:	4b3f      	ldr	r3, [pc, #252]	; (80020a0 <main+0xbd0>)
 8001fa4:	9003      	str	r0, [sp, #12]
 8001fa6:	681b      	ldr	r3, [r3, #0]
 8001fa8:	f8cb 4004 	str.w	r4, [fp, #4]
 8001fac:	b21b      	sxth	r3, r3
 8001fae:	9301      	str	r3, [sp, #4]
 8001fb0:	9a01      	ldr	r2, [sp, #4]
 8001fb2:	4b43      	ldr	r3, [pc, #268]	; (80020c0 <main+0xbf0>)
 8001fb4:	f8cb 5000 	str.w	r5, [fp]
 8001fb8:	801a      	strh	r2, [r3, #0]
 8001fba:	f240 437e 	movw	r3, #1150	; 0x47e
 8001fbe:	429a      	cmp	r2, r3
 8001fc0:	f340 80cb 	ble.w	800215a <main+0xc8a>
 8001fc4:	f8df b0fc 	ldr.w	fp, [pc, #252]	; 80020c4 <main+0xbf4>
 8001fc8:	4628      	mov	r0, r5
 8001fca:	f8db 1000 	ldr.w	r1, [fp]
 8001fce:	f7fe feb9 	bl	8000d44 <__aeabi_fmul>
 8001fd2:	4b3d      	ldr	r3, [pc, #244]	; (80020c8 <main+0xbf8>)
 8001fd4:	4605      	mov	r5, r0
 8001fd6:	6819      	ldr	r1, [r3, #0]
 8001fd8:	4630      	mov	r0, r6
 8001fda:	f7fe feb3 	bl	8000d44 <__aeabi_fmul>
 8001fde:	4601      	mov	r1, r0
 8001fe0:	4628      	mov	r0, r5
 8001fe2:	f7fe fda7 	bl	8000b34 <__addsf3>
 8001fe6:	f8df 80e4 	ldr.w	r8, [pc, #228]	; 80020cc <main+0xbfc>
 8001fea:	9a03      	ldr	r2, [sp, #12]
 8001fec:	f8d8 1000 	ldr.w	r1, [r8]
 8001ff0:	4605      	mov	r5, r0
 8001ff2:	4610      	mov	r0, r2
 8001ff4:	f7fe fea6 	bl	8000d44 <__aeabi_fmul>
 8001ff8:	4601      	mov	r1, r0
 8001ffa:	4628      	mov	r0, r5
 8001ffc:	f7fe fd9a 	bl	8000b34 <__addsf3>
 8002000:	4d33      	ldr	r5, [pc, #204]	; (80020d0 <main+0xc00>)
 8002002:	f8db 1004 	ldr.w	r1, [fp, #4]
 8002006:	4606      	mov	r6, r0
 8002008:	6028      	str	r0, [r5, #0]
 800200a:	4620      	mov	r0, r4
 800200c:	f7fe fe9a 	bl	8000d44 <__aeabi_fmul>
 8002010:	4b2d      	ldr	r3, [pc, #180]	; (80020c8 <main+0xbf8>)
 8002012:	4604      	mov	r4, r0
 8002014:	6859      	ldr	r1, [r3, #4]
 8002016:	4650      	mov	r0, sl
 8002018:	f7fe fe94 	bl	8000d44 <__aeabi_fmul>
 800201c:	4601      	mov	r1, r0
 800201e:	4620      	mov	r0, r4
 8002020:	f7fe fd88 	bl	8000b34 <__addsf3>
 8002024:	f8d8 1004 	ldr.w	r1, [r8, #4]
 8002028:	4604      	mov	r4, r0
 800202a:	4638      	mov	r0, r7
 800202c:	f7fe fe8a 	bl	8000d44 <__aeabi_fmul>
 8002030:	4601      	mov	r1, r0
 8002032:	4620      	mov	r0, r4
 8002034:	f7fe fd7e 	bl	8000b34 <__addsf3>
 8002038:	4c26      	ldr	r4, [pc, #152]	; (80020d4 <main+0xc04>)
 800203a:	f8db 1008 	ldr.w	r1, [fp, #8]
 800203e:	6020      	str	r0, [r4, #0]
 8002040:	4607      	mov	r7, r0
 8002042:	9800      	ldr	r0, [sp, #0]
 8002044:	f7fe fe7e 	bl	8000d44 <__aeabi_fmul>
 8002048:	4b1f      	ldr	r3, [pc, #124]	; (80020c8 <main+0xbf8>)
 800204a:	4682      	mov	sl, r0
 800204c:	6899      	ldr	r1, [r3, #8]
 800204e:	4648      	mov	r0, r9
 8002050:	f7fe fe78 	bl	8000d44 <__aeabi_fmul>
 8002054:	4601      	mov	r1, r0
 8002056:	4650      	mov	r0, sl
 8002058:	f7fe fd6c 	bl	8000b34 <__addsf3>
 800205c:	f8d8 1008 	ldr.w	r1, [r8, #8]
 8002060:	4681      	mov	r9, r0
 8002062:	9802      	ldr	r0, [sp, #8]
 8002064:	f7fe fe6e 	bl	8000d44 <__aeabi_fmul>
 8002068:	4601      	mov	r1, r0
 800206a:	4648      	mov	r0, r9
 800206c:	f7fe fd62 	bl	8000b34 <__addsf3>
 8002070:	f8df a064 	ldr.w	sl, [pc, #100]	; 80020d8 <main+0xc08>
 8002074:	f8df 8064 	ldr.w	r8, [pc, #100]	; 80020dc <main+0xc0c>
 8002078:	f8da b000 	ldr.w	fp, [sl]
 800207c:	f8c8 0000 	str.w	r0, [r8]
 8002080:	4681      	mov	r9, r0
 8002082:	4658      	mov	r0, fp
 8002084:	f7fe fe0a 	bl	8000c9c <__aeabi_i2f>
 8002088:	4601      	mov	r1, r0
 800208a:	9000      	str	r0, [sp, #0]
 800208c:	e028      	b.n	80020e0 <main+0xc10>
 800208e:	bf00      	nop
 8002090:	2000028c 	.word	0x2000028c
 8002094:	20000414 	.word	0x20000414
 8002098:	40400000 	.word	0x40400000
 800209c:	20000290 	.word	0x20000290
 80020a0:	20000294 	.word	0x20000294
 80020a4:	20000298 	.word	0x20000298
 80020a8:	40080000 	.word	0x40080000
 80020ac:	200002a8 	.word	0x200002a8
 80020b0:	2000000c 	.word	0x2000000c
 80020b4:	c3c80000 	.word	0xc3c80000
 80020b8:	43c80000 	.word	0x43c80000
 80020bc:	20000280 	.word	0x20000280
 80020c0:	20000442 	.word	0x20000442
 80020c4:	20000018 	.word	0x20000018
 80020c8:	2000029c 	.word	0x2000029c
 80020cc:	20000000 	.word	0x20000000
 80020d0:	20000410 	.word	0x20000410
 80020d4:	2000040c 	.word	0x2000040c
 80020d8:	20000030 	.word	0x20000030
 80020dc:	20000420 	.word	0x20000420
 80020e0:	4630      	mov	r0, r6
 80020e2:	f7fe ffeb 	bl	80010bc <__aeabi_fcmpgt>
 80020e6:	b108      	cbz	r0, 80020ec <main+0xc1c>
 80020e8:	9900      	ldr	r1, [sp, #0]
 80020ea:	6029      	str	r1, [r5, #0]
 80020ec:	f1cb 0000 	rsb	r0, fp, #0
 80020f0:	f7fe fdd4 	bl	8000c9c <__aeabi_i2f>
 80020f4:	6829      	ldr	r1, [r5, #0]
 80020f6:	4606      	mov	r6, r0
 80020f8:	f7fe ffe0 	bl	80010bc <__aeabi_fcmpgt>
 80020fc:	b100      	cbz	r0, 8002100 <main+0xc30>
 80020fe:	602e      	str	r6, [r5, #0]
 8002100:	f8da 6004 	ldr.w	r6, [sl, #4]
 8002104:	4630      	mov	r0, r6
 8002106:	f7fe fdc9 	bl	8000c9c <__aeabi_i2f>
 800210a:	4605      	mov	r5, r0
 800210c:	4601      	mov	r1, r0
 800210e:	4638      	mov	r0, r7
 8002110:	f7fe ffd4 	bl	80010bc <__aeabi_fcmpgt>
 8002114:	b100      	cbz	r0, 8002118 <main+0xc48>
 8002116:	6025      	str	r5, [r4, #0]
 8002118:	4270      	negs	r0, r6
 800211a:	f7fe fdbf 	bl	8000c9c <__aeabi_i2f>
 800211e:	6821      	ldr	r1, [r4, #0]
 8002120:	4605      	mov	r5, r0
 8002122:	f7fe ffcb 	bl	80010bc <__aeabi_fcmpgt>
 8002126:	b100      	cbz	r0, 800212a <main+0xc5a>
 8002128:	6025      	str	r5, [r4, #0]
 800212a:	f8da 5008 	ldr.w	r5, [sl, #8]
 800212e:	4628      	mov	r0, r5
 8002130:	f7fe fdb4 	bl	8000c9c <__aeabi_i2f>
 8002134:	4604      	mov	r4, r0
 8002136:	4601      	mov	r1, r0
 8002138:	4648      	mov	r0, r9
 800213a:	f7fe ffbf 	bl	80010bc <__aeabi_fcmpgt>
 800213e:	b108      	cbz	r0, 8002144 <main+0xc74>
 8002140:	f8c8 4000 	str.w	r4, [r8]
 8002144:	4268      	negs	r0, r5
 8002146:	f7fe fda9 	bl	8000c9c <__aeabi_i2f>
 800214a:	f8d8 1000 	ldr.w	r1, [r8]
 800214e:	4604      	mov	r4, r0
 8002150:	f7fe ffb4 	bl	80010bc <__aeabi_fcmpgt>
 8002154:	b108      	cbz	r0, 800215a <main+0xc8a>
 8002156:	f8c8 4000 	str.w	r4, [r8]
 800215a:	4b76      	ldr	r3, [pc, #472]	; (8002334 <main+0xe64>)
 800215c:	4f76      	ldr	r7, [pc, #472]	; (8002338 <main+0xe68>)
 800215e:	781b      	ldrb	r3, [r3, #0]
 8002160:	4d76      	ldr	r5, [pc, #472]	; (800233c <main+0xe6c>)
 8002162:	2b02      	cmp	r3, #2
 8002164:	4c76      	ldr	r4, [pc, #472]	; (8002340 <main+0xe70>)
 8002166:	4e77      	ldr	r6, [pc, #476]	; (8002344 <main+0xe74>)
 8002168:	f040 80de 	bne.w	8002328 <main+0xe58>
 800216c:	9b01      	ldr	r3, [sp, #4]
 800216e:	f5b3 6fe1 	cmp.w	r3, #1800	; 0x708
 8002172:	bfc8      	it	gt
 8002174:	f44f 62e1 	movgt.w	r2, #1800	; 0x708
 8002178:	4b73      	ldr	r3, [pc, #460]	; (8002348 <main+0xe78>)
 800217a:	bfc8      	it	gt
 800217c:	801a      	strhgt	r2, [r3, #0]
 800217e:	f9b3 0000 	ldrsh.w	r0, [r3]
 8002182:	f7fe fd8b 	bl	8000c9c <__aeabi_i2f>
 8002186:	4b71      	ldr	r3, [pc, #452]	; (800234c <main+0xe7c>)
 8002188:	4680      	mov	r8, r0
 800218a:	681b      	ldr	r3, [r3, #0]
 800218c:	4619      	mov	r1, r3
 800218e:	9300      	str	r3, [sp, #0]
 8002190:	f7fe fcd0 	bl	8000b34 <__addsf3>
 8002194:	4a6e      	ldr	r2, [pc, #440]	; (8002350 <main+0xe80>)
 8002196:	496f      	ldr	r1, [pc, #444]	; (8002354 <main+0xe84>)
 8002198:	f8d2 a000 	ldr.w	sl, [r2]
 800219c:	f8d1 b000 	ldr.w	fp, [r1]
 80021a0:	4651      	mov	r1, sl
 80021a2:	4681      	mov	r9, r0
 80021a4:	f7fe fcc4 	bl	8000b30 <__aeabi_fsub>
 80021a8:	4659      	mov	r1, fp
 80021aa:	f7fe fcc1 	bl	8000b30 <__aeabi_fsub>
 80021ae:	f7fe ff8f 	bl	80010d0 <__aeabi_f2iz>
 80021b2:	b202      	sxth	r2, r0
 80021b4:	803a      	strh	r2, [r7, #0]
 80021b6:	4651      	mov	r1, sl
 80021b8:	4648      	mov	r0, r9
 80021ba:	9201      	str	r2, [sp, #4]
 80021bc:	f7fe fcba 	bl	8000b34 <__addsf3>
 80021c0:	4659      	mov	r1, fp
 80021c2:	f7fe fcb7 	bl	8000b34 <__addsf3>
 80021c6:	f7fe ff83 	bl	80010d0 <__aeabi_f2iz>
 80021ca:	9b00      	ldr	r3, [sp, #0]
 80021cc:	fa0f f980 	sxth.w	r9, r0
 80021d0:	4619      	mov	r1, r3
 80021d2:	4640      	mov	r0, r8
 80021d4:	f8a5 9000 	strh.w	r9, [r5]
 80021d8:	f7fe fcaa 	bl	8000b30 <__aeabi_fsub>
 80021dc:	4601      	mov	r1, r0
 80021de:	9000      	str	r0, [sp, #0]
 80021e0:	4650      	mov	r0, sl
 80021e2:	f7fe fca7 	bl	8000b34 <__addsf3>
 80021e6:	4659      	mov	r1, fp
 80021e8:	f7fe fca2 	bl	8000b30 <__aeabi_fsub>
 80021ec:	f7fe ff70 	bl	80010d0 <__aeabi_f2iz>
 80021f0:	9b00      	ldr	r3, [sp, #0]
 80021f2:	fa0f f880 	sxth.w	r8, r0
 80021f6:	4651      	mov	r1, sl
 80021f8:	4618      	mov	r0, r3
 80021fa:	f8a4 8000 	strh.w	r8, [r4]
 80021fe:	f7fe fc97 	bl	8000b30 <__aeabi_fsub>
 8002202:	4659      	mov	r1, fp
 8002204:	f7fe fc96 	bl	8000b34 <__addsf3>
 8002208:	f7fe ff62 	bl	80010d0 <__aeabi_f2iz>
 800220c:	9a01      	ldr	r2, [sp, #4]
 800220e:	b200      	sxth	r0, r0
 8002210:	f5b2 6f96 	cmp.w	r2, #1200	; 0x4b0
 8002214:	bfbc      	itt	lt
 8002216:	f44f 6396 	movlt.w	r3, #1200	; 0x4b0
 800221a:	803b      	strhlt	r3, [r7, #0]
 800221c:	f5b9 6f96 	cmp.w	r9, #1200	; 0x4b0
 8002220:	bfbc      	itt	lt
 8002222:	f44f 6396 	movlt.w	r3, #1200	; 0x4b0
 8002226:	802b      	strhlt	r3, [r5, #0]
 8002228:	f5b8 6f96 	cmp.w	r8, #1200	; 0x4b0
 800222c:	bfbc      	itt	lt
 800222e:	f44f 6396 	movlt.w	r3, #1200	; 0x4b0
 8002232:	8023      	strhlt	r3, [r4, #0]
 8002234:	f5b0 6f96 	cmp.w	r0, #1200	; 0x4b0
 8002238:	bfb8      	it	lt
 800223a:	f44f 6396 	movlt.w	r3, #1200	; 0x4b0
 800223e:	8030      	strh	r0, [r6, #0]
 8002240:	bfb8      	it	lt
 8002242:	8033      	strhlt	r3, [r6, #0]
 8002244:	f9b7 3000 	ldrsh.w	r3, [r7]
 8002248:	f5b3 6ffa 	cmp.w	r3, #2000	; 0x7d0
 800224c:	bfc4      	itt	gt
 800224e:	f44f 63fa 	movgt.w	r3, #2000	; 0x7d0
 8002252:	803b      	strhgt	r3, [r7, #0]
 8002254:	f9b5 3000 	ldrsh.w	r3, [r5]
 8002258:	f5b3 6ffa 	cmp.w	r3, #2000	; 0x7d0
 800225c:	bfc4      	itt	gt
 800225e:	f44f 63fa 	movgt.w	r3, #2000	; 0x7d0
 8002262:	802b      	strhgt	r3, [r5, #0]
 8002264:	f9b4 3000 	ldrsh.w	r3, [r4]
 8002268:	f5b3 6ffa 	cmp.w	r3, #2000	; 0x7d0
 800226c:	bfc4      	itt	gt
 800226e:	f44f 63fa 	movgt.w	r3, #2000	; 0x7d0
 8002272:	8023      	strhgt	r3, [r4, #0]
 8002274:	f9b6 3000 	ldrsh.w	r3, [r6]
 8002278:	f5b3 6ffa 	cmp.w	r3, #2000	; 0x7d0
 800227c:	dd02      	ble.n	8002284 <main+0xdb4>
 800227e:	f44f 63fa 	mov.w	r3, #2000	; 0x7d0
 8002282:	8033      	strh	r3, [r6, #0]
 8002284:	f8df 80d0 	ldr.w	r8, [pc, #208]	; 8002358 <main+0xe88>
 8002288:	f9b7 2000 	ldrsh.w	r2, [r7]
 800228c:	f8d8 3000 	ldr.w	r3, [r8]
 8002290:	63da      	str	r2, [r3, #60]	; 0x3c
 8002292:	f9b6 2000 	ldrsh.w	r2, [r6]
 8002296:	4e31      	ldr	r6, [pc, #196]	; (800235c <main+0xe8c>)
 8002298:	641a      	str	r2, [r3, #64]	; 0x40
 800229a:	6833      	ldr	r3, [r6, #0]
 800229c:	f9b5 2000 	ldrsh.w	r2, [r5]
 80022a0:	63da      	str	r2, [r3, #60]	; 0x3c
 80022a2:	f9b4 2000 	ldrsh.w	r2, [r4]
 80022a6:	4c2e      	ldr	r4, [pc, #184]	; (8002360 <main+0xe90>)
 80022a8:	641a      	str	r2, [r3, #64]	; 0x40
 80022aa:	f000 fa35 	bl	8002718 <HAL_GetTick>
 80022ae:	6823      	ldr	r3, [r4, #0]
 80022b0:	1ac0      	subs	r0, r0, r3
 80022b2:	2804      	cmp	r0, #4
 80022b4:	d90e      	bls.n	80022d4 <main+0xe04>
 80022b6:	2200      	movs	r2, #0
 80022b8:	f44f 5100 	mov.w	r1, #8192	; 0x2000
 80022bc:	4829      	ldr	r0, [pc, #164]	; (8002364 <main+0xe94>)
 80022be:	f000 fb83 	bl	80029c8 <HAL_GPIO_WritePin>
 80022c2:	f44f 737a 	mov.w	r3, #1000	; 0x3e8
 80022c6:	f8d8 2000 	ldr.w	r2, [r8]
 80022ca:	63d3      	str	r3, [r2, #60]	; 0x3c
 80022cc:	6413      	str	r3, [r2, #64]	; 0x40
 80022ce:	6832      	ldr	r2, [r6, #0]
 80022d0:	63d3      	str	r3, [r2, #60]	; 0x3c
 80022d2:	6413      	str	r3, [r2, #64]	; 0x40
 80022d4:	f000 fa20 	bl	8002718 <HAL_GetTick>
 80022d8:	6823      	ldr	r3, [r4, #0]
 80022da:	1ac0      	subs	r0, r0, r3
 80022dc:	2803      	cmp	r0, #3
 80022de:	d9f9      	bls.n	80022d4 <main+0xe04>
 80022e0:	f000 fa1a 	bl	8002718 <HAL_GetTick>
 80022e4:	6020      	str	r0, [r4, #0]
 80022e6:	f7ff bac1 	b.w	800186c <main+0x39c>
 80022ea:	f240 53d1 	movw	r3, #1489	; 0x5d1
 80022ee:	491e      	ldr	r1, [pc, #120]	; (8002368 <main+0xe98>)
 80022f0:	680a      	ldr	r2, [r1, #0]
 80022f2:	429a      	cmp	r2, r3
 80022f4:	f63f ad85 	bhi.w	8001e02 <main+0x932>
 80022f8:	6808      	ldr	r0, [r1, #0]
 80022fa:	f2a0 50d2 	subw	r0, r0, #1490	; 0x5d2
 80022fe:	e57d      	b.n	8001dfc <main+0x92c>
 8002300:	f240 52d1 	movw	r2, #1489	; 0x5d1
 8002304:	6819      	ldr	r1, [r3, #0]
 8002306:	4291      	cmp	r1, r2
 8002308:	f63f ad91 	bhi.w	8001e2e <main+0x95e>
 800230c:	6818      	ldr	r0, [r3, #0]
 800230e:	f2a0 50d2 	subw	r0, r0, #1490	; 0x5d2
 8002312:	e589      	b.n	8001e28 <main+0x958>
 8002314:	f240 5245 	movw	r2, #1349	; 0x545
 8002318:	6819      	ldr	r1, [r3, #0]
 800231a:	4291      	cmp	r1, r2
 800231c:	f63f ada9 	bhi.w	8001e72 <main+0x9a2>
 8002320:	6818      	ldr	r0, [r3, #0]
 8002322:	f2a0 5046 	subw	r0, r0, #1350	; 0x546
 8002326:	e59b      	b.n	8001e60 <main+0x990>
 8002328:	f44f 737a 	mov.w	r3, #1000	; 0x3e8
 800232c:	803b      	strh	r3, [r7, #0]
 800232e:	802b      	strh	r3, [r5, #0]
 8002330:	8023      	strh	r3, [r4, #0]
 8002332:	e7a6      	b.n	8002282 <main+0xdb2>
 8002334:	20000250 	.word	0x20000250
 8002338:	200002b4 	.word	0x200002b4
 800233c:	200002b6 	.word	0x200002b6
 8002340:	200002b8 	.word	0x200002b8
 8002344:	200002ba 	.word	0x200002ba
 8002348:	20000442 	.word	0x20000442
 800234c:	20000410 	.word	0x20000410
 8002350:	2000040c 	.word	0x2000040c
 8002354:	20000420 	.word	0x20000420
 8002358:	2000036c 	.word	0x2000036c
 800235c:	200003b4 	.word	0x200003b4
 8002360:	200003fc 	.word	0x200003fc
 8002364:	40011000 	.word	0x40011000
 8002368:	2000028c 	.word	0x2000028c

0800236c <HAL_MspInit>:
 800236c:	4b0e      	ldr	r3, [pc, #56]	; (80023a8 <HAL_MspInit+0x3c>)
 800236e:	b082      	sub	sp, #8
 8002370:	699a      	ldr	r2, [r3, #24]
 8002372:	f042 0201 	orr.w	r2, r2, #1
 8002376:	619a      	str	r2, [r3, #24]
 8002378:	699a      	ldr	r2, [r3, #24]
 800237a:	f002 0201 	and.w	r2, r2, #1
 800237e:	9200      	str	r2, [sp, #0]
 8002380:	9a00      	ldr	r2, [sp, #0]
 8002382:	69da      	ldr	r2, [r3, #28]
 8002384:	f042 5280 	orr.w	r2, r2, #268435456	; 0x10000000
 8002388:	61da      	str	r2, [r3, #28]
 800238a:	69db      	ldr	r3, [r3, #28]
 800238c:	4a07      	ldr	r2, [pc, #28]	; (80023ac <HAL_MspInit+0x40>)
 800238e:	f003 5380 	and.w	r3, r3, #268435456	; 0x10000000
 8002392:	9301      	str	r3, [sp, #4]
 8002394:	9b01      	ldr	r3, [sp, #4]
 8002396:	6853      	ldr	r3, [r2, #4]
 8002398:	f023 63e0 	bic.w	r3, r3, #117440512	; 0x7000000
 800239c:	f043 7300 	orr.w	r3, r3, #33554432	; 0x2000000
 80023a0:	6053      	str	r3, [r2, #4]
 80023a2:	b002      	add	sp, #8
 80023a4:	4770      	bx	lr
 80023a6:	bf00      	nop
 80023a8:	40021000 	.word	0x40021000
 80023ac:	40010000 	.word	0x40010000

080023b0 <HAL_I2C_MspInit>:
 80023b0:	b510      	push	{r4, lr}
 80023b2:	4604      	mov	r4, r0
 80023b4:	b086      	sub	sp, #24
 80023b6:	2210      	movs	r2, #16
 80023b8:	2100      	movs	r1, #0
 80023ba:	a802      	add	r0, sp, #8
 80023bc:	f001 fed2 	bl	8004164 <memset>
 80023c0:	6822      	ldr	r2, [r4, #0]
 80023c2:	4b11      	ldr	r3, [pc, #68]	; (8002408 <HAL_I2C_MspInit+0x58>)
 80023c4:	429a      	cmp	r2, r3
 80023c6:	d11c      	bne.n	8002402 <HAL_I2C_MspInit+0x52>
 80023c8:	4c10      	ldr	r4, [pc, #64]	; (800240c <HAL_I2C_MspInit+0x5c>)
 80023ca:	22c0      	movs	r2, #192	; 0xc0
 80023cc:	69a3      	ldr	r3, [r4, #24]
 80023ce:	4810      	ldr	r0, [pc, #64]	; (8002410 <HAL_I2C_MspInit+0x60>)
 80023d0:	f043 0308 	orr.w	r3, r3, #8
 80023d4:	61a3      	str	r3, [r4, #24]
 80023d6:	69a3      	ldr	r3, [r4, #24]
 80023d8:	a902      	add	r1, sp, #8
 80023da:	f003 0308 	and.w	r3, r3, #8
 80023de:	9300      	str	r3, [sp, #0]
 80023e0:	9b00      	ldr	r3, [sp, #0]
 80023e2:	2312      	movs	r3, #18
 80023e4:	e9cd 2302 	strd	r2, r3, [sp, #8]
 80023e8:	2303      	movs	r3, #3
 80023ea:	9305      	str	r3, [sp, #20]
 80023ec:	f000 fa12 	bl	8002814 <HAL_GPIO_Init>
 80023f0:	69e3      	ldr	r3, [r4, #28]
 80023f2:	f443 1300 	orr.w	r3, r3, #2097152	; 0x200000
 80023f6:	61e3      	str	r3, [r4, #28]
 80023f8:	69e3      	ldr	r3, [r4, #28]
 80023fa:	f403 1300 	and.w	r3, r3, #2097152	; 0x200000
 80023fe:	9301      	str	r3, [sp, #4]
 8002400:	9b01      	ldr	r3, [sp, #4]
 8002402:	b006      	add	sp, #24
 8002404:	bd10      	pop	{r4, pc}
 8002406:	bf00      	nop
 8002408:	40005400 	.word	0x40005400
 800240c:	40021000 	.word	0x40021000
 8002410:	40010c00 	.word	0x40010c00

08002414 <HAL_TIM_IC_MspInit>:
 8002414:	b510      	push	{r4, lr}
 8002416:	4604      	mov	r4, r0
 8002418:	b086      	sub	sp, #24
 800241a:	2210      	movs	r2, #16
 800241c:	2100      	movs	r1, #0
 800241e:	a802      	add	r0, sp, #8
 8002420:	f001 fea0 	bl	8004164 <memset>
 8002424:	6823      	ldr	r3, [r4, #0]
 8002426:	f1b3 4f80 	cmp.w	r3, #1073741824	; 0x40000000
 800242a:	d121      	bne.n	8002470 <HAL_TIM_IC_MspInit+0x5c>
 800242c:	f503 3304 	add.w	r3, r3, #135168	; 0x21000
 8002430:	69da      	ldr	r2, [r3, #28]
 8002432:	4810      	ldr	r0, [pc, #64]	; (8002474 <HAL_TIM_IC_MspInit+0x60>)
 8002434:	f042 0201 	orr.w	r2, r2, #1
 8002438:	61da      	str	r2, [r3, #28]
 800243a:	69da      	ldr	r2, [r3, #28]
 800243c:	a902      	add	r1, sp, #8
 800243e:	f002 0201 	and.w	r2, r2, #1
 8002442:	9200      	str	r2, [sp, #0]
 8002444:	9a00      	ldr	r2, [sp, #0]
 8002446:	699a      	ldr	r2, [r3, #24]
 8002448:	f042 0204 	orr.w	r2, r2, #4
 800244c:	619a      	str	r2, [r3, #24]
 800244e:	699b      	ldr	r3, [r3, #24]
 8002450:	f003 0304 	and.w	r3, r3, #4
 8002454:	9301      	str	r3, [sp, #4]
 8002456:	9b01      	ldr	r3, [sp, #4]
 8002458:	230f      	movs	r3, #15
 800245a:	9302      	str	r3, [sp, #8]
 800245c:	f000 f9da 	bl	8002814 <HAL_GPIO_Init>
 8002460:	2200      	movs	r2, #0
 8002462:	201c      	movs	r0, #28
 8002464:	4611      	mov	r1, r2
 8002466:	f000 f981 	bl	800276c <HAL_NVIC_SetPriority>
 800246a:	201c      	movs	r0, #28
 800246c:	f000 f9b0 	bl	80027d0 <HAL_NVIC_EnableIRQ>
 8002470:	b006      	add	sp, #24
 8002472:	bd10      	pop	{r4, pc}
 8002474:	40010800 	.word	0x40010800

08002478 <HAL_TIM_Base_MspInit>:
 8002478:	b507      	push	{r0, r1, r2, lr}
 800247a:	6803      	ldr	r3, [r0, #0]
 800247c:	4a17      	ldr	r2, [pc, #92]	; (80024dc <HAL_TIM_Base_MspInit+0x64>)
 800247e:	4293      	cmp	r3, r2
 8002480:	d114      	bne.n	80024ac <HAL_TIM_Base_MspInit+0x34>
 8002482:	4b17      	ldr	r3, [pc, #92]	; (80024e0 <HAL_TIM_Base_MspInit+0x68>)
 8002484:	201d      	movs	r0, #29
 8002486:	69da      	ldr	r2, [r3, #28]
 8002488:	f042 0202 	orr.w	r2, r2, #2
 800248c:	61da      	str	r2, [r3, #28]
 800248e:	2200      	movs	r2, #0
 8002490:	69db      	ldr	r3, [r3, #28]
 8002492:	4611      	mov	r1, r2
 8002494:	f003 0302 	and.w	r3, r3, #2
 8002498:	9300      	str	r3, [sp, #0]
 800249a:	9b00      	ldr	r3, [sp, #0]
 800249c:	f000 f966 	bl	800276c <HAL_NVIC_SetPriority>
 80024a0:	201d      	movs	r0, #29
 80024a2:	b003      	add	sp, #12
 80024a4:	f85d eb04 	ldr.w	lr, [sp], #4
 80024a8:	f000 b992 	b.w	80027d0 <HAL_NVIC_EnableIRQ>
 80024ac:	4a0d      	ldr	r2, [pc, #52]	; (80024e4 <HAL_TIM_Base_MspInit+0x6c>)
 80024ae:	4293      	cmp	r3, r2
 80024b0:	d110      	bne.n	80024d4 <HAL_TIM_Base_MspInit+0x5c>
 80024b2:	4b0b      	ldr	r3, [pc, #44]	; (80024e0 <HAL_TIM_Base_MspInit+0x68>)
 80024b4:	201e      	movs	r0, #30
 80024b6:	69da      	ldr	r2, [r3, #28]
 80024b8:	f042 0204 	orr.w	r2, r2, #4
 80024bc:	61da      	str	r2, [r3, #28]
 80024be:	2200      	movs	r2, #0
 80024c0:	69db      	ldr	r3, [r3, #28]
 80024c2:	4611      	mov	r1, r2
 80024c4:	f003 0304 	and.w	r3, r3, #4
 80024c8:	9301      	str	r3, [sp, #4]
 80024ca:	9b01      	ldr	r3, [sp, #4]
 80024cc:	f000 f94e 	bl	800276c <HAL_NVIC_SetPriority>
 80024d0:	201e      	movs	r0, #30
 80024d2:	e7e6      	b.n	80024a2 <HAL_TIM_Base_MspInit+0x2a>
 80024d4:	b003      	add	sp, #12
 80024d6:	f85d fb04 	ldr.w	pc, [sp], #4
 80024da:	bf00      	nop
 80024dc:	40000400 	.word	0x40000400
 80024e0:	40021000 	.word	0x40021000
 80024e4:	40000800 	.word	0x40000800

080024e8 <HAL_TIM_MspPostInit>:
 80024e8:	b510      	push	{r4, lr}
 80024ea:	4604      	mov	r4, r0
 80024ec:	b086      	sub	sp, #24
 80024ee:	2210      	movs	r2, #16
 80024f0:	2100      	movs	r1, #0
 80024f2:	a802      	add	r0, sp, #8
 80024f4:	f001 fe36 	bl	8004164 <memset>
 80024f8:	6823      	ldr	r3, [r4, #0]
 80024fa:	4a14      	ldr	r2, [pc, #80]	; (800254c <HAL_TIM_MspPostInit+0x64>)
 80024fc:	4293      	cmp	r3, r2
 80024fe:	d114      	bne.n	800252a <HAL_TIM_MspPostInit+0x42>
 8002500:	4b13      	ldr	r3, [pc, #76]	; (8002550 <HAL_TIM_MspPostInit+0x68>)
 8002502:	699a      	ldr	r2, [r3, #24]
 8002504:	f042 0208 	orr.w	r2, r2, #8
 8002508:	619a      	str	r2, [r3, #24]
 800250a:	699b      	ldr	r3, [r3, #24]
 800250c:	f003 0308 	and.w	r3, r3, #8
 8002510:	9300      	str	r3, [sp, #0]
 8002512:	9b00      	ldr	r3, [sp, #0]
 8002514:	2303      	movs	r3, #3
 8002516:	9302      	str	r3, [sp, #8]
 8002518:	2302      	movs	r3, #2
 800251a:	480e      	ldr	r0, [pc, #56]	; (8002554 <HAL_TIM_MspPostInit+0x6c>)
 800251c:	a902      	add	r1, sp, #8
 800251e:	9303      	str	r3, [sp, #12]
 8002520:	9305      	str	r3, [sp, #20]
 8002522:	f000 f977 	bl	8002814 <HAL_GPIO_Init>
 8002526:	b006      	add	sp, #24
 8002528:	bd10      	pop	{r4, pc}
 800252a:	4a0b      	ldr	r2, [pc, #44]	; (8002558 <HAL_TIM_MspPostInit+0x70>)
 800252c:	4293      	cmp	r3, r2
 800252e:	d1fa      	bne.n	8002526 <HAL_TIM_MspPostInit+0x3e>
 8002530:	4b07      	ldr	r3, [pc, #28]	; (8002550 <HAL_TIM_MspPostInit+0x68>)
 8002532:	699a      	ldr	r2, [r3, #24]
 8002534:	f042 0208 	orr.w	r2, r2, #8
 8002538:	619a      	str	r2, [r3, #24]
 800253a:	699b      	ldr	r3, [r3, #24]
 800253c:	f003 0308 	and.w	r3, r3, #8
 8002540:	9301      	str	r3, [sp, #4]
 8002542:	9b01      	ldr	r3, [sp, #4]
 8002544:	f44f 7340 	mov.w	r3, #768	; 0x300
 8002548:	e7e5      	b.n	8002516 <HAL_TIM_MspPostInit+0x2e>
 800254a:	bf00      	nop
 800254c:	40000400 	.word	0x40000400
 8002550:	40021000 	.word	0x40021000
 8002554:	40010c00 	.word	0x40010c00
 8002558:	40000800 	.word	0x40000800

0800255c <NMI_Handler>:
 800255c:	e7fe      	b.n	800255c <NMI_Handler>

0800255e <HardFault_Handler>:
 800255e:	e7fe      	b.n	800255e <HardFault_Handler>

08002560 <MemManage_Handler>:
 8002560:	e7fe      	b.n	8002560 <MemManage_Handler>

08002562 <BusFault_Handler>:
 8002562:	e7fe      	b.n	8002562 <BusFault_Handler>

08002564 <UsageFault_Handler>:
 8002564:	e7fe      	b.n	8002564 <UsageFault_Handler>

08002566 <SVC_Handler>:
 8002566:	4770      	bx	lr

08002568 <DebugMon_Handler>:
 8002568:	4770      	bx	lr

0800256a <PendSV_Handler>:
 800256a:	4770      	bx	lr

0800256c <SysTick_Handler>:
 800256c:	f000 b8c8 	b.w	8002700 <HAL_IncTick>

08002570 <TIM2_IRQHandler>:
 8002570:	4801      	ldr	r0, [pc, #4]	; (8002578 <TIM2_IRQHandler+0x8>)
 8002572:	f001 b99a 	b.w	80038aa <HAL_TIM_IRQHandler>
 8002576:	bf00      	nop
 8002578:	20000324 	.word	0x20000324

0800257c <TIM3_IRQHandler>:
 800257c:	4801      	ldr	r0, [pc, #4]	; (8002584 <TIM3_IRQHandler+0x8>)
 800257e:	f001 b994 	b.w	80038aa <HAL_TIM_IRQHandler>
 8002582:	bf00      	nop
 8002584:	2000036c 	.word	0x2000036c

08002588 <TIM4_IRQHandler>:
 8002588:	4801      	ldr	r0, [pc, #4]	; (8002590 <TIM4_IRQHandler+0x8>)
 800258a:	f001 b98e 	b.w	80038aa <HAL_TIM_IRQHandler>
 800258e:	bf00      	nop
 8002590:	200003b4 	.word	0x200003b4

08002594 <_getpid>:
 8002594:	2001      	movs	r0, #1
 8002596:	4770      	bx	lr

08002598 <_kill>:
 8002598:	b508      	push	{r3, lr}
 800259a:	f001 fdb9 	bl	8004110 <__errno>
 800259e:	2316      	movs	r3, #22
 80025a0:	6003      	str	r3, [r0, #0]
 80025a2:	f04f 30ff 	mov.w	r0, #4294967295
 80025a6:	bd08      	pop	{r3, pc}

080025a8 <_exit>:
 80025a8:	b508      	push	{r3, lr}
 80025aa:	f001 fdb1 	bl	8004110 <__errno>
 80025ae:	2316      	movs	r3, #22
 80025b0:	6003      	str	r3, [r0, #0]
 80025b2:	e7fe      	b.n	80025b2 <_exit+0xa>

080025b4 <_read>:
 80025b4:	b570      	push	{r4, r5, r6, lr}
 80025b6:	460d      	mov	r5, r1
 80025b8:	4614      	mov	r4, r2
 80025ba:	460e      	mov	r6, r1
 80025bc:	1b73      	subs	r3, r6, r5
 80025be:	429c      	cmp	r4, r3
 80025c0:	dc01      	bgt.n	80025c6 <_read+0x12>
 80025c2:	4620      	mov	r0, r4
 80025c4:	bd70      	pop	{r4, r5, r6, pc}
 80025c6:	f3af 8000 	nop.w
 80025ca:	f806 0b01 	strb.w	r0, [r6], #1
 80025ce:	e7f5      	b.n	80025bc <_read+0x8>

080025d0 <_write>:
 80025d0:	b570      	push	{r4, r5, r6, lr}
 80025d2:	460d      	mov	r5, r1
 80025d4:	4614      	mov	r4, r2
 80025d6:	460e      	mov	r6, r1
 80025d8:	1b73      	subs	r3, r6, r5
 80025da:	429c      	cmp	r4, r3
 80025dc:	dc01      	bgt.n	80025e2 <_write+0x12>
 80025de:	4620      	mov	r0, r4
 80025e0:	bd70      	pop	{r4, r5, r6, pc}
 80025e2:	f816 0b01 	ldrb.w	r0, [r6], #1
 80025e6:	f3af 8000 	nop.w
 80025ea:	e7f5      	b.n	80025d8 <_write+0x8>

080025ec <_close>:
 80025ec:	f04f 30ff 	mov.w	r0, #4294967295
 80025f0:	4770      	bx	lr

080025f2 <_fstat>:
 80025f2:	f44f 5300 	mov.w	r3, #8192	; 0x2000
 80025f6:	2000      	movs	r0, #0
 80025f8:	604b      	str	r3, [r1, #4]
 80025fa:	4770      	bx	lr

080025fc <_isatty>:
 80025fc:	2001      	movs	r0, #1
 80025fe:	4770      	bx	lr

08002600 <_lseek>:
 8002600:	2000      	movs	r0, #0
 8002602:	4770      	bx	lr

08002604 <_sbrk>:
 8002604:	4a0b      	ldr	r2, [pc, #44]	; (8002634 <_sbrk+0x30>)
 8002606:	4603      	mov	r3, r0
 8002608:	6811      	ldr	r1, [r2, #0]
 800260a:	b510      	push	{r4, lr}
 800260c:	b909      	cbnz	r1, 8002612 <_sbrk+0xe>
 800260e:	490a      	ldr	r1, [pc, #40]	; (8002638 <_sbrk+0x34>)
 8002610:	6011      	str	r1, [r2, #0]
 8002612:	6810      	ldr	r0, [r2, #0]
 8002614:	4909      	ldr	r1, [pc, #36]	; (800263c <_sbrk+0x38>)
 8002616:	4c0a      	ldr	r4, [pc, #40]	; (8002640 <_sbrk+0x3c>)
 8002618:	4403      	add	r3, r0
 800261a:	1b09      	subs	r1, r1, r4
 800261c:	428b      	cmp	r3, r1
 800261e:	d906      	bls.n	800262e <_sbrk+0x2a>
 8002620:	f001 fd76 	bl	8004110 <__errno>
 8002624:	230c      	movs	r3, #12
 8002626:	6003      	str	r3, [r0, #0]
 8002628:	f04f 30ff 	mov.w	r0, #4294967295
 800262c:	bd10      	pop	{r4, pc}
 800262e:	6013      	str	r3, [r2, #0]
 8002630:	e7fc      	b.n	800262c <_sbrk+0x28>
 8002632:	bf00      	nop
 8002634:	20000444 	.word	0x20000444
 8002638:	20000460 	.word	0x20000460
 800263c:	20005000 	.word	0x20005000
 8002640:	00000400 	.word	0x00000400

08002644 <SystemInit>:
 8002644:	4770      	bx	lr
	...

08002648 <Reset_Handler>:
 8002648:	480c      	ldr	r0, [pc, #48]	; (800267c <LoopFillZerobss+0x12>)
 800264a:	490d      	ldr	r1, [pc, #52]	; (8002680 <LoopFillZerobss+0x16>)
 800264c:	4a0d      	ldr	r2, [pc, #52]	; (8002684 <LoopFillZerobss+0x1a>)
 800264e:	2300      	movs	r3, #0
 8002650:	e002      	b.n	8002658 <LoopCopyDataInit>

08002652 <CopyDataInit>:
 8002652:	58d4      	ldr	r4, [r2, r3]
 8002654:	50c4      	str	r4, [r0, r3]
 8002656:	3304      	adds	r3, #4

08002658 <LoopCopyDataInit>:
 8002658:	18c4      	adds	r4, r0, r3
 800265a:	428c      	cmp	r4, r1
 800265c:	d3f9      	bcc.n	8002652 <CopyDataInit>
 800265e:	4a0a      	ldr	r2, [pc, #40]	; (8002688 <LoopFillZerobss+0x1e>)
 8002660:	4c0a      	ldr	r4, [pc, #40]	; (800268c <LoopFillZerobss+0x22>)
 8002662:	2300      	movs	r3, #0
 8002664:	e001      	b.n	800266a <LoopFillZerobss>

08002666 <FillZerobss>:
 8002666:	6013      	str	r3, [r2, #0]
 8002668:	3204      	adds	r2, #4

0800266a <LoopFillZerobss>:
 800266a:	42a2      	cmp	r2, r4
 800266c:	d3fb      	bcc.n	8002666 <FillZerobss>
 800266e:	f7ff ffe9 	bl	8002644 <SystemInit>
 8002672:	f001 fd53 	bl	800411c <__libc_init_array>
 8002676:	f7fe ff2b 	bl	80014d0 <main>
 800267a:	4770      	bx	lr
 800267c:	20000000 	.word	0x20000000
 8002680:	20000218 	.word	0x20000218
 8002684:	08008788 	.word	0x08008788
 8002688:	20000218 	.word	0x20000218
 800268c:	2000045c 	.word	0x2000045c

08002690 <ADC1_2_IRQHandler>:
 8002690:	e7fe      	b.n	8002690 <ADC1_2_IRQHandler>
	...

08002694 <HAL_InitTick>:
 8002694:	b538      	push	{r3, r4, r5, lr}
 8002696:	4b0e      	ldr	r3, [pc, #56]	; (80026d0 <HAL_InitTick+0x3c>)
 8002698:	4605      	mov	r5, r0
 800269a:	7818      	ldrb	r0, [r3, #0]
 800269c:	f44f 737a 	mov.w	r3, #1000	; 0x3e8
 80026a0:	fbb3 f3f0 	udiv	r3, r3, r0
 80026a4:	4a0b      	ldr	r2, [pc, #44]	; (80026d4 <HAL_InitTick+0x40>)
 80026a6:	6810      	ldr	r0, [r2, #0]
 80026a8:	fbb0 f0f3 	udiv	r0, r0, r3
 80026ac:	f000 f89e 	bl	80027ec <HAL_SYSTICK_Config>
 80026b0:	4604      	mov	r4, r0
 80026b2:	b958      	cbnz	r0, 80026cc <HAL_InitTick+0x38>
 80026b4:	2d0f      	cmp	r5, #15
 80026b6:	d809      	bhi.n	80026cc <HAL_InitTick+0x38>
 80026b8:	4602      	mov	r2, r0
 80026ba:	4629      	mov	r1, r5
 80026bc:	f04f 30ff 	mov.w	r0, #4294967295
 80026c0:	f000 f854 	bl	800276c <HAL_NVIC_SetPriority>
 80026c4:	4620      	mov	r0, r4
 80026c6:	4b04      	ldr	r3, [pc, #16]	; (80026d8 <HAL_InitTick+0x44>)
 80026c8:	601d      	str	r5, [r3, #0]
 80026ca:	bd38      	pop	{r3, r4, r5, pc}
 80026cc:	2001      	movs	r0, #1
 80026ce:	e7fc      	b.n	80026ca <HAL_InitTick+0x36>
 80026d0:	20000040 	.word	0x20000040
 80026d4:	2000003c 	.word	0x2000003c
 80026d8:	20000044 	.word	0x20000044

080026dc <HAL_Init>:
 80026dc:	4a07      	ldr	r2, [pc, #28]	; (80026fc <HAL_Init+0x20>)
 80026de:	b508      	push	{r3, lr}
 80026e0:	6813      	ldr	r3, [r2, #0]
 80026e2:	2003      	movs	r0, #3
 80026e4:	f043 0310 	orr.w	r3, r3, #16
 80026e8:	6013      	str	r3, [r2, #0]
 80026ea:	f000 f82d 	bl	8002748 <HAL_NVIC_SetPriorityGrouping>
 80026ee:	200f      	movs	r0, #15
 80026f0:	f7ff ffd0 	bl	8002694 <HAL_InitTick>
 80026f4:	f7ff fe3a 	bl	800236c <HAL_MspInit>
 80026f8:	2000      	movs	r0, #0
 80026fa:	bd08      	pop	{r3, pc}
 80026fc:	40022000 	.word	0x40022000

08002700 <HAL_IncTick>:
 8002700:	4a03      	ldr	r2, [pc, #12]	; (8002710 <HAL_IncTick+0x10>)
 8002702:	4b04      	ldr	r3, [pc, #16]	; (8002714 <HAL_IncTick+0x14>)
 8002704:	6811      	ldr	r1, [r2, #0]
 8002706:	781b      	ldrb	r3, [r3, #0]
 8002708:	440b      	add	r3, r1
 800270a:	6013      	str	r3, [r2, #0]
 800270c:	4770      	bx	lr
 800270e:	bf00      	nop
 8002710:	20000448 	.word	0x20000448
 8002714:	20000040 	.word	0x20000040

08002718 <HAL_GetTick>:
 8002718:	4b01      	ldr	r3, [pc, #4]	; (8002720 <HAL_GetTick+0x8>)
 800271a:	6818      	ldr	r0, [r3, #0]
 800271c:	4770      	bx	lr
 800271e:	bf00      	nop
 8002720:	20000448 	.word	0x20000448

08002724 <HAL_Delay>:
 8002724:	b538      	push	{r3, r4, r5, lr}
 8002726:	4604      	mov	r4, r0
 8002728:	f7ff fff6 	bl	8002718 <HAL_GetTick>
 800272c:	4605      	mov	r5, r0
 800272e:	1c63      	adds	r3, r4, #1
 8002730:	bf1e      	ittt	ne
 8002732:	4b04      	ldrne	r3, [pc, #16]	; (8002744 <HAL_Delay+0x20>)
 8002734:	781b      	ldrbne	r3, [r3, #0]
 8002736:	18e4      	addne	r4, r4, r3
 8002738:	f7ff ffee 	bl	8002718 <HAL_GetTick>
 800273c:	1b43      	subs	r3, r0, r5
 800273e:	42a3      	cmp	r3, r4
 8002740:	d3fa      	bcc.n	8002738 <HAL_Delay+0x14>
 8002742:	bd38      	pop	{r3, r4, r5, pc}
 8002744:	20000040 	.word	0x20000040

08002748 <HAL_NVIC_SetPriorityGrouping>:
 8002748:	4907      	ldr	r1, [pc, #28]	; (8002768 <HAL_NVIC_SetPriorityGrouping+0x20>)
 800274a:	0203      	lsls	r3, r0, #8
 800274c:	68ca      	ldr	r2, [r1, #12]
 800274e:	f403 63e0 	and.w	r3, r3, #1792	; 0x700
 8002752:	f422 62e0 	bic.w	r2, r2, #1792	; 0x700
 8002756:	0412      	lsls	r2, r2, #16
 8002758:	0c12      	lsrs	r2, r2, #16
 800275a:	4313      	orrs	r3, r2
 800275c:	f043 63bf 	orr.w	r3, r3, #100139008	; 0x5f80000
 8002760:	f443 3300 	orr.w	r3, r3, #131072	; 0x20000
 8002764:	60cb      	str	r3, [r1, #12]
 8002766:	4770      	bx	lr
 8002768:	e000ed00 	.word	0xe000ed00

0800276c <HAL_NVIC_SetPriority>:
 800276c:	4b16      	ldr	r3, [pc, #88]	; (80027c8 <HAL_NVIC_SetPriority+0x5c>)
 800276e:	b530      	push	{r4, r5, lr}
 8002770:	68dc      	ldr	r4, [r3, #12]
 8002772:	f3c4 2402 	ubfx	r4, r4, #8, #3
 8002776:	f1c4 0307 	rsb	r3, r4, #7
 800277a:	1d25      	adds	r5, r4, #4
 800277c:	2b04      	cmp	r3, #4
 800277e:	bf28      	it	cs
 8002780:	2304      	movcs	r3, #4
 8002782:	2d06      	cmp	r5, #6
 8002784:	f04f 35ff 	mov.w	r5, #4294967295
 8002788:	bf98      	it	ls
 800278a:	2400      	movls	r4, #0
 800278c:	fa05 f303 	lsl.w	r3, r5, r3
 8002790:	bf88      	it	hi
 8002792:	3c03      	subhi	r4, #3
 8002794:	ea21 0303 	bic.w	r3, r1, r3
 8002798:	40a3      	lsls	r3, r4
 800279a:	fa05 f404 	lsl.w	r4, r5, r4
 800279e:	ea22 0204 	bic.w	r2, r2, r4
 80027a2:	2800      	cmp	r0, #0
 80027a4:	ea43 0302 	orr.w	r3, r3, r2
 80027a8:	bfac      	ite	ge
 80027aa:	f100 4060 	addge.w	r0, r0, #3758096384	; 0xe0000000
 80027ae:	4a07      	ldrlt	r2, [pc, #28]	; (80027cc <HAL_NVIC_SetPriority+0x60>)
 80027b0:	ea4f 1303 	mov.w	r3, r3, lsl #4
 80027b4:	b2db      	uxtb	r3, r3
 80027b6:	bfab      	itete	ge
 80027b8:	f500 4061 	addge.w	r0, r0, #57600	; 0xe100
 80027bc:	f000 000f 	andlt.w	r0, r0, #15
 80027c0:	f880 3300 	strbge.w	r3, [r0, #768]	; 0x300
 80027c4:	5413      	strblt	r3, [r2, r0]
 80027c6:	bd30      	pop	{r4, r5, pc}
 80027c8:	e000ed00 	.word	0xe000ed00
 80027cc:	e000ed14 	.word	0xe000ed14

080027d0 <HAL_NVIC_EnableIRQ>:
 80027d0:	2800      	cmp	r0, #0
 80027d2:	db08      	blt.n	80027e6 <HAL_NVIC_EnableIRQ+0x16>
 80027d4:	2301      	movs	r3, #1
 80027d6:	0942      	lsrs	r2, r0, #5
 80027d8:	f000 001f 	and.w	r0, r0, #31
 80027dc:	fa03 f000 	lsl.w	r0, r3, r0
 80027e0:	4b01      	ldr	r3, [pc, #4]	; (80027e8 <HAL_NVIC_EnableIRQ+0x18>)
 80027e2:	f843 0022 	str.w	r0, [r3, r2, lsl #2]
 80027e6:	4770      	bx	lr
 80027e8:	e000e100 	.word	0xe000e100

080027ec <HAL_SYSTICK_Config>:
 80027ec:	3801      	subs	r0, #1
 80027ee:	f1b0 7f80 	cmp.w	r0, #16777216	; 0x1000000
 80027f2:	d20b      	bcs.n	800280c <HAL_SYSTICK_Config+0x20>
 80027f4:	f04f 23e0 	mov.w	r3, #3758153728	; 0xe000e000
 80027f8:	21f0      	movs	r1, #240	; 0xf0
 80027fa:	4a05      	ldr	r2, [pc, #20]	; (8002810 <HAL_SYSTICK_Config+0x24>)
 80027fc:	6158      	str	r0, [r3, #20]
 80027fe:	f882 1023 	strb.w	r1, [r2, #35]	; 0x23
 8002802:	2000      	movs	r0, #0
 8002804:	2207      	movs	r2, #7
 8002806:	6198      	str	r0, [r3, #24]
 8002808:	611a      	str	r2, [r3, #16]
 800280a:	4770      	bx	lr
 800280c:	2001      	movs	r0, #1
 800280e:	4770      	bx	lr
 8002810:	e000ed00 	.word	0xe000ed00

08002814 <HAL_GPIO_Init>:
 8002814:	e92d 4ff7 	stmdb	sp!, {r0, r1, r2, r4, r5, r6, r7, r8, r9, sl, fp, lr}
 8002818:	2200      	movs	r2, #0
 800281a:	4616      	mov	r6, r2
 800281c:	4f64      	ldr	r7, [pc, #400]	; (80029b0 <HAL_GPIO_Init+0x19c>)
 800281e:	4b65      	ldr	r3, [pc, #404]	; (80029b4 <HAL_GPIO_Init+0x1a0>)
 8002820:	f8df c194 	ldr.w	ip, [pc, #404]	; 80029b8 <HAL_GPIO_Init+0x1a4>
 8002824:	f8df e194 	ldr.w	lr, [pc, #404]	; 80029bc <HAL_GPIO_Init+0x1a8>
 8002828:	680d      	ldr	r5, [r1, #0]
 800282a:	fa35 f406 	lsrs.w	r4, r5, r6
 800282e:	d102      	bne.n	8002836 <HAL_GPIO_Init+0x22>
 8002830:	b003      	add	sp, #12
 8002832:	e8bd 8ff0 	ldmia.w	sp!, {r4, r5, r6, r7, r8, r9, sl, fp, pc}
 8002836:	f04f 0801 	mov.w	r8, #1
 800283a:	fa08 f806 	lsl.w	r8, r8, r6
 800283e:	ea05 0408 	and.w	r4, r5, r8
 8002842:	ea38 0505 	bics.w	r5, r8, r5
 8002846:	d17b      	bne.n	8002940 <HAL_GPIO_Init+0x12c>
 8002848:	684d      	ldr	r5, [r1, #4]
 800284a:	2d03      	cmp	r5, #3
 800284c:	d807      	bhi.n	800285e <HAL_GPIO_Init+0x4a>
 800284e:	3d01      	subs	r5, #1
 8002850:	2d02      	cmp	r5, #2
 8002852:	f200 8088 	bhi.w	8002966 <HAL_GPIO_Init+0x152>
 8002856:	e8df f005 	tbb	[pc, r5]
 800285a:	9b96      	.short	0x9b96
 800285c:	a1          	.byte	0xa1
 800285d:	00          	.byte	0x00
 800285e:	2d12      	cmp	r5, #18
 8002860:	f000 8099 	beq.w	8002996 <HAL_GPIO_Init+0x182>
 8002864:	d86e      	bhi.n	8002944 <HAL_GPIO_Init+0x130>
 8002866:	2d11      	cmp	r5, #17
 8002868:	f000 808f 	beq.w	800298a <HAL_GPIO_Init+0x176>
 800286c:	2cff      	cmp	r4, #255	; 0xff
 800286e:	bf98      	it	ls
 8002870:	4682      	movls	sl, r0
 8002872:	f04f 090f 	mov.w	r9, #15
 8002876:	bf88      	it	hi
 8002878:	f100 0a04 	addhi.w	sl, r0, #4
 800287c:	ea4f 0586 	mov.w	r5, r6, lsl #2
 8002880:	f8da 8000 	ldr.w	r8, [sl]
 8002884:	bf88      	it	hi
 8002886:	3d20      	subhi	r5, #32
 8002888:	fa09 fb05 	lsl.w	fp, r9, r5
 800288c:	ea28 080b 	bic.w	r8, r8, fp
 8002890:	fa02 f505 	lsl.w	r5, r2, r5
 8002894:	ea48 0505 	orr.w	r5, r8, r5
 8002898:	f8ca 5000 	str.w	r5, [sl]
 800289c:	f8d1 a004 	ldr.w	sl, [r1, #4]
 80028a0:	f01a 5f80 	tst.w	sl, #268435456	; 0x10000000
 80028a4:	d04c      	beq.n	8002940 <HAL_GPIO_Init+0x12c>
 80028a6:	69bd      	ldr	r5, [r7, #24]
 80028a8:	f026 0803 	bic.w	r8, r6, #3
 80028ac:	f045 0501 	orr.w	r5, r5, #1
 80028b0:	61bd      	str	r5, [r7, #24]
 80028b2:	69bd      	ldr	r5, [r7, #24]
 80028b4:	f108 4880 	add.w	r8, r8, #1073741824	; 0x40000000
 80028b8:	f005 0501 	and.w	r5, r5, #1
 80028bc:	9501      	str	r5, [sp, #4]
 80028be:	f508 3880 	add.w	r8, r8, #65536	; 0x10000
 80028c2:	f006 0b03 	and.w	fp, r6, #3
 80028c6:	9d01      	ldr	r5, [sp, #4]
 80028c8:	ea4f 0b8b 	mov.w	fp, fp, lsl #2
 80028cc:	f8d8 5008 	ldr.w	r5, [r8, #8]
 80028d0:	fa09 f90b 	lsl.w	r9, r9, fp
 80028d4:	ea25 0909 	bic.w	r9, r5, r9
 80028d8:	4d39      	ldr	r5, [pc, #228]	; (80029c0 <HAL_GPIO_Init+0x1ac>)
 80028da:	42a8      	cmp	r0, r5
 80028dc:	d062      	beq.n	80029a4 <HAL_GPIO_Init+0x190>
 80028de:	f505 6580 	add.w	r5, r5, #1024	; 0x400
 80028e2:	42a8      	cmp	r0, r5
 80028e4:	d060      	beq.n	80029a8 <HAL_GPIO_Init+0x194>
 80028e6:	f505 6580 	add.w	r5, r5, #1024	; 0x400
 80028ea:	42a8      	cmp	r0, r5
 80028ec:	d05e      	beq.n	80029ac <HAL_GPIO_Init+0x198>
 80028ee:	f505 6580 	add.w	r5, r5, #1024	; 0x400
 80028f2:	42a8      	cmp	r0, r5
 80028f4:	bf0c      	ite	eq
 80028f6:	2503      	moveq	r5, #3
 80028f8:	2504      	movne	r5, #4
 80028fa:	fa05 f50b 	lsl.w	r5, r5, fp
 80028fe:	ea45 0509 	orr.w	r5, r5, r9
 8002902:	f8c8 5008 	str.w	r5, [r8, #8]
 8002906:	681d      	ldr	r5, [r3, #0]
 8002908:	f41a 3f80 	tst.w	sl, #65536	; 0x10000
 800290c:	bf14      	ite	ne
 800290e:	4325      	orrne	r5, r4
 8002910:	43a5      	biceq	r5, r4
 8002912:	601d      	str	r5, [r3, #0]
 8002914:	685d      	ldr	r5, [r3, #4]
 8002916:	f41a 3f00 	tst.w	sl, #131072	; 0x20000
 800291a:	bf14      	ite	ne
 800291c:	4325      	orrne	r5, r4
 800291e:	43a5      	biceq	r5, r4
 8002920:	605d      	str	r5, [r3, #4]
 8002922:	689d      	ldr	r5, [r3, #8]
 8002924:	f41a 1f80 	tst.w	sl, #1048576	; 0x100000
 8002928:	bf14      	ite	ne
 800292a:	4325      	orrne	r5, r4
 800292c:	43a5      	biceq	r5, r4
 800292e:	609d      	str	r5, [r3, #8]
 8002930:	68dd      	ldr	r5, [r3, #12]
 8002932:	f41a 1f00 	tst.w	sl, #2097152	; 0x200000
 8002936:	bf14      	ite	ne
 8002938:	432c      	orrne	r4, r5
 800293a:	ea25 0404 	biceq.w	r4, r5, r4
 800293e:	60dc      	str	r4, [r3, #12]
 8002940:	3601      	adds	r6, #1
 8002942:	e771      	b.n	8002828 <HAL_GPIO_Init+0x14>
 8002944:	f8df 907c 	ldr.w	r9, [pc, #124]	; 80029c4 <HAL_GPIO_Init+0x1b0>
 8002948:	454d      	cmp	r5, r9
 800294a:	d00c      	beq.n	8002966 <HAL_GPIO_Init+0x152>
 800294c:	d817      	bhi.n	800297e <HAL_GPIO_Init+0x16a>
 800294e:	f5a9 1980 	sub.w	r9, r9, #1048576	; 0x100000
 8002952:	454d      	cmp	r5, r9
 8002954:	d007      	beq.n	8002966 <HAL_GPIO_Init+0x152>
 8002956:	f509 2970 	add.w	r9, r9, #983040	; 0xf0000
 800295a:	454d      	cmp	r5, r9
 800295c:	d003      	beq.n	8002966 <HAL_GPIO_Init+0x152>
 800295e:	f5a9 1980 	sub.w	r9, r9, #1048576	; 0x100000
 8002962:	454d      	cmp	r5, r9
 8002964:	d182      	bne.n	800286c <HAL_GPIO_Init+0x58>
 8002966:	688a      	ldr	r2, [r1, #8]
 8002968:	b1d2      	cbz	r2, 80029a0 <HAL_GPIO_Init+0x18c>
 800296a:	2a01      	cmp	r2, #1
 800296c:	bf08      	it	eq
 800296e:	f8c0 8010 	streq.w	r8, [r0, #16]
 8002972:	f04f 0208 	mov.w	r2, #8
 8002976:	bf18      	it	ne
 8002978:	f8c0 8014 	strne.w	r8, [r0, #20]
 800297c:	e776      	b.n	800286c <HAL_GPIO_Init+0x58>
 800297e:	4565      	cmp	r5, ip
 8002980:	d0f1      	beq.n	8002966 <HAL_GPIO_Init+0x152>
 8002982:	4575      	cmp	r5, lr
 8002984:	e7ee      	b.n	8002964 <HAL_GPIO_Init+0x150>
 8002986:	68ca      	ldr	r2, [r1, #12]
 8002988:	e770      	b.n	800286c <HAL_GPIO_Init+0x58>
 800298a:	68ca      	ldr	r2, [r1, #12]
 800298c:	3204      	adds	r2, #4
 800298e:	e76d      	b.n	800286c <HAL_GPIO_Init+0x58>
 8002990:	68ca      	ldr	r2, [r1, #12]
 8002992:	3208      	adds	r2, #8
 8002994:	e76a      	b.n	800286c <HAL_GPIO_Init+0x58>
 8002996:	68ca      	ldr	r2, [r1, #12]
 8002998:	320c      	adds	r2, #12
 800299a:	e767      	b.n	800286c <HAL_GPIO_Init+0x58>
 800299c:	2200      	movs	r2, #0
 800299e:	e765      	b.n	800286c <HAL_GPIO_Init+0x58>
 80029a0:	2204      	movs	r2, #4
 80029a2:	e763      	b.n	800286c <HAL_GPIO_Init+0x58>
 80029a4:	2500      	movs	r5, #0
 80029a6:	e7a8      	b.n	80028fa <HAL_GPIO_Init+0xe6>
 80029a8:	2501      	movs	r5, #1
 80029aa:	e7a6      	b.n	80028fa <HAL_GPIO_Init+0xe6>
 80029ac:	2502      	movs	r5, #2
 80029ae:	e7a4      	b.n	80028fa <HAL_GPIO_Init+0xe6>
 80029b0:	40021000 	.word	0x40021000
 80029b4:	40010400 	.word	0x40010400
 80029b8:	10310000 	.word	0x10310000
 80029bc:	10320000 	.word	0x10320000
 80029c0:	40010800 	.word	0x40010800
 80029c4:	10220000 	.word	0x10220000

080029c8 <HAL_GPIO_WritePin>:
 80029c8:	b10a      	cbz	r2, 80029ce <HAL_GPIO_WritePin+0x6>
 80029ca:	6101      	str	r1, [r0, #16]
 80029cc:	4770      	bx	lr
 80029ce:	0409      	lsls	r1, r1, #16
 80029d0:	e7fb      	b.n	80029ca <HAL_GPIO_WritePin+0x2>

080029d2 <HAL_GPIO_TogglePin>:
 80029d2:	68c3      	ldr	r3, [r0, #12]
 80029d4:	ea01 0203 	and.w	r2, r1, r3
 80029d8:	ea21 0103 	bic.w	r1, r1, r3
 80029dc:	ea41 4102 	orr.w	r1, r1, r2, lsl #16
 80029e0:	6101      	str	r1, [r0, #16]
 80029e2:	4770      	bx	lr

080029e4 <I2C_IsAcknowledgeFailed>:
 80029e4:	6801      	ldr	r1, [r0, #0]
 80029e6:	2200      	movs	r2, #0
 80029e8:	694b      	ldr	r3, [r1, #20]
 80029ea:	f413 6380 	ands.w	r3, r3, #1024	; 0x400
 80029ee:	d010      	beq.n	8002a12 <I2C_IsAcknowledgeFailed+0x2e>
 80029f0:	f46f 6380 	mvn.w	r3, #1024	; 0x400
 80029f4:	614b      	str	r3, [r1, #20]
 80029f6:	2320      	movs	r3, #32
 80029f8:	6302      	str	r2, [r0, #48]	; 0x30
 80029fa:	f880 303d 	strb.w	r3, [r0, #61]	; 0x3d
 80029fe:	f880 203e 	strb.w	r2, [r0, #62]	; 0x3e
 8002a02:	6c03      	ldr	r3, [r0, #64]	; 0x40
 8002a04:	f880 203c 	strb.w	r2, [r0, #60]	; 0x3c
 8002a08:	f043 0304 	orr.w	r3, r3, #4
 8002a0c:	6403      	str	r3, [r0, #64]	; 0x40
 8002a0e:	2001      	movs	r0, #1
 8002a10:	4770      	bx	lr
 8002a12:	4618      	mov	r0, r3
 8002a14:	4770      	bx	lr

08002a16 <I2C_WaitOnFlagUntilTimeout>:
 8002a16:	e92d 46f8 	stmdb	sp!, {r3, r4, r5, r6, r7, r9, sl, lr}
 8002a1a:	4606      	mov	r6, r0
 8002a1c:	460f      	mov	r7, r1
 8002a1e:	4691      	mov	r9, r2
 8002a20:	461d      	mov	r5, r3
 8002a22:	ea4f 4a11 	mov.w	sl, r1, lsr #16
 8002a26:	6833      	ldr	r3, [r6, #0]
 8002a28:	f1ba 0f01 	cmp.w	sl, #1
 8002a2c:	bf0c      	ite	eq
 8002a2e:	695c      	ldreq	r4, [r3, #20]
 8002a30:	699c      	ldrne	r4, [r3, #24]
 8002a32:	ea27 0404 	bic.w	r4, r7, r4
 8002a36:	b2a4      	uxth	r4, r4
 8002a38:	fab4 f484 	clz	r4, r4
 8002a3c:	0964      	lsrs	r4, r4, #5
 8002a3e:	45a1      	cmp	r9, r4
 8002a40:	d001      	beq.n	8002a46 <I2C_WaitOnFlagUntilTimeout+0x30>
 8002a42:	2000      	movs	r0, #0
 8002a44:	e017      	b.n	8002a76 <I2C_WaitOnFlagUntilTimeout+0x60>
 8002a46:	1c6a      	adds	r2, r5, #1
 8002a48:	d0ee      	beq.n	8002a28 <I2C_WaitOnFlagUntilTimeout+0x12>
 8002a4a:	f7ff fe65 	bl	8002718 <HAL_GetTick>
 8002a4e:	9b08      	ldr	r3, [sp, #32]
 8002a50:	1ac0      	subs	r0, r0, r3
 8002a52:	42a8      	cmp	r0, r5
 8002a54:	d801      	bhi.n	8002a5a <I2C_WaitOnFlagUntilTimeout+0x44>
 8002a56:	2d00      	cmp	r5, #0
 8002a58:	d1e5      	bne.n	8002a26 <I2C_WaitOnFlagUntilTimeout+0x10>
 8002a5a:	2300      	movs	r3, #0
 8002a5c:	2220      	movs	r2, #32
 8002a5e:	2001      	movs	r0, #1
 8002a60:	6333      	str	r3, [r6, #48]	; 0x30
 8002a62:	f886 203d 	strb.w	r2, [r6, #61]	; 0x3d
 8002a66:	f886 303e 	strb.w	r3, [r6, #62]	; 0x3e
 8002a6a:	6c32      	ldr	r2, [r6, #64]	; 0x40
 8002a6c:	f886 303c 	strb.w	r3, [r6, #60]	; 0x3c
 8002a70:	f042 0220 	orr.w	r2, r2, #32
 8002a74:	6432      	str	r2, [r6, #64]	; 0x40
 8002a76:	e8bd 86f8 	ldmia.w	sp!, {r3, r4, r5, r6, r7, r9, sl, pc}

08002a7a <I2C_WaitOnMasterAddressFlagUntilTimeout>:
 8002a7a:	e92d 41f0 	stmdb	sp!, {r4, r5, r6, r7, r8, lr}
 8002a7e:	4604      	mov	r4, r0
 8002a80:	460f      	mov	r7, r1
 8002a82:	4616      	mov	r6, r2
 8002a84:	4698      	mov	r8, r3
 8002a86:	6825      	ldr	r5, [r4, #0]
 8002a88:	6968      	ldr	r0, [r5, #20]
 8002a8a:	ea27 0000 	bic.w	r0, r7, r0
 8002a8e:	b280      	uxth	r0, r0
 8002a90:	b1b8      	cbz	r0, 8002ac2 <I2C_WaitOnMasterAddressFlagUntilTimeout+0x48>
 8002a92:	696b      	ldr	r3, [r5, #20]
 8002a94:	055a      	lsls	r2, r3, #21
 8002a96:	d516      	bpl.n	8002ac6 <I2C_WaitOnMasterAddressFlagUntilTimeout+0x4c>
 8002a98:	682b      	ldr	r3, [r5, #0]
 8002a9a:	2220      	movs	r2, #32
 8002a9c:	f443 7300 	orr.w	r3, r3, #512	; 0x200
 8002aa0:	602b      	str	r3, [r5, #0]
 8002aa2:	f46f 6380 	mvn.w	r3, #1024	; 0x400
 8002aa6:	616b      	str	r3, [r5, #20]
 8002aa8:	2300      	movs	r3, #0
 8002aaa:	6323      	str	r3, [r4, #48]	; 0x30
 8002aac:	f884 203d 	strb.w	r2, [r4, #61]	; 0x3d
 8002ab0:	f884 303e 	strb.w	r3, [r4, #62]	; 0x3e
 8002ab4:	6c22      	ldr	r2, [r4, #64]	; 0x40
 8002ab6:	f042 0204 	orr.w	r2, r2, #4
 8002aba:	2001      	movs	r0, #1
 8002abc:	6422      	str	r2, [r4, #64]	; 0x40
 8002abe:	f884 303c 	strb.w	r3, [r4, #60]	; 0x3c
 8002ac2:	e8bd 81f0 	ldmia.w	sp!, {r4, r5, r6, r7, r8, pc}
 8002ac6:	1c73      	adds	r3, r6, #1
 8002ac8:	d0de      	beq.n	8002a88 <I2C_WaitOnMasterAddressFlagUntilTimeout+0xe>
 8002aca:	f7ff fe25 	bl	8002718 <HAL_GetTick>
 8002ace:	eba0 0008 	sub.w	r0, r0, r8
 8002ad2:	42b0      	cmp	r0, r6
 8002ad4:	d801      	bhi.n	8002ada <I2C_WaitOnMasterAddressFlagUntilTimeout+0x60>
 8002ad6:	2e00      	cmp	r6, #0
 8002ad8:	d1d5      	bne.n	8002a86 <I2C_WaitOnMasterAddressFlagUntilTimeout+0xc>
 8002ada:	2300      	movs	r3, #0
 8002adc:	2220      	movs	r2, #32
 8002ade:	6323      	str	r3, [r4, #48]	; 0x30
 8002ae0:	f884 203d 	strb.w	r2, [r4, #61]	; 0x3d
 8002ae4:	f884 303e 	strb.w	r3, [r4, #62]	; 0x3e
 8002ae8:	6c22      	ldr	r2, [r4, #64]	; 0x40
 8002aea:	f042 0220 	orr.w	r2, r2, #32
 8002aee:	e7e4      	b.n	8002aba <I2C_WaitOnMasterAddressFlagUntilTimeout+0x40>

08002af0 <I2C_WaitOnRXNEFlagUntilTimeout>:
 8002af0:	b570      	push	{r4, r5, r6, lr}
 8002af2:	4604      	mov	r4, r0
 8002af4:	460d      	mov	r5, r1
 8002af6:	4616      	mov	r6, r2
 8002af8:	6821      	ldr	r1, [r4, #0]
 8002afa:	694b      	ldr	r3, [r1, #20]
 8002afc:	f013 0340 	ands.w	r3, r3, #64	; 0x40
 8002b00:	d001      	beq.n	8002b06 <I2C_WaitOnRXNEFlagUntilTimeout+0x16>
 8002b02:	2000      	movs	r0, #0
 8002b04:	e010      	b.n	8002b28 <I2C_WaitOnRXNEFlagUntilTimeout+0x38>
 8002b06:	694a      	ldr	r2, [r1, #20]
 8002b08:	06d2      	lsls	r2, r2, #27
 8002b0a:	d50e      	bpl.n	8002b2a <I2C_WaitOnRXNEFlagUntilTimeout+0x3a>
 8002b0c:	f06f 0210 	mvn.w	r2, #16
 8002b10:	614a      	str	r2, [r1, #20]
 8002b12:	2220      	movs	r2, #32
 8002b14:	6323      	str	r3, [r4, #48]	; 0x30
 8002b16:	f884 203d 	strb.w	r2, [r4, #61]	; 0x3d
 8002b1a:	f884 303e 	strb.w	r3, [r4, #62]	; 0x3e
 8002b1e:	6c22      	ldr	r2, [r4, #64]	; 0x40
 8002b20:	2001      	movs	r0, #1
 8002b22:	6422      	str	r2, [r4, #64]	; 0x40
 8002b24:	f884 303c 	strb.w	r3, [r4, #60]	; 0x3c
 8002b28:	bd70      	pop	{r4, r5, r6, pc}
 8002b2a:	f7ff fdf5 	bl	8002718 <HAL_GetTick>
 8002b2e:	1b80      	subs	r0, r0, r6
 8002b30:	42a8      	cmp	r0, r5
 8002b32:	d801      	bhi.n	8002b38 <I2C_WaitOnRXNEFlagUntilTimeout+0x48>
 8002b34:	2d00      	cmp	r5, #0
 8002b36:	d1df      	bne.n	8002af8 <I2C_WaitOnRXNEFlagUntilTimeout+0x8>
 8002b38:	2300      	movs	r3, #0
 8002b3a:	2220      	movs	r2, #32
 8002b3c:	6323      	str	r3, [r4, #48]	; 0x30
 8002b3e:	f884 203d 	strb.w	r2, [r4, #61]	; 0x3d
 8002b42:	f884 303e 	strb.w	r3, [r4, #62]	; 0x3e
 8002b46:	6c22      	ldr	r2, [r4, #64]	; 0x40
 8002b48:	f042 0220 	orr.w	r2, r2, #32
 8002b4c:	e7e8      	b.n	8002b20 <I2C_WaitOnRXNEFlagUntilTimeout+0x30>

08002b4e <I2C_WaitOnBTFFlagUntilTimeout>:
 8002b4e:	b570      	push	{r4, r5, r6, lr}
 8002b50:	4604      	mov	r4, r0
 8002b52:	460d      	mov	r5, r1
 8002b54:	4616      	mov	r6, r2
 8002b56:	6823      	ldr	r3, [r4, #0]
 8002b58:	695b      	ldr	r3, [r3, #20]
 8002b5a:	075b      	lsls	r3, r3, #29
 8002b5c:	d501      	bpl.n	8002b62 <I2C_WaitOnBTFFlagUntilTimeout+0x14>
 8002b5e:	2000      	movs	r0, #0
 8002b60:	bd70      	pop	{r4, r5, r6, pc}
 8002b62:	4620      	mov	r0, r4
 8002b64:	f7ff ff3e 	bl	80029e4 <I2C_IsAcknowledgeFailed>
 8002b68:	b9a8      	cbnz	r0, 8002b96 <I2C_WaitOnBTFFlagUntilTimeout+0x48>
 8002b6a:	1c6a      	adds	r2, r5, #1
 8002b6c:	d0f3      	beq.n	8002b56 <I2C_WaitOnBTFFlagUntilTimeout+0x8>
 8002b6e:	f7ff fdd3 	bl	8002718 <HAL_GetTick>
 8002b72:	1b80      	subs	r0, r0, r6
 8002b74:	42a8      	cmp	r0, r5
 8002b76:	d801      	bhi.n	8002b7c <I2C_WaitOnBTFFlagUntilTimeout+0x2e>
 8002b78:	2d00      	cmp	r5, #0
 8002b7a:	d1ec      	bne.n	8002b56 <I2C_WaitOnBTFFlagUntilTimeout+0x8>
 8002b7c:	2300      	movs	r3, #0
 8002b7e:	2220      	movs	r2, #32
 8002b80:	6323      	str	r3, [r4, #48]	; 0x30
 8002b82:	f884 203d 	strb.w	r2, [r4, #61]	; 0x3d
 8002b86:	f884 303e 	strb.w	r3, [r4, #62]	; 0x3e
 8002b8a:	6c22      	ldr	r2, [r4, #64]	; 0x40
 8002b8c:	f884 303c 	strb.w	r3, [r4, #60]	; 0x3c
 8002b90:	f042 0220 	orr.w	r2, r2, #32
 8002b94:	6422      	str	r2, [r4, #64]	; 0x40
 8002b96:	2001      	movs	r0, #1
 8002b98:	e7e2      	b.n	8002b60 <I2C_WaitOnBTFFlagUntilTimeout+0x12>

08002b9a <I2C_WaitOnTXEFlagUntilTimeout>:
 8002b9a:	b570      	push	{r4, r5, r6, lr}
 8002b9c:	4604      	mov	r4, r0
 8002b9e:	460d      	mov	r5, r1
 8002ba0:	4616      	mov	r6, r2
 8002ba2:	6823      	ldr	r3, [r4, #0]
 8002ba4:	695b      	ldr	r3, [r3, #20]
 8002ba6:	061b      	lsls	r3, r3, #24
 8002ba8:	d501      	bpl.n	8002bae <I2C_WaitOnTXEFlagUntilTimeout+0x14>
 8002baa:	2000      	movs	r0, #0
 8002bac:	bd70      	pop	{r4, r5, r6, pc}
 8002bae:	4620      	mov	r0, r4
 8002bb0:	f7ff ff18 	bl	80029e4 <I2C_IsAcknowledgeFailed>
 8002bb4:	b9a8      	cbnz	r0, 8002be2 <I2C_WaitOnTXEFlagUntilTimeout+0x48>
 8002bb6:	1c6a      	adds	r2, r5, #1
 8002bb8:	d0f3      	beq.n	8002ba2 <I2C_WaitOnTXEFlagUntilTimeout+0x8>
 8002bba:	f7ff fdad 	bl	8002718 <HAL_GetTick>
 8002bbe:	1b80      	subs	r0, r0, r6
 8002bc0:	42a8      	cmp	r0, r5
 8002bc2:	d801      	bhi.n	8002bc8 <I2C_WaitOnTXEFlagUntilTimeout+0x2e>
 8002bc4:	2d00      	cmp	r5, #0
 8002bc6:	d1ec      	bne.n	8002ba2 <I2C_WaitOnTXEFlagUntilTimeout+0x8>
 8002bc8:	2300      	movs	r3, #0
 8002bca:	2220      	movs	r2, #32
 8002bcc:	6323      	str	r3, [r4, #48]	; 0x30
 8002bce:	f884 203d 	strb.w	r2, [r4, #61]	; 0x3d
 8002bd2:	f884 303e 	strb.w	r3, [r4, #62]	; 0x3e
 8002bd6:	6c22      	ldr	r2, [r4, #64]	; 0x40
 8002bd8:	f884 303c 	strb.w	r3, [r4, #60]	; 0x3c
 8002bdc:	f042 0220 	orr.w	r2, r2, #32
 8002be0:	6422      	str	r2, [r4, #64]	; 0x40
 8002be2:	2001      	movs	r0, #1
 8002be4:	e7e2      	b.n	8002bac <I2C_WaitOnTXEFlagUntilTimeout+0x12>
	...

08002be8 <I2C_RequestMemoryWrite>:
 8002be8:	e92d 43f0 	stmdb	sp!, {r4, r5, r6, r7, r8, r9, lr}
 8002bec:	4615      	mov	r5, r2
 8002bee:	6802      	ldr	r2, [r0, #0]
 8002bf0:	4699      	mov	r9, r3
 8002bf2:	6813      	ldr	r3, [r2, #0]
 8002bf4:	b085      	sub	sp, #20
 8002bf6:	f443 7380 	orr.w	r3, r3, #256	; 0x100
 8002bfa:	6013      	str	r3, [r2, #0]
 8002bfc:	e9dd 780c 	ldrd	r7, r8, [sp, #48]	; 0x30
 8002c00:	460e      	mov	r6, r1
 8002c02:	463b      	mov	r3, r7
 8002c04:	2200      	movs	r2, #0
 8002c06:	f04f 1101 	mov.w	r1, #65537	; 0x10001
 8002c0a:	f8cd 8000 	str.w	r8, [sp]
 8002c0e:	4604      	mov	r4, r0
 8002c10:	f7ff ff01 	bl	8002a16 <I2C_WaitOnFlagUntilTimeout>
 8002c14:	6823      	ldr	r3, [r4, #0]
 8002c16:	b138      	cbz	r0, 8002c28 <I2C_RequestMemoryWrite+0x40>
 8002c18:	681b      	ldr	r3, [r3, #0]
 8002c1a:	05db      	lsls	r3, r3, #23
 8002c1c:	d502      	bpl.n	8002c24 <I2C_RequestMemoryWrite+0x3c>
 8002c1e:	f44f 7300 	mov.w	r3, #512	; 0x200
 8002c22:	6423      	str	r3, [r4, #64]	; 0x40
 8002c24:	2003      	movs	r0, #3
 8002c26:	e00a      	b.n	8002c3e <I2C_RequestMemoryWrite+0x56>
 8002c28:	f006 06fe 	and.w	r6, r6, #254	; 0xfe
 8002c2c:	611e      	str	r6, [r3, #16]
 8002c2e:	463a      	mov	r2, r7
 8002c30:	4643      	mov	r3, r8
 8002c32:	4620      	mov	r0, r4
 8002c34:	4917      	ldr	r1, [pc, #92]	; (8002c94 <I2C_RequestMemoryWrite+0xac>)
 8002c36:	f7ff ff20 	bl	8002a7a <I2C_WaitOnMasterAddressFlagUntilTimeout>
 8002c3a:	b118      	cbz	r0, 8002c44 <I2C_RequestMemoryWrite+0x5c>
 8002c3c:	2001      	movs	r0, #1
 8002c3e:	b005      	add	sp, #20
 8002c40:	e8bd 83f0 	ldmia.w	sp!, {r4, r5, r6, r7, r8, r9, pc}
 8002c44:	6823      	ldr	r3, [r4, #0]
 8002c46:	9003      	str	r0, [sp, #12]
 8002c48:	695a      	ldr	r2, [r3, #20]
 8002c4a:	4639      	mov	r1, r7
 8002c4c:	9203      	str	r2, [sp, #12]
 8002c4e:	699b      	ldr	r3, [r3, #24]
 8002c50:	4642      	mov	r2, r8
 8002c52:	9303      	str	r3, [sp, #12]
 8002c54:	4620      	mov	r0, r4
 8002c56:	9b03      	ldr	r3, [sp, #12]
 8002c58:	f7ff ff9f 	bl	8002b9a <I2C_WaitOnTXEFlagUntilTimeout>
 8002c5c:	b140      	cbz	r0, 8002c70 <I2C_RequestMemoryWrite+0x88>
 8002c5e:	6c23      	ldr	r3, [r4, #64]	; 0x40
 8002c60:	2b04      	cmp	r3, #4
 8002c62:	bf01      	itttt	eq
 8002c64:	6822      	ldreq	r2, [r4, #0]
 8002c66:	6813      	ldreq	r3, [r2, #0]
 8002c68:	f443 7300 	orreq.w	r3, r3, #512	; 0x200
 8002c6c:	6013      	streq	r3, [r2, #0]
 8002c6e:	e7e5      	b.n	8002c3c <I2C_RequestMemoryWrite+0x54>
 8002c70:	f1b9 0f01 	cmp.w	r9, #1
 8002c74:	6823      	ldr	r3, [r4, #0]
 8002c76:	d102      	bne.n	8002c7e <I2C_RequestMemoryWrite+0x96>
 8002c78:	b2ed      	uxtb	r5, r5
 8002c7a:	611d      	str	r5, [r3, #16]
 8002c7c:	e7df      	b.n	8002c3e <I2C_RequestMemoryWrite+0x56>
 8002c7e:	0a2a      	lsrs	r2, r5, #8
 8002c80:	611a      	str	r2, [r3, #16]
 8002c82:	4639      	mov	r1, r7
 8002c84:	4642      	mov	r2, r8
 8002c86:	4620      	mov	r0, r4
 8002c88:	f7ff ff87 	bl	8002b9a <I2C_WaitOnTXEFlagUntilTimeout>
 8002c8c:	2800      	cmp	r0, #0
 8002c8e:	d1e6      	bne.n	8002c5e <I2C_RequestMemoryWrite+0x76>
 8002c90:	6823      	ldr	r3, [r4, #0]
 8002c92:	e7f1      	b.n	8002c78 <I2C_RequestMemoryWrite+0x90>
 8002c94:	00010002 	.word	0x00010002

08002c98 <I2C_RequestMemoryRead>:
 8002c98:	e92d 47ff 	stmdb	sp!, {r0, r1, r2, r3, r4, r5, r6, r7, r8, r9, sl, lr}
 8002c9c:	469a      	mov	sl, r3
 8002c9e:	e9dd 780c 	ldrd	r7, r8, [sp, #48]	; 0x30
 8002ca2:	6803      	ldr	r3, [r0, #0]
 8002ca4:	4615      	mov	r5, r2
 8002ca6:	681a      	ldr	r2, [r3, #0]
 8002ca8:	460e      	mov	r6, r1
 8002caa:	f442 6280 	orr.w	r2, r2, #1024	; 0x400
 8002cae:	601a      	str	r2, [r3, #0]
 8002cb0:	681a      	ldr	r2, [r3, #0]
 8002cb2:	f04f 1101 	mov.w	r1, #65537	; 0x10001
 8002cb6:	f442 7280 	orr.w	r2, r2, #256	; 0x100
 8002cba:	601a      	str	r2, [r3, #0]
 8002cbc:	463b      	mov	r3, r7
 8002cbe:	2200      	movs	r2, #0
 8002cc0:	f8cd 8000 	str.w	r8, [sp]
 8002cc4:	4604      	mov	r4, r0
 8002cc6:	f7ff fea6 	bl	8002a16 <I2C_WaitOnFlagUntilTimeout>
 8002cca:	6823      	ldr	r3, [r4, #0]
 8002ccc:	b148      	cbz	r0, 8002ce2 <I2C_RequestMemoryRead+0x4a>
 8002cce:	681b      	ldr	r3, [r3, #0]
 8002cd0:	05db      	lsls	r3, r3, #23
 8002cd2:	d502      	bpl.n	8002cda <I2C_RequestMemoryRead+0x42>
 8002cd4:	f44f 7300 	mov.w	r3, #512	; 0x200
 8002cd8:	6423      	str	r3, [r4, #64]	; 0x40
 8002cda:	2003      	movs	r0, #3
 8002cdc:	b004      	add	sp, #16
 8002cde:	e8bd 87f0 	ldmia.w	sp!, {r4, r5, r6, r7, r8, r9, sl, pc}
 8002ce2:	fa5f f986 	uxtb.w	r9, r6
 8002ce6:	f006 06fe 	and.w	r6, r6, #254	; 0xfe
 8002cea:	611e      	str	r6, [r3, #16]
 8002cec:	463a      	mov	r2, r7
 8002cee:	4643      	mov	r3, r8
 8002cf0:	4620      	mov	r0, r4
 8002cf2:	4929      	ldr	r1, [pc, #164]	; (8002d98 <I2C_RequestMemoryRead+0x100>)
 8002cf4:	f7ff fec1 	bl	8002a7a <I2C_WaitOnMasterAddressFlagUntilTimeout>
 8002cf8:	b108      	cbz	r0, 8002cfe <I2C_RequestMemoryRead+0x66>
 8002cfa:	2001      	movs	r0, #1
 8002cfc:	e7ee      	b.n	8002cdc <I2C_RequestMemoryRead+0x44>
 8002cfe:	6823      	ldr	r3, [r4, #0]
 8002d00:	9003      	str	r0, [sp, #12]
 8002d02:	695a      	ldr	r2, [r3, #20]
 8002d04:	4639      	mov	r1, r7
 8002d06:	9203      	str	r2, [sp, #12]
 8002d08:	699b      	ldr	r3, [r3, #24]
 8002d0a:	4642      	mov	r2, r8
 8002d0c:	9303      	str	r3, [sp, #12]
 8002d0e:	4620      	mov	r0, r4
 8002d10:	9b03      	ldr	r3, [sp, #12]
 8002d12:	f7ff ff42 	bl	8002b9a <I2C_WaitOnTXEFlagUntilTimeout>
 8002d16:	b140      	cbz	r0, 8002d2a <I2C_RequestMemoryRead+0x92>
 8002d18:	6c23      	ldr	r3, [r4, #64]	; 0x40
 8002d1a:	2b04      	cmp	r3, #4
 8002d1c:	bf01      	itttt	eq
 8002d1e:	6822      	ldreq	r2, [r4, #0]
 8002d20:	6813      	ldreq	r3, [r2, #0]
 8002d22:	f443 7300 	orreq.w	r3, r3, #512	; 0x200
 8002d26:	6013      	streq	r3, [r2, #0]
 8002d28:	e7e7      	b.n	8002cfa <I2C_RequestMemoryRead+0x62>
 8002d2a:	f1ba 0f01 	cmp.w	sl, #1
 8002d2e:	6823      	ldr	r3, [r4, #0]
 8002d30:	d11a      	bne.n	8002d68 <I2C_RequestMemoryRead+0xd0>
 8002d32:	b2ed      	uxtb	r5, r5
 8002d34:	4642      	mov	r2, r8
 8002d36:	4639      	mov	r1, r7
 8002d38:	4620      	mov	r0, r4
 8002d3a:	611d      	str	r5, [r3, #16]
 8002d3c:	f7ff ff2d 	bl	8002b9a <I2C_WaitOnTXEFlagUntilTimeout>
 8002d40:	4602      	mov	r2, r0
 8002d42:	2800      	cmp	r0, #0
 8002d44:	d1e8      	bne.n	8002d18 <I2C_RequestMemoryRead+0x80>
 8002d46:	6821      	ldr	r1, [r4, #0]
 8002d48:	4620      	mov	r0, r4
 8002d4a:	680b      	ldr	r3, [r1, #0]
 8002d4c:	f443 7380 	orr.w	r3, r3, #256	; 0x100
 8002d50:	600b      	str	r3, [r1, #0]
 8002d52:	463b      	mov	r3, r7
 8002d54:	f04f 1101 	mov.w	r1, #65537	; 0x10001
 8002d58:	f8cd 8000 	str.w	r8, [sp]
 8002d5c:	f7ff fe5b 	bl	8002a16 <I2C_WaitOnFlagUntilTimeout>
 8002d60:	6822      	ldr	r2, [r4, #0]
 8002d62:	b160      	cbz	r0, 8002d7e <I2C_RequestMemoryRead+0xe6>
 8002d64:	6813      	ldr	r3, [r2, #0]
 8002d66:	e7b3      	b.n	8002cd0 <I2C_RequestMemoryRead+0x38>
 8002d68:	0a2a      	lsrs	r2, r5, #8
 8002d6a:	611a      	str	r2, [r3, #16]
 8002d6c:	4639      	mov	r1, r7
 8002d6e:	4642      	mov	r2, r8
 8002d70:	4620      	mov	r0, r4
 8002d72:	f7ff ff12 	bl	8002b9a <I2C_WaitOnTXEFlagUntilTimeout>
 8002d76:	2800      	cmp	r0, #0
 8002d78:	d1ce      	bne.n	8002d18 <I2C_RequestMemoryRead+0x80>
 8002d7a:	6823      	ldr	r3, [r4, #0]
 8002d7c:	e7d9      	b.n	8002d32 <I2C_RequestMemoryRead+0x9a>
 8002d7e:	f049 0301 	orr.w	r3, r9, #1
 8002d82:	6113      	str	r3, [r2, #16]
 8002d84:	4620      	mov	r0, r4
 8002d86:	4643      	mov	r3, r8
 8002d88:	463a      	mov	r2, r7
 8002d8a:	4903      	ldr	r1, [pc, #12]	; (8002d98 <I2C_RequestMemoryRead+0x100>)
 8002d8c:	f7ff fe75 	bl	8002a7a <I2C_WaitOnMasterAddressFlagUntilTimeout>
 8002d90:	3800      	subs	r0, #0
 8002d92:	bf18      	it	ne
 8002d94:	2001      	movne	r0, #1
 8002d96:	e7a1      	b.n	8002cdc <I2C_RequestMemoryRead+0x44>
 8002d98:	00010002 	.word	0x00010002

08002d9c <HAL_I2C_Init>:
 8002d9c:	b570      	push	{r4, r5, r6, lr}
 8002d9e:	4604      	mov	r4, r0
 8002da0:	b908      	cbnz	r0, 8002da6 <HAL_I2C_Init+0xa>
 8002da2:	2001      	movs	r0, #1
 8002da4:	bd70      	pop	{r4, r5, r6, pc}
 8002da6:	f890 303d 	ldrb.w	r3, [r0, #61]	; 0x3d
 8002daa:	f003 02ff 	and.w	r2, r3, #255	; 0xff
 8002dae:	b91b      	cbnz	r3, 8002db8 <HAL_I2C_Init+0x1c>
 8002db0:	f880 203c 	strb.w	r2, [r0, #60]	; 0x3c
 8002db4:	f7ff fafc 	bl	80023b0 <HAL_I2C_MspInit>
 8002db8:	2324      	movs	r3, #36	; 0x24
 8002dba:	f884 303d 	strb.w	r3, [r4, #61]	; 0x3d
 8002dbe:	6823      	ldr	r3, [r4, #0]
 8002dc0:	681a      	ldr	r2, [r3, #0]
 8002dc2:	f022 0201 	bic.w	r2, r2, #1
 8002dc6:	601a      	str	r2, [r3, #0]
 8002dc8:	681a      	ldr	r2, [r3, #0]
 8002dca:	f442 4200 	orr.w	r2, r2, #32768	; 0x8000
 8002dce:	601a      	str	r2, [r3, #0]
 8002dd0:	681a      	ldr	r2, [r3, #0]
 8002dd2:	f422 4200 	bic.w	r2, r2, #32768	; 0x8000
 8002dd6:	601a      	str	r2, [r3, #0]
 8002dd8:	f000 fcc8 	bl	800376c <HAL_RCC_GetPCLK1Freq>
 8002ddc:	4a3f      	ldr	r2, [pc, #252]	; (8002edc <HAL_I2C_Init+0x140>)
 8002dde:	6863      	ldr	r3, [r4, #4]
 8002de0:	4293      	cmp	r3, r2
 8002de2:	bf94      	ite	ls
 8002de4:	4a3e      	ldrls	r2, [pc, #248]	; (8002ee0 <HAL_I2C_Init+0x144>)
 8002de6:	4a3f      	ldrhi	r2, [pc, #252]	; (8002ee4 <HAL_I2C_Init+0x148>)
 8002de8:	4290      	cmp	r0, r2
 8002dea:	bf8c      	ite	hi
 8002dec:	2200      	movhi	r2, #0
 8002dee:	2201      	movls	r2, #1
 8002df0:	2a00      	cmp	r2, #0
 8002df2:	d1d6      	bne.n	8002da2 <HAL_I2C_Init+0x6>
 8002df4:	4e39      	ldr	r6, [pc, #228]	; (8002edc <HAL_I2C_Init+0x140>)
 8002df6:	493c      	ldr	r1, [pc, #240]	; (8002ee8 <HAL_I2C_Init+0x14c>)
 8002df8:	42b3      	cmp	r3, r6
 8002dfa:	fbb0 f1f1 	udiv	r1, r0, r1
 8002dfe:	bf88      	it	hi
 8002e00:	f44f 7696 	movhi.w	r6, #300	; 0x12c
 8002e04:	6822      	ldr	r2, [r4, #0]
 8002e06:	f100 30ff 	add.w	r0, r0, #4294967295
 8002e0a:	6855      	ldr	r5, [r2, #4]
 8002e0c:	f025 053f 	bic.w	r5, r5, #63	; 0x3f
 8002e10:	ea45 0501 	orr.w	r5, r5, r1
 8002e14:	bf82      	ittt	hi
 8002e16:	4371      	mulhi	r1, r6
 8002e18:	f44f 767a 	movhi.w	r6, #1000	; 0x3e8
 8002e1c:	fbb1 f1f6 	udivhi	r1, r1, r6
 8002e20:	6055      	str	r5, [r2, #4]
 8002e22:	6a15      	ldr	r5, [r2, #32]
 8002e24:	3101      	adds	r1, #1
 8002e26:	f025 053f 	bic.w	r5, r5, #63	; 0x3f
 8002e2a:	4329      	orrs	r1, r5
 8002e2c:	6211      	str	r1, [r2, #32]
 8002e2e:	69d1      	ldr	r1, [r2, #28]
 8002e30:	4d2a      	ldr	r5, [pc, #168]	; (8002edc <HAL_I2C_Init+0x140>)
 8002e32:	f421 414f 	bic.w	r1, r1, #52992	; 0xcf00
 8002e36:	42ab      	cmp	r3, r5
 8002e38:	f021 01ff 	bic.w	r1, r1, #255	; 0xff
 8002e3c:	d832      	bhi.n	8002ea4 <HAL_I2C_Init+0x108>
 8002e3e:	005b      	lsls	r3, r3, #1
 8002e40:	fbb0 f0f3 	udiv	r0, r0, r3
 8002e44:	1c43      	adds	r3, r0, #1
 8002e46:	f640 70fc 	movw	r0, #4092	; 0xffc
 8002e4a:	4203      	tst	r3, r0
 8002e4c:	d042      	beq.n	8002ed4 <HAL_I2C_Init+0x138>
 8002e4e:	f3c3 030b 	ubfx	r3, r3, #0, #12
 8002e52:	430b      	orrs	r3, r1
 8002e54:	61d3      	str	r3, [r2, #28]
 8002e56:	6811      	ldr	r1, [r2, #0]
 8002e58:	e9d4 3007 	ldrd	r3, r0, [r4, #28]
 8002e5c:	f021 01c0 	bic.w	r1, r1, #192	; 0xc0
 8002e60:	4303      	orrs	r3, r0
 8002e62:	430b      	orrs	r3, r1
 8002e64:	6013      	str	r3, [r2, #0]
 8002e66:	6891      	ldr	r1, [r2, #8]
 8002e68:	e9d4 0303 	ldrd	r0, r3, [r4, #12]
 8002e6c:	f421 4103 	bic.w	r1, r1, #33536	; 0x8300
 8002e70:	4303      	orrs	r3, r0
 8002e72:	f021 01ff 	bic.w	r1, r1, #255	; 0xff
 8002e76:	430b      	orrs	r3, r1
 8002e78:	6093      	str	r3, [r2, #8]
 8002e7a:	68d1      	ldr	r1, [r2, #12]
 8002e7c:	e9d4 3005 	ldrd	r3, r0, [r4, #20]
 8002e80:	f021 01ff 	bic.w	r1, r1, #255	; 0xff
 8002e84:	4303      	orrs	r3, r0
 8002e86:	430b      	orrs	r3, r1
 8002e88:	60d3      	str	r3, [r2, #12]
 8002e8a:	6813      	ldr	r3, [r2, #0]
 8002e8c:	2000      	movs	r0, #0
 8002e8e:	f043 0301 	orr.w	r3, r3, #1
 8002e92:	6013      	str	r3, [r2, #0]
 8002e94:	2320      	movs	r3, #32
 8002e96:	6420      	str	r0, [r4, #64]	; 0x40
 8002e98:	f884 303d 	strb.w	r3, [r4, #61]	; 0x3d
 8002e9c:	6320      	str	r0, [r4, #48]	; 0x30
 8002e9e:	f884 003e 	strb.w	r0, [r4, #62]	; 0x3e
 8002ea2:	e77f      	b.n	8002da4 <HAL_I2C_Init+0x8>
 8002ea4:	68a5      	ldr	r5, [r4, #8]
 8002ea6:	b955      	cbnz	r5, 8002ebe <HAL_I2C_Init+0x122>
 8002ea8:	eb03 0343 	add.w	r3, r3, r3, lsl #1
 8002eac:	fbb0 f3f3 	udiv	r3, r0, r3
 8002eb0:	3301      	adds	r3, #1
 8002eb2:	f3c3 030b 	ubfx	r3, r3, #0, #12
 8002eb6:	b17b      	cbz	r3, 8002ed8 <HAL_I2C_Init+0x13c>
 8002eb8:	f443 4300 	orr.w	r3, r3, #32768	; 0x8000
 8002ebc:	e7c9      	b.n	8002e52 <HAL_I2C_Init+0xb6>
 8002ebe:	2519      	movs	r5, #25
 8002ec0:	436b      	muls	r3, r5
 8002ec2:	fbb0 f3f3 	udiv	r3, r0, r3
 8002ec6:	3301      	adds	r3, #1
 8002ec8:	f3c3 030b 	ubfx	r3, r3, #0, #12
 8002ecc:	b123      	cbz	r3, 8002ed8 <HAL_I2C_Init+0x13c>
 8002ece:	f443 4340 	orr.w	r3, r3, #49152	; 0xc000
 8002ed2:	e7be      	b.n	8002e52 <HAL_I2C_Init+0xb6>
 8002ed4:	2304      	movs	r3, #4
 8002ed6:	e7bc      	b.n	8002e52 <HAL_I2C_Init+0xb6>
 8002ed8:	2301      	movs	r3, #1
 8002eda:	e7ba      	b.n	8002e52 <HAL_I2C_Init+0xb6>
 8002edc:	000186a0 	.word	0x000186a0
 8002ee0:	001e847f 	.word	0x001e847f
 8002ee4:	003d08ff 	.word	0x003d08ff
 8002ee8:	000f4240 	.word	0x000f4240

08002eec <HAL_I2C_Mem_Write>:
 8002eec:	e92d 43f7 	stmdb	sp!, {r0, r1, r2, r4, r5, r6, r7, r8, r9, lr}
 8002ef0:	4604      	mov	r4, r0
 8002ef2:	4699      	mov	r9, r3
 8002ef4:	460f      	mov	r7, r1
 8002ef6:	4690      	mov	r8, r2
 8002ef8:	9e0c      	ldr	r6, [sp, #48]	; 0x30
 8002efa:	f7ff fc0d 	bl	8002718 <HAL_GetTick>
 8002efe:	f894 303d 	ldrb.w	r3, [r4, #61]	; 0x3d
 8002f02:	4605      	mov	r5, r0
 8002f04:	2b20      	cmp	r3, #32
 8002f06:	d003      	beq.n	8002f10 <HAL_I2C_Mem_Write+0x24>
 8002f08:	2002      	movs	r0, #2
 8002f0a:	b003      	add	sp, #12
 8002f0c:	e8bd 83f0 	ldmia.w	sp!, {r4, r5, r6, r7, r8, r9, pc}
 8002f10:	9000      	str	r0, [sp, #0]
 8002f12:	2319      	movs	r3, #25
 8002f14:	2201      	movs	r2, #1
 8002f16:	4620      	mov	r0, r4
 8002f18:	493a      	ldr	r1, [pc, #232]	; (8003004 <HAL_I2C_Mem_Write+0x118>)
 8002f1a:	f7ff fd7c 	bl	8002a16 <I2C_WaitOnFlagUntilTimeout>
 8002f1e:	2800      	cmp	r0, #0
 8002f20:	d1f2      	bne.n	8002f08 <HAL_I2C_Mem_Write+0x1c>
 8002f22:	f894 303c 	ldrb.w	r3, [r4, #60]	; 0x3c
 8002f26:	2b01      	cmp	r3, #1
 8002f28:	d0ee      	beq.n	8002f08 <HAL_I2C_Mem_Write+0x1c>
 8002f2a:	2301      	movs	r3, #1
 8002f2c:	6820      	ldr	r0, [r4, #0]
 8002f2e:	f884 303c 	strb.w	r3, [r4, #60]	; 0x3c
 8002f32:	6803      	ldr	r3, [r0, #0]
 8002f34:	4642      	mov	r2, r8
 8002f36:	07d9      	lsls	r1, r3, #31
 8002f38:	bf58      	it	pl
 8002f3a:	6803      	ldrpl	r3, [r0, #0]
 8002f3c:	4639      	mov	r1, r7
 8002f3e:	bf5c      	itt	pl
 8002f40:	f043 0301 	orrpl.w	r3, r3, #1
 8002f44:	6003      	strpl	r3, [r0, #0]
 8002f46:	6803      	ldr	r3, [r0, #0]
 8002f48:	f423 6300 	bic.w	r3, r3, #2048	; 0x800
 8002f4c:	6003      	str	r3, [r0, #0]
 8002f4e:	2321      	movs	r3, #33	; 0x21
 8002f50:	f884 303d 	strb.w	r3, [r4, #61]	; 0x3d
 8002f54:	2340      	movs	r3, #64	; 0x40
 8002f56:	f884 303e 	strb.w	r3, [r4, #62]	; 0x3e
 8002f5a:	2300      	movs	r3, #0
 8002f5c:	6423      	str	r3, [r4, #64]	; 0x40
 8002f5e:	9b0a      	ldr	r3, [sp, #40]	; 0x28
 8002f60:	4620      	mov	r0, r4
 8002f62:	6263      	str	r3, [r4, #36]	; 0x24
 8002f64:	f8bd 302c 	ldrh.w	r3, [sp, #44]	; 0x2c
 8002f68:	e9cd 6500 	strd	r6, r5, [sp]
 8002f6c:	8563      	strh	r3, [r4, #42]	; 0x2a
 8002f6e:	8d63      	ldrh	r3, [r4, #42]	; 0x2a
 8002f70:	8523      	strh	r3, [r4, #40]	; 0x28
 8002f72:	4b25      	ldr	r3, [pc, #148]	; (8003008 <HAL_I2C_Mem_Write+0x11c>)
 8002f74:	62e3      	str	r3, [r4, #44]	; 0x2c
 8002f76:	464b      	mov	r3, r9
 8002f78:	f7ff fe36 	bl	8002be8 <I2C_RequestMemoryWrite>
 8002f7c:	2800      	cmp	r0, #0
 8002f7e:	d02a      	beq.n	8002fd6 <HAL_I2C_Mem_Write+0xea>
 8002f80:	2001      	movs	r0, #1
 8002f82:	e7c2      	b.n	8002f0a <HAL_I2C_Mem_Write+0x1e>
 8002f84:	f7ff fe09 	bl	8002b9a <I2C_WaitOnTXEFlagUntilTimeout>
 8002f88:	b140      	cbz	r0, 8002f9c <HAL_I2C_Mem_Write+0xb0>
 8002f8a:	6c23      	ldr	r3, [r4, #64]	; 0x40
 8002f8c:	2b04      	cmp	r3, #4
 8002f8e:	bf01      	itttt	eq
 8002f90:	6822      	ldreq	r2, [r4, #0]
 8002f92:	6813      	ldreq	r3, [r2, #0]
 8002f94:	f443 7300 	orreq.w	r3, r3, #512	; 0x200
 8002f98:	6013      	streq	r3, [r2, #0]
 8002f9a:	e7f1      	b.n	8002f80 <HAL_I2C_Mem_Write+0x94>
 8002f9c:	6a63      	ldr	r3, [r4, #36]	; 0x24
 8002f9e:	6827      	ldr	r7, [r4, #0]
 8002fa0:	461a      	mov	r2, r3
 8002fa2:	f812 1b01 	ldrb.w	r1, [r2], #1
 8002fa6:	6139      	str	r1, [r7, #16]
 8002fa8:	6262      	str	r2, [r4, #36]	; 0x24
 8002faa:	8d62      	ldrh	r2, [r4, #42]	; 0x2a
 8002fac:	8d21      	ldrh	r1, [r4, #40]	; 0x28
 8002fae:	3a01      	subs	r2, #1
 8002fb0:	b292      	uxth	r2, r2
 8002fb2:	8562      	strh	r2, [r4, #42]	; 0x2a
 8002fb4:	697a      	ldr	r2, [r7, #20]
 8002fb6:	1e48      	subs	r0, r1, #1
 8002fb8:	b280      	uxth	r0, r0
 8002fba:	0752      	lsls	r2, r2, #29
 8002fbc:	8520      	strh	r0, [r4, #40]	; 0x28
 8002fbe:	d50a      	bpl.n	8002fd6 <HAL_I2C_Mem_Write+0xea>
 8002fc0:	b148      	cbz	r0, 8002fd6 <HAL_I2C_Mem_Write+0xea>
 8002fc2:	785a      	ldrb	r2, [r3, #1]
 8002fc4:	3302      	adds	r3, #2
 8002fc6:	613a      	str	r2, [r7, #16]
 8002fc8:	6263      	str	r3, [r4, #36]	; 0x24
 8002fca:	8d63      	ldrh	r3, [r4, #42]	; 0x2a
 8002fcc:	3902      	subs	r1, #2
 8002fce:	3b01      	subs	r3, #1
 8002fd0:	b29b      	uxth	r3, r3
 8002fd2:	8521      	strh	r1, [r4, #40]	; 0x28
 8002fd4:	8563      	strh	r3, [r4, #42]	; 0x2a
 8002fd6:	8d23      	ldrh	r3, [r4, #40]	; 0x28
 8002fd8:	462a      	mov	r2, r5
 8002fda:	4631      	mov	r1, r6
 8002fdc:	4620      	mov	r0, r4
 8002fde:	2b00      	cmp	r3, #0
 8002fe0:	d1d0      	bne.n	8002f84 <HAL_I2C_Mem_Write+0x98>
 8002fe2:	f7ff fdb4 	bl	8002b4e <I2C_WaitOnBTFFlagUntilTimeout>
 8002fe6:	2800      	cmp	r0, #0
 8002fe8:	d1cf      	bne.n	8002f8a <HAL_I2C_Mem_Write+0x9e>
 8002fea:	6822      	ldr	r2, [r4, #0]
 8002fec:	6813      	ldr	r3, [r2, #0]
 8002fee:	f443 7300 	orr.w	r3, r3, #512	; 0x200
 8002ff2:	6013      	str	r3, [r2, #0]
 8002ff4:	2320      	movs	r3, #32
 8002ff6:	f884 003c 	strb.w	r0, [r4, #60]	; 0x3c
 8002ffa:	f884 303d 	strb.w	r3, [r4, #61]	; 0x3d
 8002ffe:	f884 003e 	strb.w	r0, [r4, #62]	; 0x3e
 8003002:	e782      	b.n	8002f0a <HAL_I2C_Mem_Write+0x1e>
 8003004:	00100002 	.word	0x00100002
 8003008:	ffff0000 	.word	0xffff0000

0800300c <HAL_I2C_Mem_Read>:
 800300c:	e92d 43f0 	stmdb	sp!, {r4, r5, r6, r7, r8, r9, lr}
 8003010:	4699      	mov	r9, r3
 8003012:	2300      	movs	r3, #0
 8003014:	4604      	mov	r4, r0
 8003016:	b089      	sub	sp, #36	; 0x24
 8003018:	9303      	str	r3, [sp, #12]
 800301a:	460d      	mov	r5, r1
 800301c:	4690      	mov	r8, r2
 800301e:	9f12      	ldr	r7, [sp, #72]	; 0x48
 8003020:	f7ff fb7a 	bl	8002718 <HAL_GetTick>
 8003024:	f894 303d 	ldrb.w	r3, [r4, #61]	; 0x3d
 8003028:	4606      	mov	r6, r0
 800302a:	2b20      	cmp	r3, #32
 800302c:	d004      	beq.n	8003038 <HAL_I2C_Mem_Read+0x2c>
 800302e:	2502      	movs	r5, #2
 8003030:	4628      	mov	r0, r5
 8003032:	b009      	add	sp, #36	; 0x24
 8003034:	e8bd 83f0 	ldmia.w	sp!, {r4, r5, r6, r7, r8, r9, pc}
 8003038:	9000      	str	r0, [sp, #0]
 800303a:	2319      	movs	r3, #25
 800303c:	2201      	movs	r2, #1
 800303e:	4620      	mov	r0, r4
 8003040:	498d      	ldr	r1, [pc, #564]	; (8003278 <HAL_I2C_Mem_Read+0x26c>)
 8003042:	f7ff fce8 	bl	8002a16 <I2C_WaitOnFlagUntilTimeout>
 8003046:	2800      	cmp	r0, #0
 8003048:	d1f1      	bne.n	800302e <HAL_I2C_Mem_Read+0x22>
 800304a:	f894 303c 	ldrb.w	r3, [r4, #60]	; 0x3c
 800304e:	2b01      	cmp	r3, #1
 8003050:	d0ed      	beq.n	800302e <HAL_I2C_Mem_Read+0x22>
 8003052:	2301      	movs	r3, #1
 8003054:	6820      	ldr	r0, [r4, #0]
 8003056:	f884 303c 	strb.w	r3, [r4, #60]	; 0x3c
 800305a:	6803      	ldr	r3, [r0, #0]
 800305c:	4629      	mov	r1, r5
 800305e:	07db      	lsls	r3, r3, #31
 8003060:	bf58      	it	pl
 8003062:	6803      	ldrpl	r3, [r0, #0]
 8003064:	4642      	mov	r2, r8
 8003066:	bf5c      	itt	pl
 8003068:	f043 0301 	orrpl.w	r3, r3, #1
 800306c:	6003      	strpl	r3, [r0, #0]
 800306e:	6803      	ldr	r3, [r0, #0]
 8003070:	f423 6300 	bic.w	r3, r3, #2048	; 0x800
 8003074:	6003      	str	r3, [r0, #0]
 8003076:	2322      	movs	r3, #34	; 0x22
 8003078:	f884 303d 	strb.w	r3, [r4, #61]	; 0x3d
 800307c:	2340      	movs	r3, #64	; 0x40
 800307e:	f884 303e 	strb.w	r3, [r4, #62]	; 0x3e
 8003082:	2300      	movs	r3, #0
 8003084:	6423      	str	r3, [r4, #64]	; 0x40
 8003086:	9b10      	ldr	r3, [sp, #64]	; 0x40
 8003088:	4620      	mov	r0, r4
 800308a:	6263      	str	r3, [r4, #36]	; 0x24
 800308c:	f8bd 3044 	ldrh.w	r3, [sp, #68]	; 0x44
 8003090:	e9cd 7600 	strd	r7, r6, [sp]
 8003094:	8563      	strh	r3, [r4, #42]	; 0x2a
 8003096:	8d63      	ldrh	r3, [r4, #42]	; 0x2a
 8003098:	8523      	strh	r3, [r4, #40]	; 0x28
 800309a:	4b78      	ldr	r3, [pc, #480]	; (800327c <HAL_I2C_Mem_Read+0x270>)
 800309c:	62e3      	str	r3, [r4, #44]	; 0x2c
 800309e:	464b      	mov	r3, r9
 80030a0:	f7ff fdfa 	bl	8002c98 <I2C_RequestMemoryRead>
 80030a4:	4605      	mov	r5, r0
 80030a6:	b108      	cbz	r0, 80030ac <HAL_I2C_Mem_Read+0xa0>
 80030a8:	2501      	movs	r5, #1
 80030aa:	e7c1      	b.n	8003030 <HAL_I2C_Mem_Read+0x24>
 80030ac:	8d22      	ldrh	r2, [r4, #40]	; 0x28
 80030ae:	6823      	ldr	r3, [r4, #0]
 80030b0:	b9c2      	cbnz	r2, 80030e4 <HAL_I2C_Mem_Read+0xd8>
 80030b2:	9004      	str	r0, [sp, #16]
 80030b4:	695a      	ldr	r2, [r3, #20]
 80030b6:	9204      	str	r2, [sp, #16]
 80030b8:	699a      	ldr	r2, [r3, #24]
 80030ba:	9204      	str	r2, [sp, #16]
 80030bc:	9a04      	ldr	r2, [sp, #16]
 80030be:	681a      	ldr	r2, [r3, #0]
 80030c0:	f442 7200 	orr.w	r2, r2, #512	; 0x200
 80030c4:	601a      	str	r2, [r3, #0]
 80030c6:	f8df 81b8 	ldr.w	r8, [pc, #440]	; 8003280 <HAL_I2C_Mem_Read+0x274>
 80030ca:	f8df 91b8 	ldr.w	r9, [pc, #440]	; 8003284 <HAL_I2C_Mem_Read+0x278>
 80030ce:	8d23      	ldrh	r3, [r4, #40]	; 0x28
 80030d0:	2b00      	cmp	r3, #0
 80030d2:	d137      	bne.n	8003144 <HAL_I2C_Mem_Read+0x138>
 80030d4:	2220      	movs	r2, #32
 80030d6:	f884 303c 	strb.w	r3, [r4, #60]	; 0x3c
 80030da:	f884 203d 	strb.w	r2, [r4, #61]	; 0x3d
 80030de:	f884 303e 	strb.w	r3, [r4, #62]	; 0x3e
 80030e2:	e7a5      	b.n	8003030 <HAL_I2C_Mem_Read+0x24>
 80030e4:	2a01      	cmp	r2, #1
 80030e6:	d111      	bne.n	800310c <HAL_I2C_Mem_Read+0x100>
 80030e8:	681a      	ldr	r2, [r3, #0]
 80030ea:	f422 6280 	bic.w	r2, r2, #1024	; 0x400
 80030ee:	601a      	str	r2, [r3, #0]
 80030f0:	b672      	cpsid	i
 80030f2:	6823      	ldr	r3, [r4, #0]
 80030f4:	9005      	str	r0, [sp, #20]
 80030f6:	695a      	ldr	r2, [r3, #20]
 80030f8:	9205      	str	r2, [sp, #20]
 80030fa:	699a      	ldr	r2, [r3, #24]
 80030fc:	9205      	str	r2, [sp, #20]
 80030fe:	9a05      	ldr	r2, [sp, #20]
 8003100:	681a      	ldr	r2, [r3, #0]
 8003102:	f442 7200 	orr.w	r2, r2, #512	; 0x200
 8003106:	601a      	str	r2, [r3, #0]
 8003108:	b662      	cpsie	i
 800310a:	e7dc      	b.n	80030c6 <HAL_I2C_Mem_Read+0xba>
 800310c:	2a02      	cmp	r2, #2
 800310e:	681a      	ldr	r2, [r3, #0]
 8003110:	d10e      	bne.n	8003130 <HAL_I2C_Mem_Read+0x124>
 8003112:	f442 6200 	orr.w	r2, r2, #2048	; 0x800
 8003116:	601a      	str	r2, [r3, #0]
 8003118:	b672      	cpsid	i
 800311a:	6823      	ldr	r3, [r4, #0]
 800311c:	9006      	str	r0, [sp, #24]
 800311e:	695a      	ldr	r2, [r3, #20]
 8003120:	9206      	str	r2, [sp, #24]
 8003122:	699a      	ldr	r2, [r3, #24]
 8003124:	9206      	str	r2, [sp, #24]
 8003126:	9a06      	ldr	r2, [sp, #24]
 8003128:	681a      	ldr	r2, [r3, #0]
 800312a:	f422 6280 	bic.w	r2, r2, #1024	; 0x400
 800312e:	e7ea      	b.n	8003106 <HAL_I2C_Mem_Read+0xfa>
 8003130:	f442 6280 	orr.w	r2, r2, #1024	; 0x400
 8003134:	601a      	str	r2, [r3, #0]
 8003136:	9007      	str	r0, [sp, #28]
 8003138:	695a      	ldr	r2, [r3, #20]
 800313a:	9207      	str	r2, [sp, #28]
 800313c:	699b      	ldr	r3, [r3, #24]
 800313e:	9307      	str	r3, [sp, #28]
 8003140:	9b07      	ldr	r3, [sp, #28]
 8003142:	e7c0      	b.n	80030c6 <HAL_I2C_Mem_Read+0xba>
 8003144:	2b03      	cmp	r3, #3
 8003146:	d878      	bhi.n	800323a <HAL_I2C_Mem_Read+0x22e>
 8003148:	2b01      	cmp	r3, #1
 800314a:	d115      	bne.n	8003178 <HAL_I2C_Mem_Read+0x16c>
 800314c:	4632      	mov	r2, r6
 800314e:	4639      	mov	r1, r7
 8003150:	4620      	mov	r0, r4
 8003152:	f7ff fccd 	bl	8002af0 <I2C_WaitOnRXNEFlagUntilTimeout>
 8003156:	2800      	cmp	r0, #0
 8003158:	d1a6      	bne.n	80030a8 <HAL_I2C_Mem_Read+0x9c>
 800315a:	6823      	ldr	r3, [r4, #0]
 800315c:	691a      	ldr	r2, [r3, #16]
 800315e:	6a63      	ldr	r3, [r4, #36]	; 0x24
 8003160:	701a      	strb	r2, [r3, #0]
 8003162:	6a63      	ldr	r3, [r4, #36]	; 0x24
 8003164:	3301      	adds	r3, #1
 8003166:	6263      	str	r3, [r4, #36]	; 0x24
 8003168:	8d23      	ldrh	r3, [r4, #40]	; 0x28
 800316a:	3b01      	subs	r3, #1
 800316c:	8523      	strh	r3, [r4, #40]	; 0x28
 800316e:	8d63      	ldrh	r3, [r4, #42]	; 0x2a
 8003170:	3b01      	subs	r3, #1
 8003172:	b29b      	uxth	r3, r3
 8003174:	8563      	strh	r3, [r4, #42]	; 0x2a
 8003176:	e7aa      	b.n	80030ce <HAL_I2C_Mem_Read+0xc2>
 8003178:	2b02      	cmp	r3, #2
 800317a:	f04f 0200 	mov.w	r2, #0
 800317e:	463b      	mov	r3, r7
 8003180:	4641      	mov	r1, r8
 8003182:	4620      	mov	r0, r4
 8003184:	9600      	str	r6, [sp, #0]
 8003186:	d118      	bne.n	80031ba <HAL_I2C_Mem_Read+0x1ae>
 8003188:	f7ff fc45 	bl	8002a16 <I2C_WaitOnFlagUntilTimeout>
 800318c:	2800      	cmp	r0, #0
 800318e:	d18b      	bne.n	80030a8 <HAL_I2C_Mem_Read+0x9c>
 8003190:	b672      	cpsid	i
 8003192:	6823      	ldr	r3, [r4, #0]
 8003194:	681a      	ldr	r2, [r3, #0]
 8003196:	f442 7200 	orr.w	r2, r2, #512	; 0x200
 800319a:	601a      	str	r2, [r3, #0]
 800319c:	691a      	ldr	r2, [r3, #16]
 800319e:	6a63      	ldr	r3, [r4, #36]	; 0x24
 80031a0:	701a      	strb	r2, [r3, #0]
 80031a2:	6a63      	ldr	r3, [r4, #36]	; 0x24
 80031a4:	3301      	adds	r3, #1
 80031a6:	6263      	str	r3, [r4, #36]	; 0x24
 80031a8:	8d23      	ldrh	r3, [r4, #40]	; 0x28
 80031aa:	3b01      	subs	r3, #1
 80031ac:	8523      	strh	r3, [r4, #40]	; 0x28
 80031ae:	8d63      	ldrh	r3, [r4, #42]	; 0x2a
 80031b0:	3b01      	subs	r3, #1
 80031b2:	b29b      	uxth	r3, r3
 80031b4:	8563      	strh	r3, [r4, #42]	; 0x2a
 80031b6:	b662      	cpsie	i
 80031b8:	e7cf      	b.n	800315a <HAL_I2C_Mem_Read+0x14e>
 80031ba:	f7ff fc2c 	bl	8002a16 <I2C_WaitOnFlagUntilTimeout>
 80031be:	2800      	cmp	r0, #0
 80031c0:	f47f af72 	bne.w	80030a8 <HAL_I2C_Mem_Read+0x9c>
 80031c4:	6822      	ldr	r2, [r4, #0]
 80031c6:	6813      	ldr	r3, [r2, #0]
 80031c8:	f423 6380 	bic.w	r3, r3, #1024	; 0x400
 80031cc:	6013      	str	r3, [r2, #0]
 80031ce:	b672      	cpsid	i
 80031d0:	f246 11a8 	movw	r1, #25000	; 0x61a8
 80031d4:	6823      	ldr	r3, [r4, #0]
 80031d6:	691a      	ldr	r2, [r3, #16]
 80031d8:	6a63      	ldr	r3, [r4, #36]	; 0x24
 80031da:	701a      	strb	r2, [r3, #0]
 80031dc:	6a62      	ldr	r2, [r4, #36]	; 0x24
 80031de:	1c53      	adds	r3, r2, #1
 80031e0:	6263      	str	r3, [r4, #36]	; 0x24
 80031e2:	8d23      	ldrh	r3, [r4, #40]	; 0x28
 80031e4:	3b01      	subs	r3, #1
 80031e6:	8523      	strh	r3, [r4, #40]	; 0x28
 80031e8:	8d63      	ldrh	r3, [r4, #42]	; 0x2a
 80031ea:	3b01      	subs	r3, #1
 80031ec:	b29b      	uxth	r3, r3
 80031ee:	8563      	strh	r3, [r4, #42]	; 0x2a
 80031f0:	f8d9 3000 	ldr.w	r3, [r9]
 80031f4:	fbb3 f3f1 	udiv	r3, r3, r1
 80031f8:	2123      	movs	r1, #35	; 0x23
 80031fa:	434b      	muls	r3, r1
 80031fc:	9303      	str	r3, [sp, #12]
 80031fe:	9b03      	ldr	r3, [sp, #12]
 8003200:	3b01      	subs	r3, #1
 8003202:	9303      	str	r3, [sp, #12]
 8003204:	9b03      	ldr	r3, [sp, #12]
 8003206:	b96b      	cbnz	r3, 8003224 <HAL_I2C_Mem_Read+0x218>
 8003208:	2220      	movs	r2, #32
 800320a:	6323      	str	r3, [r4, #48]	; 0x30
 800320c:	f884 203d 	strb.w	r2, [r4, #61]	; 0x3d
 8003210:	f884 303e 	strb.w	r3, [r4, #62]	; 0x3e
 8003214:	6c22      	ldr	r2, [r4, #64]	; 0x40
 8003216:	f042 0220 	orr.w	r2, r2, #32
 800321a:	6422      	str	r2, [r4, #64]	; 0x40
 800321c:	b662      	cpsie	i
 800321e:	f884 303c 	strb.w	r3, [r4, #60]	; 0x3c
 8003222:	e741      	b.n	80030a8 <HAL_I2C_Mem_Read+0x9c>
 8003224:	6823      	ldr	r3, [r4, #0]
 8003226:	6959      	ldr	r1, [r3, #20]
 8003228:	0748      	lsls	r0, r1, #29
 800322a:	d5e8      	bpl.n	80031fe <HAL_I2C_Mem_Read+0x1f2>
 800322c:	6819      	ldr	r1, [r3, #0]
 800322e:	f441 7100 	orr.w	r1, r1, #512	; 0x200
 8003232:	6019      	str	r1, [r3, #0]
 8003234:	691b      	ldr	r3, [r3, #16]
 8003236:	7053      	strb	r3, [r2, #1]
 8003238:	e7b3      	b.n	80031a2 <HAL_I2C_Mem_Read+0x196>
 800323a:	4632      	mov	r2, r6
 800323c:	4639      	mov	r1, r7
 800323e:	4620      	mov	r0, r4
 8003240:	f7ff fc56 	bl	8002af0 <I2C_WaitOnRXNEFlagUntilTimeout>
 8003244:	2800      	cmp	r0, #0
 8003246:	f47f af2f 	bne.w	80030a8 <HAL_I2C_Mem_Read+0x9c>
 800324a:	6823      	ldr	r3, [r4, #0]
 800324c:	691a      	ldr	r2, [r3, #16]
 800324e:	6a63      	ldr	r3, [r4, #36]	; 0x24
 8003250:	701a      	strb	r2, [r3, #0]
 8003252:	6a62      	ldr	r2, [r4, #36]	; 0x24
 8003254:	1c53      	adds	r3, r2, #1
 8003256:	6263      	str	r3, [r4, #36]	; 0x24
 8003258:	8d23      	ldrh	r3, [r4, #40]	; 0x28
 800325a:	3b01      	subs	r3, #1
 800325c:	8523      	strh	r3, [r4, #40]	; 0x28
 800325e:	8d63      	ldrh	r3, [r4, #42]	; 0x2a
 8003260:	3b01      	subs	r3, #1
 8003262:	b29b      	uxth	r3, r3
 8003264:	8563      	strh	r3, [r4, #42]	; 0x2a
 8003266:	6823      	ldr	r3, [r4, #0]
 8003268:	6959      	ldr	r1, [r3, #20]
 800326a:	0749      	lsls	r1, r1, #29
 800326c:	f57f af2f 	bpl.w	80030ce <HAL_I2C_Mem_Read+0xc2>
 8003270:	691b      	ldr	r3, [r3, #16]
 8003272:	7053      	strb	r3, [r2, #1]
 8003274:	e775      	b.n	8003162 <HAL_I2C_Mem_Read+0x156>
 8003276:	bf00      	nop
 8003278:	00100002 	.word	0x00100002
 800327c:	ffff0000 	.word	0xffff0000
 8003280:	00010004 	.word	0x00010004
 8003284:	2000003c 	.word	0x2000003c

08003288 <HAL_RCC_OscConfig>:
 8003288:	e92d 41f3 	stmdb	sp!, {r0, r1, r4, r5, r6, r7, r8, lr}
 800328c:	4605      	mov	r5, r0
 800328e:	b338      	cbz	r0, 80032e0 <HAL_RCC_OscConfig+0x58>
 8003290:	6803      	ldr	r3, [r0, #0]
 8003292:	07db      	lsls	r3, r3, #31
 8003294:	d410      	bmi.n	80032b8 <HAL_RCC_OscConfig+0x30>
 8003296:	682b      	ldr	r3, [r5, #0]
 8003298:	079f      	lsls	r7, r3, #30
 800329a:	d45e      	bmi.n	800335a <HAL_RCC_OscConfig+0xd2>
 800329c:	682b      	ldr	r3, [r5, #0]
 800329e:	0719      	lsls	r1, r3, #28
 80032a0:	f100 8095 	bmi.w	80033ce <HAL_RCC_OscConfig+0x146>
 80032a4:	682b      	ldr	r3, [r5, #0]
 80032a6:	075a      	lsls	r2, r3, #29
 80032a8:	f100 80c1 	bmi.w	800342e <HAL_RCC_OscConfig+0x1a6>
 80032ac:	69e8      	ldr	r0, [r5, #28]
 80032ae:	2800      	cmp	r0, #0
 80032b0:	f040 812c 	bne.w	800350c <HAL_RCC_OscConfig+0x284>
 80032b4:	2000      	movs	r0, #0
 80032b6:	e029      	b.n	800330c <HAL_RCC_OscConfig+0x84>
 80032b8:	4c90      	ldr	r4, [pc, #576]	; (80034fc <HAL_RCC_OscConfig+0x274>)
 80032ba:	6863      	ldr	r3, [r4, #4]
 80032bc:	f003 030c 	and.w	r3, r3, #12
 80032c0:	2b04      	cmp	r3, #4
 80032c2:	d007      	beq.n	80032d4 <HAL_RCC_OscConfig+0x4c>
 80032c4:	6863      	ldr	r3, [r4, #4]
 80032c6:	f003 030c 	and.w	r3, r3, #12
 80032ca:	2b08      	cmp	r3, #8
 80032cc:	d10a      	bne.n	80032e4 <HAL_RCC_OscConfig+0x5c>
 80032ce:	6863      	ldr	r3, [r4, #4]
 80032d0:	03de      	lsls	r6, r3, #15
 80032d2:	d507      	bpl.n	80032e4 <HAL_RCC_OscConfig+0x5c>
 80032d4:	6823      	ldr	r3, [r4, #0]
 80032d6:	039c      	lsls	r4, r3, #14
 80032d8:	d5dd      	bpl.n	8003296 <HAL_RCC_OscConfig+0xe>
 80032da:	686b      	ldr	r3, [r5, #4]
 80032dc:	2b00      	cmp	r3, #0
 80032de:	d1da      	bne.n	8003296 <HAL_RCC_OscConfig+0xe>
 80032e0:	2001      	movs	r0, #1
 80032e2:	e013      	b.n	800330c <HAL_RCC_OscConfig+0x84>
 80032e4:	686b      	ldr	r3, [r5, #4]
 80032e6:	f5b3 3f80 	cmp.w	r3, #65536	; 0x10000
 80032ea:	d112      	bne.n	8003312 <HAL_RCC_OscConfig+0x8a>
 80032ec:	6823      	ldr	r3, [r4, #0]
 80032ee:	f443 3380 	orr.w	r3, r3, #65536	; 0x10000
 80032f2:	6023      	str	r3, [r4, #0]
 80032f4:	f7ff fa10 	bl	8002718 <HAL_GetTick>
 80032f8:	4606      	mov	r6, r0
 80032fa:	6823      	ldr	r3, [r4, #0]
 80032fc:	0398      	lsls	r0, r3, #14
 80032fe:	d4ca      	bmi.n	8003296 <HAL_RCC_OscConfig+0xe>
 8003300:	f7ff fa0a 	bl	8002718 <HAL_GetTick>
 8003304:	1b80      	subs	r0, r0, r6
 8003306:	2864      	cmp	r0, #100	; 0x64
 8003308:	d9f7      	bls.n	80032fa <HAL_RCC_OscConfig+0x72>
 800330a:	2003      	movs	r0, #3
 800330c:	b002      	add	sp, #8
 800330e:	e8bd 81f0 	ldmia.w	sp!, {r4, r5, r6, r7, r8, pc}
 8003312:	b99b      	cbnz	r3, 800333c <HAL_RCC_OscConfig+0xb4>
 8003314:	6823      	ldr	r3, [r4, #0]
 8003316:	f423 3380 	bic.w	r3, r3, #65536	; 0x10000
 800331a:	6023      	str	r3, [r4, #0]
 800331c:	6823      	ldr	r3, [r4, #0]
 800331e:	f423 2380 	bic.w	r3, r3, #262144	; 0x40000
 8003322:	6023      	str	r3, [r4, #0]
 8003324:	f7ff f9f8 	bl	8002718 <HAL_GetTick>
 8003328:	4606      	mov	r6, r0
 800332a:	6823      	ldr	r3, [r4, #0]
 800332c:	0399      	lsls	r1, r3, #14
 800332e:	d5b2      	bpl.n	8003296 <HAL_RCC_OscConfig+0xe>
 8003330:	f7ff f9f2 	bl	8002718 <HAL_GetTick>
 8003334:	1b80      	subs	r0, r0, r6
 8003336:	2864      	cmp	r0, #100	; 0x64
 8003338:	d9f7      	bls.n	800332a <HAL_RCC_OscConfig+0xa2>
 800333a:	e7e6      	b.n	800330a <HAL_RCC_OscConfig+0x82>
 800333c:	f5b3 2fa0 	cmp.w	r3, #327680	; 0x50000
 8003340:	6823      	ldr	r3, [r4, #0]
 8003342:	d103      	bne.n	800334c <HAL_RCC_OscConfig+0xc4>
 8003344:	f443 2380 	orr.w	r3, r3, #262144	; 0x40000
 8003348:	6023      	str	r3, [r4, #0]
 800334a:	e7cf      	b.n	80032ec <HAL_RCC_OscConfig+0x64>
 800334c:	f423 3380 	bic.w	r3, r3, #65536	; 0x10000
 8003350:	6023      	str	r3, [r4, #0]
 8003352:	6823      	ldr	r3, [r4, #0]
 8003354:	f423 2380 	bic.w	r3, r3, #262144	; 0x40000
 8003358:	e7cb      	b.n	80032f2 <HAL_RCC_OscConfig+0x6a>
 800335a:	4c68      	ldr	r4, [pc, #416]	; (80034fc <HAL_RCC_OscConfig+0x274>)
 800335c:	6863      	ldr	r3, [r4, #4]
 800335e:	f013 0f0c 	tst.w	r3, #12
 8003362:	d007      	beq.n	8003374 <HAL_RCC_OscConfig+0xec>
 8003364:	6863      	ldr	r3, [r4, #4]
 8003366:	f003 030c 	and.w	r3, r3, #12
 800336a:	2b08      	cmp	r3, #8
 800336c:	d110      	bne.n	8003390 <HAL_RCC_OscConfig+0x108>
 800336e:	6863      	ldr	r3, [r4, #4]
 8003370:	03da      	lsls	r2, r3, #15
 8003372:	d40d      	bmi.n	8003390 <HAL_RCC_OscConfig+0x108>
 8003374:	6823      	ldr	r3, [r4, #0]
 8003376:	079b      	lsls	r3, r3, #30
 8003378:	d502      	bpl.n	8003380 <HAL_RCC_OscConfig+0xf8>
 800337a:	692b      	ldr	r3, [r5, #16]
 800337c:	2b01      	cmp	r3, #1
 800337e:	d1af      	bne.n	80032e0 <HAL_RCC_OscConfig+0x58>
 8003380:	6823      	ldr	r3, [r4, #0]
 8003382:	696a      	ldr	r2, [r5, #20]
 8003384:	f023 03f8 	bic.w	r3, r3, #248	; 0xf8
 8003388:	ea43 03c2 	orr.w	r3, r3, r2, lsl #3
 800338c:	6023      	str	r3, [r4, #0]
 800338e:	e785      	b.n	800329c <HAL_RCC_OscConfig+0x14>
 8003390:	692a      	ldr	r2, [r5, #16]
 8003392:	4b5b      	ldr	r3, [pc, #364]	; (8003500 <HAL_RCC_OscConfig+0x278>)
 8003394:	b16a      	cbz	r2, 80033b2 <HAL_RCC_OscConfig+0x12a>
 8003396:	2201      	movs	r2, #1
 8003398:	601a      	str	r2, [r3, #0]
 800339a:	f7ff f9bd 	bl	8002718 <HAL_GetTick>
 800339e:	4606      	mov	r6, r0
 80033a0:	6823      	ldr	r3, [r4, #0]
 80033a2:	079f      	lsls	r7, r3, #30
 80033a4:	d4ec      	bmi.n	8003380 <HAL_RCC_OscConfig+0xf8>
 80033a6:	f7ff f9b7 	bl	8002718 <HAL_GetTick>
 80033aa:	1b80      	subs	r0, r0, r6
 80033ac:	2802      	cmp	r0, #2
 80033ae:	d9f7      	bls.n	80033a0 <HAL_RCC_OscConfig+0x118>
 80033b0:	e7ab      	b.n	800330a <HAL_RCC_OscConfig+0x82>
 80033b2:	601a      	str	r2, [r3, #0]
 80033b4:	f7ff f9b0 	bl	8002718 <HAL_GetTick>
 80033b8:	4606      	mov	r6, r0
 80033ba:	6823      	ldr	r3, [r4, #0]
 80033bc:	0798      	lsls	r0, r3, #30
 80033be:	f57f af6d 	bpl.w	800329c <HAL_RCC_OscConfig+0x14>
 80033c2:	f7ff f9a9 	bl	8002718 <HAL_GetTick>
 80033c6:	1b80      	subs	r0, r0, r6
 80033c8:	2802      	cmp	r0, #2
 80033ca:	d9f6      	bls.n	80033ba <HAL_RCC_OscConfig+0x132>
 80033cc:	e79d      	b.n	800330a <HAL_RCC_OscConfig+0x82>
 80033ce:	69aa      	ldr	r2, [r5, #24]
 80033d0:	4e4a      	ldr	r6, [pc, #296]	; (80034fc <HAL_RCC_OscConfig+0x274>)
 80033d2:	4b4b      	ldr	r3, [pc, #300]	; (8003500 <HAL_RCC_OscConfig+0x278>)
 80033d4:	b1e2      	cbz	r2, 8003410 <HAL_RCC_OscConfig+0x188>
 80033d6:	2201      	movs	r2, #1
 80033d8:	f8c3 2480 	str.w	r2, [r3, #1152]	; 0x480
 80033dc:	f7ff f99c 	bl	8002718 <HAL_GetTick>
 80033e0:	4604      	mov	r4, r0
 80033e2:	6a73      	ldr	r3, [r6, #36]	; 0x24
 80033e4:	079b      	lsls	r3, r3, #30
 80033e6:	d50d      	bpl.n	8003404 <HAL_RCC_OscConfig+0x17c>
 80033e8:	f44f 52fa 	mov.w	r2, #8000	; 0x1f40
 80033ec:	4b45      	ldr	r3, [pc, #276]	; (8003504 <HAL_RCC_OscConfig+0x27c>)
 80033ee:	681b      	ldr	r3, [r3, #0]
 80033f0:	fbb3 f3f2 	udiv	r3, r3, r2
 80033f4:	9301      	str	r3, [sp, #4]
 80033f6:	bf00      	nop
 80033f8:	9b01      	ldr	r3, [sp, #4]
 80033fa:	1e5a      	subs	r2, r3, #1
 80033fc:	9201      	str	r2, [sp, #4]
 80033fe:	2b00      	cmp	r3, #0
 8003400:	d1f9      	bne.n	80033f6 <HAL_RCC_OscConfig+0x16e>
 8003402:	e74f      	b.n	80032a4 <HAL_RCC_OscConfig+0x1c>
 8003404:	f7ff f988 	bl	8002718 <HAL_GetTick>
 8003408:	1b00      	subs	r0, r0, r4
 800340a:	2802      	cmp	r0, #2
 800340c:	d9e9      	bls.n	80033e2 <HAL_RCC_OscConfig+0x15a>
 800340e:	e77c      	b.n	800330a <HAL_RCC_OscConfig+0x82>
 8003410:	f8c3 2480 	str.w	r2, [r3, #1152]	; 0x480
 8003414:	f7ff f980 	bl	8002718 <HAL_GetTick>
 8003418:	4604      	mov	r4, r0
 800341a:	6a73      	ldr	r3, [r6, #36]	; 0x24
 800341c:	079f      	lsls	r7, r3, #30
 800341e:	f57f af41 	bpl.w	80032a4 <HAL_RCC_OscConfig+0x1c>
 8003422:	f7ff f979 	bl	8002718 <HAL_GetTick>
 8003426:	1b00      	subs	r0, r0, r4
 8003428:	2802      	cmp	r0, #2
 800342a:	d9f6      	bls.n	800341a <HAL_RCC_OscConfig+0x192>
 800342c:	e76d      	b.n	800330a <HAL_RCC_OscConfig+0x82>
 800342e:	4c33      	ldr	r4, [pc, #204]	; (80034fc <HAL_RCC_OscConfig+0x274>)
 8003430:	69e3      	ldr	r3, [r4, #28]
 8003432:	00d8      	lsls	r0, r3, #3
 8003434:	d424      	bmi.n	8003480 <HAL_RCC_OscConfig+0x1f8>
 8003436:	2701      	movs	r7, #1
 8003438:	69e3      	ldr	r3, [r4, #28]
 800343a:	f043 5380 	orr.w	r3, r3, #268435456	; 0x10000000
 800343e:	61e3      	str	r3, [r4, #28]
 8003440:	69e3      	ldr	r3, [r4, #28]
 8003442:	f003 5380 	and.w	r3, r3, #268435456	; 0x10000000
 8003446:	9300      	str	r3, [sp, #0]
 8003448:	9b00      	ldr	r3, [sp, #0]
 800344a:	4e2f      	ldr	r6, [pc, #188]	; (8003508 <HAL_RCC_OscConfig+0x280>)
 800344c:	6833      	ldr	r3, [r6, #0]
 800344e:	05d9      	lsls	r1, r3, #23
 8003450:	d518      	bpl.n	8003484 <HAL_RCC_OscConfig+0x1fc>
 8003452:	68eb      	ldr	r3, [r5, #12]
 8003454:	2b01      	cmp	r3, #1
 8003456:	d126      	bne.n	80034a6 <HAL_RCC_OscConfig+0x21e>
 8003458:	6a23      	ldr	r3, [r4, #32]
 800345a:	f043 0301 	orr.w	r3, r3, #1
 800345e:	6223      	str	r3, [r4, #32]
 8003460:	f7ff f95a 	bl	8002718 <HAL_GetTick>
 8003464:	f241 3888 	movw	r8, #5000	; 0x1388
 8003468:	4606      	mov	r6, r0
 800346a:	6a23      	ldr	r3, [r4, #32]
 800346c:	079b      	lsls	r3, r3, #30
 800346e:	d53f      	bpl.n	80034f0 <HAL_RCC_OscConfig+0x268>
 8003470:	2f00      	cmp	r7, #0
 8003472:	f43f af1b 	beq.w	80032ac <HAL_RCC_OscConfig+0x24>
 8003476:	69e3      	ldr	r3, [r4, #28]
 8003478:	f023 5380 	bic.w	r3, r3, #268435456	; 0x10000000
 800347c:	61e3      	str	r3, [r4, #28]
 800347e:	e715      	b.n	80032ac <HAL_RCC_OscConfig+0x24>
 8003480:	2700      	movs	r7, #0
 8003482:	e7e2      	b.n	800344a <HAL_RCC_OscConfig+0x1c2>
 8003484:	6833      	ldr	r3, [r6, #0]
 8003486:	f443 7380 	orr.w	r3, r3, #256	; 0x100
 800348a:	6033      	str	r3, [r6, #0]
 800348c:	f7ff f944 	bl	8002718 <HAL_GetTick>
 8003490:	4680      	mov	r8, r0
 8003492:	6833      	ldr	r3, [r6, #0]
 8003494:	05da      	lsls	r2, r3, #23
 8003496:	d4dc      	bmi.n	8003452 <HAL_RCC_OscConfig+0x1ca>
 8003498:	f7ff f93e 	bl	8002718 <HAL_GetTick>
 800349c:	eba0 0008 	sub.w	r0, r0, r8
 80034a0:	2864      	cmp	r0, #100	; 0x64
 80034a2:	d9f6      	bls.n	8003492 <HAL_RCC_OscConfig+0x20a>
 80034a4:	e731      	b.n	800330a <HAL_RCC_OscConfig+0x82>
 80034a6:	b9ab      	cbnz	r3, 80034d4 <HAL_RCC_OscConfig+0x24c>
 80034a8:	6a23      	ldr	r3, [r4, #32]
 80034aa:	f241 3888 	movw	r8, #5000	; 0x1388
 80034ae:	f023 0301 	bic.w	r3, r3, #1
 80034b2:	6223      	str	r3, [r4, #32]
 80034b4:	6a23      	ldr	r3, [r4, #32]
 80034b6:	f023 0304 	bic.w	r3, r3, #4
 80034ba:	6223      	str	r3, [r4, #32]
 80034bc:	f7ff f92c 	bl	8002718 <HAL_GetTick>
 80034c0:	4606      	mov	r6, r0
 80034c2:	6a23      	ldr	r3, [r4, #32]
 80034c4:	0798      	lsls	r0, r3, #30
 80034c6:	d5d3      	bpl.n	8003470 <HAL_RCC_OscConfig+0x1e8>
 80034c8:	f7ff f926 	bl	8002718 <HAL_GetTick>
 80034cc:	1b80      	subs	r0, r0, r6
 80034ce:	4540      	cmp	r0, r8
 80034d0:	d9f7      	bls.n	80034c2 <HAL_RCC_OscConfig+0x23a>
 80034d2:	e71a      	b.n	800330a <HAL_RCC_OscConfig+0x82>
 80034d4:	2b05      	cmp	r3, #5
 80034d6:	6a23      	ldr	r3, [r4, #32]
 80034d8:	d103      	bne.n	80034e2 <HAL_RCC_OscConfig+0x25a>
 80034da:	f043 0304 	orr.w	r3, r3, #4
 80034de:	6223      	str	r3, [r4, #32]
 80034e0:	e7ba      	b.n	8003458 <HAL_RCC_OscConfig+0x1d0>
 80034e2:	f023 0301 	bic.w	r3, r3, #1
 80034e6:	6223      	str	r3, [r4, #32]
 80034e8:	6a23      	ldr	r3, [r4, #32]
 80034ea:	f023 0304 	bic.w	r3, r3, #4
 80034ee:	e7b6      	b.n	800345e <HAL_RCC_OscConfig+0x1d6>
 80034f0:	f7ff f912 	bl	8002718 <HAL_GetTick>
 80034f4:	1b80      	subs	r0, r0, r6
 80034f6:	4540      	cmp	r0, r8
 80034f8:	d9b7      	bls.n	800346a <HAL_RCC_OscConfig+0x1e2>
 80034fa:	e706      	b.n	800330a <HAL_RCC_OscConfig+0x82>
 80034fc:	40021000 	.word	0x40021000
 8003500:	42420000 	.word	0x42420000
 8003504:	2000003c 	.word	0x2000003c
 8003508:	40007000 	.word	0x40007000
 800350c:	4c2a      	ldr	r4, [pc, #168]	; (80035b8 <HAL_RCC_OscConfig+0x330>)
 800350e:	6863      	ldr	r3, [r4, #4]
 8003510:	f003 030c 	and.w	r3, r3, #12
 8003514:	2b08      	cmp	r3, #8
 8003516:	d03e      	beq.n	8003596 <HAL_RCC_OscConfig+0x30e>
 8003518:	2200      	movs	r2, #0
 800351a:	4b28      	ldr	r3, [pc, #160]	; (80035bc <HAL_RCC_OscConfig+0x334>)
 800351c:	2802      	cmp	r0, #2
 800351e:	661a      	str	r2, [r3, #96]	; 0x60
 8003520:	d12c      	bne.n	800357c <HAL_RCC_OscConfig+0x2f4>
 8003522:	f7ff f8f9 	bl	8002718 <HAL_GetTick>
 8003526:	4606      	mov	r6, r0
 8003528:	6823      	ldr	r3, [r4, #0]
 800352a:	0199      	lsls	r1, r3, #6
 800352c:	d420      	bmi.n	8003570 <HAL_RCC_OscConfig+0x2e8>
 800352e:	6a2b      	ldr	r3, [r5, #32]
 8003530:	f5b3 3f80 	cmp.w	r3, #65536	; 0x10000
 8003534:	d105      	bne.n	8003542 <HAL_RCC_OscConfig+0x2ba>
 8003536:	6862      	ldr	r2, [r4, #4]
 8003538:	68a9      	ldr	r1, [r5, #8]
 800353a:	f422 3200 	bic.w	r2, r2, #131072	; 0x20000
 800353e:	430a      	orrs	r2, r1
 8003540:	6062      	str	r2, [r4, #4]
 8003542:	6a69      	ldr	r1, [r5, #36]	; 0x24
 8003544:	6862      	ldr	r2, [r4, #4]
 8003546:	430b      	orrs	r3, r1
 8003548:	f422 1274 	bic.w	r2, r2, #3997696	; 0x3d0000
 800354c:	4313      	orrs	r3, r2
 800354e:	2201      	movs	r2, #1
 8003550:	6063      	str	r3, [r4, #4]
 8003552:	4b1a      	ldr	r3, [pc, #104]	; (80035bc <HAL_RCC_OscConfig+0x334>)
 8003554:	661a      	str	r2, [r3, #96]	; 0x60
 8003556:	f7ff f8df 	bl	8002718 <HAL_GetTick>
 800355a:	4605      	mov	r5, r0
 800355c:	6823      	ldr	r3, [r4, #0]
 800355e:	019a      	lsls	r2, r3, #6
 8003560:	f53f aea8 	bmi.w	80032b4 <HAL_RCC_OscConfig+0x2c>
 8003564:	f7ff f8d8 	bl	8002718 <HAL_GetTick>
 8003568:	1b40      	subs	r0, r0, r5
 800356a:	2802      	cmp	r0, #2
 800356c:	d9f6      	bls.n	800355c <HAL_RCC_OscConfig+0x2d4>
 800356e:	e6cc      	b.n	800330a <HAL_RCC_OscConfig+0x82>
 8003570:	f7ff f8d2 	bl	8002718 <HAL_GetTick>
 8003574:	1b80      	subs	r0, r0, r6
 8003576:	2802      	cmp	r0, #2
 8003578:	d9d6      	bls.n	8003528 <HAL_RCC_OscConfig+0x2a0>
 800357a:	e6c6      	b.n	800330a <HAL_RCC_OscConfig+0x82>
 800357c:	f7ff f8cc 	bl	8002718 <HAL_GetTick>
 8003580:	4605      	mov	r5, r0
 8003582:	6823      	ldr	r3, [r4, #0]
 8003584:	019b      	lsls	r3, r3, #6
 8003586:	f57f ae95 	bpl.w	80032b4 <HAL_RCC_OscConfig+0x2c>
 800358a:	f7ff f8c5 	bl	8002718 <HAL_GetTick>
 800358e:	1b40      	subs	r0, r0, r5
 8003590:	2802      	cmp	r0, #2
 8003592:	d9f6      	bls.n	8003582 <HAL_RCC_OscConfig+0x2fa>
 8003594:	e6b9      	b.n	800330a <HAL_RCC_OscConfig+0x82>
 8003596:	2801      	cmp	r0, #1
 8003598:	f43f aeb8 	beq.w	800330c <HAL_RCC_OscConfig+0x84>
 800359c:	6863      	ldr	r3, [r4, #4]
 800359e:	6a2a      	ldr	r2, [r5, #32]
 80035a0:	f403 3180 	and.w	r1, r3, #65536	; 0x10000
 80035a4:	4291      	cmp	r1, r2
 80035a6:	f47f ae9b 	bne.w	80032e0 <HAL_RCC_OscConfig+0x58>
 80035aa:	6a6a      	ldr	r2, [r5, #36]	; 0x24
 80035ac:	f403 1370 	and.w	r3, r3, #3932160	; 0x3c0000
 80035b0:	4293      	cmp	r3, r2
 80035b2:	f43f ae7f 	beq.w	80032b4 <HAL_RCC_OscConfig+0x2c>
 80035b6:	e693      	b.n	80032e0 <HAL_RCC_OscConfig+0x58>
 80035b8:	40021000 	.word	0x40021000
 80035bc:	42420000 	.word	0x42420000

080035c0 <HAL_RCC_GetSysClockFreq>:
 80035c0:	b530      	push	{r4, r5, lr}
 80035c2:	4b18      	ldr	r3, [pc, #96]	; (8003624 <HAL_RCC_GetSysClockFreq+0x64>)
 80035c4:	b087      	sub	sp, #28
 80035c6:	ac02      	add	r4, sp, #8
 80035c8:	f103 0510 	add.w	r5, r3, #16
 80035cc:	4622      	mov	r2, r4
 80035ce:	6818      	ldr	r0, [r3, #0]
 80035d0:	6859      	ldr	r1, [r3, #4]
 80035d2:	3308      	adds	r3, #8
 80035d4:	c203      	stmia	r2!, {r0, r1}
 80035d6:	42ab      	cmp	r3, r5
 80035d8:	4614      	mov	r4, r2
 80035da:	d1f7      	bne.n	80035cc <HAL_RCC_GetSysClockFreq+0xc>
 80035dc:	f240 2301 	movw	r3, #513	; 0x201
 80035e0:	4911      	ldr	r1, [pc, #68]	; (8003628 <HAL_RCC_GetSysClockFreq+0x68>)
 80035e2:	f8ad 3004 	strh.w	r3, [sp, #4]
 80035e6:	684b      	ldr	r3, [r1, #4]
 80035e8:	f003 020c 	and.w	r2, r3, #12
 80035ec:	2a08      	cmp	r2, #8
 80035ee:	d117      	bne.n	8003620 <HAL_RCC_GetSysClockFreq+0x60>
 80035f0:	f3c3 4283 	ubfx	r2, r3, #18, #4
 80035f4:	3218      	adds	r2, #24
 80035f6:	446a      	add	r2, sp
 80035f8:	03db      	lsls	r3, r3, #15
 80035fa:	f812 0c10 	ldrb.w	r0, [r2, #-16]
 80035fe:	d50c      	bpl.n	800361a <HAL_RCC_GetSysClockFreq+0x5a>
 8003600:	684b      	ldr	r3, [r1, #4]
 8003602:	4a0a      	ldr	r2, [pc, #40]	; (800362c <HAL_RCC_GetSysClockFreq+0x6c>)
 8003604:	f3c3 4340 	ubfx	r3, r3, #17, #1
 8003608:	4350      	muls	r0, r2
 800360a:	3318      	adds	r3, #24
 800360c:	446b      	add	r3, sp
 800360e:	f813 3c14 	ldrb.w	r3, [r3, #-20]
 8003612:	fbb0 f0f3 	udiv	r0, r0, r3
 8003616:	b007      	add	sp, #28
 8003618:	bd30      	pop	{r4, r5, pc}
 800361a:	4b05      	ldr	r3, [pc, #20]	; (8003630 <HAL_RCC_GetSysClockFreq+0x70>)
 800361c:	4358      	muls	r0, r3
 800361e:	e7fa      	b.n	8003616 <HAL_RCC_GetSysClockFreq+0x56>
 8003620:	4802      	ldr	r0, [pc, #8]	; (800362c <HAL_RCC_GetSysClockFreq+0x6c>)
 8003622:	e7f8      	b.n	8003616 <HAL_RCC_GetSysClockFreq+0x56>
 8003624:	080081b8 	.word	0x080081b8
 8003628:	40021000 	.word	0x40021000
 800362c:	007a1200 	.word	0x007a1200
 8003630:	003d0900 	.word	0x003d0900

08003634 <HAL_RCC_ClockConfig>:
 8003634:	e92d 41f0 	stmdb	sp!, {r4, r5, r6, r7, r8, lr}
 8003638:	460d      	mov	r5, r1
 800363a:	4604      	mov	r4, r0
 800363c:	b910      	cbnz	r0, 8003644 <HAL_RCC_ClockConfig+0x10>
 800363e:	2001      	movs	r0, #1
 8003640:	e8bd 81f0 	ldmia.w	sp!, {r4, r5, r6, r7, r8, pc}
 8003644:	4a44      	ldr	r2, [pc, #272]	; (8003758 <HAL_RCC_ClockConfig+0x124>)
 8003646:	6813      	ldr	r3, [r2, #0]
 8003648:	f003 0307 	and.w	r3, r3, #7
 800364c:	428b      	cmp	r3, r1
 800364e:	d328      	bcc.n	80036a2 <HAL_RCC_ClockConfig+0x6e>
 8003650:	6821      	ldr	r1, [r4, #0]
 8003652:	078e      	lsls	r6, r1, #30
 8003654:	d430      	bmi.n	80036b8 <HAL_RCC_ClockConfig+0x84>
 8003656:	07ca      	lsls	r2, r1, #31
 8003658:	d443      	bmi.n	80036e2 <HAL_RCC_ClockConfig+0xae>
 800365a:	4a3f      	ldr	r2, [pc, #252]	; (8003758 <HAL_RCC_ClockConfig+0x124>)
 800365c:	6813      	ldr	r3, [r2, #0]
 800365e:	f003 0307 	and.w	r3, r3, #7
 8003662:	42ab      	cmp	r3, r5
 8003664:	d865      	bhi.n	8003732 <HAL_RCC_ClockConfig+0xfe>
 8003666:	6822      	ldr	r2, [r4, #0]
 8003668:	4d3c      	ldr	r5, [pc, #240]	; (800375c <HAL_RCC_ClockConfig+0x128>)
 800366a:	f012 0f04 	tst.w	r2, #4
 800366e:	d16c      	bne.n	800374a <HAL_RCC_ClockConfig+0x116>
 8003670:	0713      	lsls	r3, r2, #28
 8003672:	d506      	bpl.n	8003682 <HAL_RCC_ClockConfig+0x4e>
 8003674:	686b      	ldr	r3, [r5, #4]
 8003676:	6922      	ldr	r2, [r4, #16]
 8003678:	f423 5360 	bic.w	r3, r3, #14336	; 0x3800
 800367c:	ea43 03c2 	orr.w	r3, r3, r2, lsl #3
 8003680:	606b      	str	r3, [r5, #4]
 8003682:	f7ff ff9d 	bl	80035c0 <HAL_RCC_GetSysClockFreq>
 8003686:	686b      	ldr	r3, [r5, #4]
 8003688:	4a35      	ldr	r2, [pc, #212]	; (8003760 <HAL_RCC_ClockConfig+0x12c>)
 800368a:	f3c3 1303 	ubfx	r3, r3, #4, #4
 800368e:	5cd3      	ldrb	r3, [r2, r3]
 8003690:	40d8      	lsrs	r0, r3
 8003692:	4b34      	ldr	r3, [pc, #208]	; (8003764 <HAL_RCC_ClockConfig+0x130>)
 8003694:	6018      	str	r0, [r3, #0]
 8003696:	4b34      	ldr	r3, [pc, #208]	; (8003768 <HAL_RCC_ClockConfig+0x134>)
 8003698:	6818      	ldr	r0, [r3, #0]
 800369a:	f7fe fffb 	bl	8002694 <HAL_InitTick>
 800369e:	2000      	movs	r0, #0
 80036a0:	e7ce      	b.n	8003640 <HAL_RCC_ClockConfig+0xc>
 80036a2:	6813      	ldr	r3, [r2, #0]
 80036a4:	f023 0307 	bic.w	r3, r3, #7
 80036a8:	430b      	orrs	r3, r1
 80036aa:	6013      	str	r3, [r2, #0]
 80036ac:	6813      	ldr	r3, [r2, #0]
 80036ae:	f003 0307 	and.w	r3, r3, #7
 80036b2:	428b      	cmp	r3, r1
 80036b4:	d1c3      	bne.n	800363e <HAL_RCC_ClockConfig+0xa>
 80036b6:	e7cb      	b.n	8003650 <HAL_RCC_ClockConfig+0x1c>
 80036b8:	4b28      	ldr	r3, [pc, #160]	; (800375c <HAL_RCC_ClockConfig+0x128>)
 80036ba:	f011 0f04 	tst.w	r1, #4
 80036be:	bf1e      	ittt	ne
 80036c0:	685a      	ldrne	r2, [r3, #4]
 80036c2:	f442 62e0 	orrne.w	r2, r2, #1792	; 0x700
 80036c6:	605a      	strne	r2, [r3, #4]
 80036c8:	0708      	lsls	r0, r1, #28
 80036ca:	bf42      	ittt	mi
 80036cc:	685a      	ldrmi	r2, [r3, #4]
 80036ce:	f442 5260 	orrmi.w	r2, r2, #14336	; 0x3800
 80036d2:	605a      	strmi	r2, [r3, #4]
 80036d4:	685a      	ldr	r2, [r3, #4]
 80036d6:	68a0      	ldr	r0, [r4, #8]
 80036d8:	f022 02f0 	bic.w	r2, r2, #240	; 0xf0
 80036dc:	4302      	orrs	r2, r0
 80036de:	605a      	str	r2, [r3, #4]
 80036e0:	e7b9      	b.n	8003656 <HAL_RCC_ClockConfig+0x22>
 80036e2:	6862      	ldr	r2, [r4, #4]
 80036e4:	4e1d      	ldr	r6, [pc, #116]	; (800375c <HAL_RCC_ClockConfig+0x128>)
 80036e6:	2a01      	cmp	r2, #1
 80036e8:	6833      	ldr	r3, [r6, #0]
 80036ea:	d11a      	bne.n	8003722 <HAL_RCC_ClockConfig+0xee>
 80036ec:	f413 3f00 	tst.w	r3, #131072	; 0x20000
 80036f0:	d0a5      	beq.n	800363e <HAL_RCC_ClockConfig+0xa>
 80036f2:	6873      	ldr	r3, [r6, #4]
 80036f4:	f241 3888 	movw	r8, #5000	; 0x1388
 80036f8:	f023 0303 	bic.w	r3, r3, #3
 80036fc:	4313      	orrs	r3, r2
 80036fe:	6073      	str	r3, [r6, #4]
 8003700:	f7ff f80a 	bl	8002718 <HAL_GetTick>
 8003704:	4607      	mov	r7, r0
 8003706:	6873      	ldr	r3, [r6, #4]
 8003708:	6862      	ldr	r2, [r4, #4]
 800370a:	f003 030c 	and.w	r3, r3, #12
 800370e:	ebb3 0f82 	cmp.w	r3, r2, lsl #2
 8003712:	d0a2      	beq.n	800365a <HAL_RCC_ClockConfig+0x26>
 8003714:	f7ff f800 	bl	8002718 <HAL_GetTick>
 8003718:	1bc0      	subs	r0, r0, r7
 800371a:	4540      	cmp	r0, r8
 800371c:	d9f3      	bls.n	8003706 <HAL_RCC_ClockConfig+0xd2>
 800371e:	2003      	movs	r0, #3
 8003720:	e78e      	b.n	8003640 <HAL_RCC_ClockConfig+0xc>
 8003722:	2a02      	cmp	r2, #2
 8003724:	d102      	bne.n	800372c <HAL_RCC_ClockConfig+0xf8>
 8003726:	f013 7f00 	tst.w	r3, #33554432	; 0x2000000
 800372a:	e7e1      	b.n	80036f0 <HAL_RCC_ClockConfig+0xbc>
 800372c:	f013 0f02 	tst.w	r3, #2
 8003730:	e7de      	b.n	80036f0 <HAL_RCC_ClockConfig+0xbc>
 8003732:	6813      	ldr	r3, [r2, #0]
 8003734:	f023 0307 	bic.w	r3, r3, #7
 8003738:	432b      	orrs	r3, r5
 800373a:	6013      	str	r3, [r2, #0]
 800373c:	6813      	ldr	r3, [r2, #0]
 800373e:	f003 0307 	and.w	r3, r3, #7
 8003742:	42ab      	cmp	r3, r5
 8003744:	f47f af7b 	bne.w	800363e <HAL_RCC_ClockConfig+0xa>
 8003748:	e78d      	b.n	8003666 <HAL_RCC_ClockConfig+0x32>
 800374a:	686b      	ldr	r3, [r5, #4]
 800374c:	68e1      	ldr	r1, [r4, #12]
 800374e:	f423 63e0 	bic.w	r3, r3, #1792	; 0x700
 8003752:	430b      	orrs	r3, r1
 8003754:	606b      	str	r3, [r5, #4]
 8003756:	e78b      	b.n	8003670 <HAL_RCC_ClockConfig+0x3c>
 8003758:	40022000 	.word	0x40022000
 800375c:	40021000 	.word	0x40021000
 8003760:	080081a0 	.word	0x080081a0
 8003764:	2000003c 	.word	0x2000003c
 8003768:	20000044 	.word	0x20000044

0800376c <HAL_RCC_GetPCLK1Freq>:
 800376c:	4b04      	ldr	r3, [pc, #16]	; (8003780 <HAL_RCC_GetPCLK1Freq+0x14>)
 800376e:	4a05      	ldr	r2, [pc, #20]	; (8003784 <HAL_RCC_GetPCLK1Freq+0x18>)
 8003770:	685b      	ldr	r3, [r3, #4]
 8003772:	f3c3 2302 	ubfx	r3, r3, #8, #3
 8003776:	5cd3      	ldrb	r3, [r2, r3]
 8003778:	4a03      	ldr	r2, [pc, #12]	; (8003788 <HAL_RCC_GetPCLK1Freq+0x1c>)
 800377a:	6810      	ldr	r0, [r2, #0]
 800377c:	40d8      	lsrs	r0, r3
 800377e:	4770      	bx	lr
 8003780:	40021000 	.word	0x40021000
 8003784:	080081b0 	.word	0x080081b0
 8003788:	2000003c 	.word	0x2000003c

0800378c <TIM_OC1_SetConfig>:
 800378c:	6a03      	ldr	r3, [r0, #32]
 800378e:	b570      	push	{r4, r5, r6, lr}
 8003790:	f023 0301 	bic.w	r3, r3, #1
 8003794:	6203      	str	r3, [r0, #32]
 8003796:	6a03      	ldr	r3, [r0, #32]
 8003798:	6844      	ldr	r4, [r0, #4]
 800379a:	6982      	ldr	r2, [r0, #24]
 800379c:	680d      	ldr	r5, [r1, #0]
 800379e:	f022 0273 	bic.w	r2, r2, #115	; 0x73
 80037a2:	432a      	orrs	r2, r5
 80037a4:	688d      	ldr	r5, [r1, #8]
 80037a6:	f023 0302 	bic.w	r3, r3, #2
 80037aa:	432b      	orrs	r3, r5
 80037ac:	4d0a      	ldr	r5, [pc, #40]	; (80037d8 <TIM_OC1_SetConfig+0x4c>)
 80037ae:	42a8      	cmp	r0, r5
 80037b0:	d10b      	bne.n	80037ca <TIM_OC1_SetConfig+0x3e>
 80037b2:	68cd      	ldr	r5, [r1, #12]
 80037b4:	f023 0308 	bic.w	r3, r3, #8
 80037b8:	432b      	orrs	r3, r5
 80037ba:	f424 7440 	bic.w	r4, r4, #768	; 0x300
 80037be:	e9d1 5605 	ldrd	r5, r6, [r1, #20]
 80037c2:	4335      	orrs	r5, r6
 80037c4:	f023 0304 	bic.w	r3, r3, #4
 80037c8:	432c      	orrs	r4, r5
 80037ca:	6044      	str	r4, [r0, #4]
 80037cc:	6182      	str	r2, [r0, #24]
 80037ce:	684a      	ldr	r2, [r1, #4]
 80037d0:	6342      	str	r2, [r0, #52]	; 0x34
 80037d2:	6203      	str	r3, [r0, #32]
 80037d4:	bd70      	pop	{r4, r5, r6, pc}
 80037d6:	bf00      	nop
 80037d8:	40012c00 	.word	0x40012c00

080037dc <TIM_OC3_SetConfig>:
 80037dc:	6a03      	ldr	r3, [r0, #32]
 80037de:	b570      	push	{r4, r5, r6, lr}
 80037e0:	f423 7380 	bic.w	r3, r3, #256	; 0x100
 80037e4:	6203      	str	r3, [r0, #32]
 80037e6:	6a03      	ldr	r3, [r0, #32]
 80037e8:	6844      	ldr	r4, [r0, #4]
 80037ea:	69c2      	ldr	r2, [r0, #28]
 80037ec:	680d      	ldr	r5, [r1, #0]
 80037ee:	f022 0273 	bic.w	r2, r2, #115	; 0x73
 80037f2:	432a      	orrs	r2, r5
 80037f4:	688d      	ldr	r5, [r1, #8]
 80037f6:	f423 7300 	bic.w	r3, r3, #512	; 0x200
 80037fa:	ea43 2305 	orr.w	r3, r3, r5, lsl #8
 80037fe:	4d0b      	ldr	r5, [pc, #44]	; (800382c <TIM_OC3_SetConfig+0x50>)
 8003800:	42a8      	cmp	r0, r5
 8003802:	d10d      	bne.n	8003820 <TIM_OC3_SetConfig+0x44>
 8003804:	68cd      	ldr	r5, [r1, #12]
 8003806:	f423 6300 	bic.w	r3, r3, #2048	; 0x800
 800380a:	ea43 2305 	orr.w	r3, r3, r5, lsl #8
 800380e:	f424 5440 	bic.w	r4, r4, #12288	; 0x3000
 8003812:	e9d1 5605 	ldrd	r5, r6, [r1, #20]
 8003816:	4335      	orrs	r5, r6
 8003818:	f423 6380 	bic.w	r3, r3, #1024	; 0x400
 800381c:	ea44 1405 	orr.w	r4, r4, r5, lsl #4
 8003820:	6044      	str	r4, [r0, #4]
 8003822:	61c2      	str	r2, [r0, #28]
 8003824:	684a      	ldr	r2, [r1, #4]
 8003826:	63c2      	str	r2, [r0, #60]	; 0x3c
 8003828:	6203      	str	r3, [r0, #32]
 800382a:	bd70      	pop	{r4, r5, r6, pc}
 800382c:	40012c00 	.word	0x40012c00

08003830 <TIM_OC4_SetConfig>:
 8003830:	6a03      	ldr	r3, [r0, #32]
 8003832:	b530      	push	{r4, r5, lr}
 8003834:	f423 5380 	bic.w	r3, r3, #4096	; 0x1000
 8003838:	6203      	str	r3, [r0, #32]
 800383a:	6a03      	ldr	r3, [r0, #32]
 800383c:	6844      	ldr	r4, [r0, #4]
 800383e:	69c2      	ldr	r2, [r0, #28]
 8003840:	680d      	ldr	r5, [r1, #0]
 8003842:	f422 42e6 	bic.w	r2, r2, #29440	; 0x7300
 8003846:	ea42 2205 	orr.w	r2, r2, r5, lsl #8
 800384a:	688d      	ldr	r5, [r1, #8]
 800384c:	f423 5300 	bic.w	r3, r3, #8192	; 0x2000
 8003850:	ea43 3305 	orr.w	r3, r3, r5, lsl #12
 8003854:	4d06      	ldr	r5, [pc, #24]	; (8003870 <TIM_OC4_SetConfig+0x40>)
 8003856:	42a8      	cmp	r0, r5
 8003858:	bf02      	ittt	eq
 800385a:	694d      	ldreq	r5, [r1, #20]
 800385c:	f424 4480 	biceq.w	r4, r4, #16384	; 0x4000
 8003860:	ea44 1485 	orreq.w	r4, r4, r5, lsl #6
 8003864:	6044      	str	r4, [r0, #4]
 8003866:	61c2      	str	r2, [r0, #28]
 8003868:	684a      	ldr	r2, [r1, #4]
 800386a:	6402      	str	r2, [r0, #64]	; 0x40
 800386c:	6203      	str	r3, [r0, #32]
 800386e:	bd30      	pop	{r4, r5, pc}
 8003870:	40012c00 	.word	0x40012c00

08003874 <HAL_TIM_PWM_MspInit>:
 8003874:	4770      	bx	lr

08003876 <HAL_TIM_ReadCapturedValue>:
 8003876:	2908      	cmp	r1, #8
 8003878:	d010      	beq.n	800389c <HAL_TIM_ReadCapturedValue+0x26>
 800387a:	d804      	bhi.n	8003886 <HAL_TIM_ReadCapturedValue+0x10>
 800387c:	b141      	cbz	r1, 8003890 <HAL_TIM_ReadCapturedValue+0x1a>
 800387e:	2904      	cmp	r1, #4
 8003880:	d009      	beq.n	8003896 <HAL_TIM_ReadCapturedValue+0x20>
 8003882:	2000      	movs	r0, #0
 8003884:	4770      	bx	lr
 8003886:	290c      	cmp	r1, #12
 8003888:	d1fb      	bne.n	8003882 <HAL_TIM_ReadCapturedValue+0xc>
 800388a:	6803      	ldr	r3, [r0, #0]
 800388c:	6c18      	ldr	r0, [r3, #64]	; 0x40
 800388e:	4770      	bx	lr
 8003890:	6803      	ldr	r3, [r0, #0]
 8003892:	6b58      	ldr	r0, [r3, #52]	; 0x34
 8003894:	4770      	bx	lr
 8003896:	6803      	ldr	r3, [r0, #0]
 8003898:	6b98      	ldr	r0, [r3, #56]	; 0x38
 800389a:	4770      	bx	lr
 800389c:	6803      	ldr	r3, [r0, #0]
 800389e:	6bd8      	ldr	r0, [r3, #60]	; 0x3c
 80038a0:	4770      	bx	lr

080038a2 <HAL_TIM_PeriodElapsedCallback>:
 80038a2:	4770      	bx	lr

080038a4 <HAL_TIM_OC_DelayElapsedCallback>:
 80038a4:	4770      	bx	lr

080038a6 <HAL_TIM_PWM_PulseFinishedCallback>:
 80038a6:	4770      	bx	lr

080038a8 <HAL_TIM_TriggerCallback>:
 80038a8:	4770      	bx	lr

080038aa <HAL_TIM_IRQHandler>:
 80038aa:	6803      	ldr	r3, [r0, #0]
 80038ac:	b510      	push	{r4, lr}
 80038ae:	691a      	ldr	r2, [r3, #16]
 80038b0:	4604      	mov	r4, r0
 80038b2:	0791      	lsls	r1, r2, #30
 80038b4:	d50e      	bpl.n	80038d4 <HAL_TIM_IRQHandler+0x2a>
 80038b6:	68da      	ldr	r2, [r3, #12]
 80038b8:	0792      	lsls	r2, r2, #30
 80038ba:	d50b      	bpl.n	80038d4 <HAL_TIM_IRQHandler+0x2a>
 80038bc:	f06f 0202 	mvn.w	r2, #2
 80038c0:	611a      	str	r2, [r3, #16]
 80038c2:	2201      	movs	r2, #1
 80038c4:	7702      	strb	r2, [r0, #28]
 80038c6:	699b      	ldr	r3, [r3, #24]
 80038c8:	079b      	lsls	r3, r3, #30
 80038ca:	d077      	beq.n	80039bc <HAL_TIM_IRQHandler+0x112>
 80038cc:	f7fd fc26 	bl	800111c <HAL_TIM_IC_CaptureCallback>
 80038d0:	2300      	movs	r3, #0
 80038d2:	7723      	strb	r3, [r4, #28]
 80038d4:	6823      	ldr	r3, [r4, #0]
 80038d6:	691a      	ldr	r2, [r3, #16]
 80038d8:	0750      	lsls	r0, r2, #29
 80038da:	d510      	bpl.n	80038fe <HAL_TIM_IRQHandler+0x54>
 80038dc:	68da      	ldr	r2, [r3, #12]
 80038de:	0751      	lsls	r1, r2, #29
 80038e0:	d50d      	bpl.n	80038fe <HAL_TIM_IRQHandler+0x54>
 80038e2:	f06f 0204 	mvn.w	r2, #4
 80038e6:	611a      	str	r2, [r3, #16]
 80038e8:	2202      	movs	r2, #2
 80038ea:	7722      	strb	r2, [r4, #28]
 80038ec:	699b      	ldr	r3, [r3, #24]
 80038ee:	4620      	mov	r0, r4
 80038f0:	f413 7f40 	tst.w	r3, #768	; 0x300
 80038f4:	d068      	beq.n	80039c8 <HAL_TIM_IRQHandler+0x11e>
 80038f6:	f7fd fc11 	bl	800111c <HAL_TIM_IC_CaptureCallback>
 80038fa:	2300      	movs	r3, #0
 80038fc:	7723      	strb	r3, [r4, #28]
 80038fe:	6823      	ldr	r3, [r4, #0]
 8003900:	691a      	ldr	r2, [r3, #16]
 8003902:	0712      	lsls	r2, r2, #28
 8003904:	d50f      	bpl.n	8003926 <HAL_TIM_IRQHandler+0x7c>
 8003906:	68da      	ldr	r2, [r3, #12]
 8003908:	0710      	lsls	r0, r2, #28
 800390a:	d50c      	bpl.n	8003926 <HAL_TIM_IRQHandler+0x7c>
 800390c:	f06f 0208 	mvn.w	r2, #8
 8003910:	611a      	str	r2, [r3, #16]
 8003912:	2204      	movs	r2, #4
 8003914:	7722      	strb	r2, [r4, #28]
 8003916:	69db      	ldr	r3, [r3, #28]
 8003918:	4620      	mov	r0, r4
 800391a:	0799      	lsls	r1, r3, #30
 800391c:	d05a      	beq.n	80039d4 <HAL_TIM_IRQHandler+0x12a>
 800391e:	f7fd fbfd 	bl	800111c <HAL_TIM_IC_CaptureCallback>
 8003922:	2300      	movs	r3, #0
 8003924:	7723      	strb	r3, [r4, #28]
 8003926:	6823      	ldr	r3, [r4, #0]
 8003928:	691a      	ldr	r2, [r3, #16]
 800392a:	06d2      	lsls	r2, r2, #27
 800392c:	d510      	bpl.n	8003950 <HAL_TIM_IRQHandler+0xa6>
 800392e:	68da      	ldr	r2, [r3, #12]
 8003930:	06d0      	lsls	r0, r2, #27
 8003932:	d50d      	bpl.n	8003950 <HAL_TIM_IRQHandler+0xa6>
 8003934:	f06f 0210 	mvn.w	r2, #16
 8003938:	611a      	str	r2, [r3, #16]
 800393a:	2208      	movs	r2, #8
 800393c:	7722      	strb	r2, [r4, #28]
 800393e:	69db      	ldr	r3, [r3, #28]
 8003940:	4620      	mov	r0, r4
 8003942:	f413 7f40 	tst.w	r3, #768	; 0x300
 8003946:	d04b      	beq.n	80039e0 <HAL_TIM_IRQHandler+0x136>
 8003948:	f7fd fbe8 	bl	800111c <HAL_TIM_IC_CaptureCallback>
 800394c:	2300      	movs	r3, #0
 800394e:	7723      	strb	r3, [r4, #28]
 8003950:	6823      	ldr	r3, [r4, #0]
 8003952:	691a      	ldr	r2, [r3, #16]
 8003954:	07d1      	lsls	r1, r2, #31
 8003956:	d508      	bpl.n	800396a <HAL_TIM_IRQHandler+0xc0>
 8003958:	68da      	ldr	r2, [r3, #12]
 800395a:	07d2      	lsls	r2, r2, #31
 800395c:	d505      	bpl.n	800396a <HAL_TIM_IRQHandler+0xc0>
 800395e:	f06f 0201 	mvn.w	r2, #1
 8003962:	4620      	mov	r0, r4
 8003964:	611a      	str	r2, [r3, #16]
 8003966:	f7ff ff9c 	bl	80038a2 <HAL_TIM_PeriodElapsedCallback>
 800396a:	6823      	ldr	r3, [r4, #0]
 800396c:	691a      	ldr	r2, [r3, #16]
 800396e:	0610      	lsls	r0, r2, #24
 8003970:	d508      	bpl.n	8003984 <HAL_TIM_IRQHandler+0xda>
 8003972:	68da      	ldr	r2, [r3, #12]
 8003974:	0611      	lsls	r1, r2, #24
 8003976:	d505      	bpl.n	8003984 <HAL_TIM_IRQHandler+0xda>
 8003978:	f06f 0280 	mvn.w	r2, #128	; 0x80
 800397c:	4620      	mov	r0, r4
 800397e:	611a      	str	r2, [r3, #16]
 8003980:	f000 fbc5 	bl	800410e <HAL_TIMEx_BreakCallback>
 8003984:	6823      	ldr	r3, [r4, #0]
 8003986:	691a      	ldr	r2, [r3, #16]
 8003988:	0652      	lsls	r2, r2, #25
 800398a:	d508      	bpl.n	800399e <HAL_TIM_IRQHandler+0xf4>
 800398c:	68da      	ldr	r2, [r3, #12]
 800398e:	0650      	lsls	r0, r2, #25
 8003990:	d505      	bpl.n	800399e <HAL_TIM_IRQHandler+0xf4>
 8003992:	f06f 0240 	mvn.w	r2, #64	; 0x40
 8003996:	4620      	mov	r0, r4
 8003998:	611a      	str	r2, [r3, #16]
 800399a:	f7ff ff85 	bl	80038a8 <HAL_TIM_TriggerCallback>
 800399e:	6823      	ldr	r3, [r4, #0]
 80039a0:	691a      	ldr	r2, [r3, #16]
 80039a2:	0691      	lsls	r1, r2, #26
 80039a4:	d522      	bpl.n	80039ec <HAL_TIM_IRQHandler+0x142>
 80039a6:	68da      	ldr	r2, [r3, #12]
 80039a8:	0692      	lsls	r2, r2, #26
 80039aa:	d51f      	bpl.n	80039ec <HAL_TIM_IRQHandler+0x142>
 80039ac:	f06f 0220 	mvn.w	r2, #32
 80039b0:	4620      	mov	r0, r4
 80039b2:	e8bd 4010 	ldmia.w	sp!, {r4, lr}
 80039b6:	611a      	str	r2, [r3, #16]
 80039b8:	f000 bba8 	b.w	800410c <HAL_TIMEx_CommutCallback>
 80039bc:	f7ff ff72 	bl	80038a4 <HAL_TIM_OC_DelayElapsedCallback>
 80039c0:	4620      	mov	r0, r4
 80039c2:	f7ff ff70 	bl	80038a6 <HAL_TIM_PWM_PulseFinishedCallback>
 80039c6:	e783      	b.n	80038d0 <HAL_TIM_IRQHandler+0x26>
 80039c8:	f7ff ff6c 	bl	80038a4 <HAL_TIM_OC_DelayElapsedCallback>
 80039cc:	4620      	mov	r0, r4
 80039ce:	f7ff ff6a 	bl	80038a6 <HAL_TIM_PWM_PulseFinishedCallback>
 80039d2:	e792      	b.n	80038fa <HAL_TIM_IRQHandler+0x50>
 80039d4:	f7ff ff66 	bl	80038a4 <HAL_TIM_OC_DelayElapsedCallback>
 80039d8:	4620      	mov	r0, r4
 80039da:	f7ff ff64 	bl	80038a6 <HAL_TIM_PWM_PulseFinishedCallback>
 80039de:	e7a0      	b.n	8003922 <HAL_TIM_IRQHandler+0x78>
 80039e0:	f7ff ff60 	bl	80038a4 <HAL_TIM_OC_DelayElapsedCallback>
 80039e4:	4620      	mov	r0, r4
 80039e6:	f7ff ff5e 	bl	80038a6 <HAL_TIM_PWM_PulseFinishedCallback>
 80039ea:	e7af      	b.n	800394c <HAL_TIM_IRQHandler+0xa2>
 80039ec:	bd10      	pop	{r4, pc}
	...

080039f0 <TIM_Base_SetConfig>:
 80039f0:	4a1a      	ldr	r2, [pc, #104]	; (8003a5c <TIM_Base_SetConfig+0x6c>)
 80039f2:	6803      	ldr	r3, [r0, #0]
 80039f4:	4290      	cmp	r0, r2
 80039f6:	d00a      	beq.n	8003a0e <TIM_Base_SetConfig+0x1e>
 80039f8:	f1b0 4f80 	cmp.w	r0, #1073741824	; 0x40000000
 80039fc:	d007      	beq.n	8003a0e <TIM_Base_SetConfig+0x1e>
 80039fe:	f5a2 3294 	sub.w	r2, r2, #75776	; 0x12800
 8003a02:	4290      	cmp	r0, r2
 8003a04:	d003      	beq.n	8003a0e <TIM_Base_SetConfig+0x1e>
 8003a06:	f502 6280 	add.w	r2, r2, #1024	; 0x400
 8003a0a:	4290      	cmp	r0, r2
 8003a0c:	d115      	bne.n	8003a3a <TIM_Base_SetConfig+0x4a>
 8003a0e:	684a      	ldr	r2, [r1, #4]
 8003a10:	f023 0370 	bic.w	r3, r3, #112	; 0x70
 8003a14:	4313      	orrs	r3, r2
 8003a16:	4a11      	ldr	r2, [pc, #68]	; (8003a5c <TIM_Base_SetConfig+0x6c>)
 8003a18:	4290      	cmp	r0, r2
 8003a1a:	d00a      	beq.n	8003a32 <TIM_Base_SetConfig+0x42>
 8003a1c:	f1b0 4f80 	cmp.w	r0, #1073741824	; 0x40000000
 8003a20:	d007      	beq.n	8003a32 <TIM_Base_SetConfig+0x42>
 8003a22:	f5a2 3294 	sub.w	r2, r2, #75776	; 0x12800
 8003a26:	4290      	cmp	r0, r2
 8003a28:	d003      	beq.n	8003a32 <TIM_Base_SetConfig+0x42>
 8003a2a:	f502 6280 	add.w	r2, r2, #1024	; 0x400
 8003a2e:	4290      	cmp	r0, r2
 8003a30:	d103      	bne.n	8003a3a <TIM_Base_SetConfig+0x4a>
 8003a32:	68ca      	ldr	r2, [r1, #12]
 8003a34:	f423 7340 	bic.w	r3, r3, #768	; 0x300
 8003a38:	4313      	orrs	r3, r2
 8003a3a:	694a      	ldr	r2, [r1, #20]
 8003a3c:	f023 0380 	bic.w	r3, r3, #128	; 0x80
 8003a40:	4313      	orrs	r3, r2
 8003a42:	6003      	str	r3, [r0, #0]
 8003a44:	688b      	ldr	r3, [r1, #8]
 8003a46:	62c3      	str	r3, [r0, #44]	; 0x2c
 8003a48:	680b      	ldr	r3, [r1, #0]
 8003a4a:	6283      	str	r3, [r0, #40]	; 0x28
 8003a4c:	4b03      	ldr	r3, [pc, #12]	; (8003a5c <TIM_Base_SetConfig+0x6c>)
 8003a4e:	4298      	cmp	r0, r3
 8003a50:	bf04      	itt	eq
 8003a52:	690b      	ldreq	r3, [r1, #16]
 8003a54:	6303      	streq	r3, [r0, #48]	; 0x30
 8003a56:	2301      	movs	r3, #1
 8003a58:	6143      	str	r3, [r0, #20]
 8003a5a:	4770      	bx	lr
 8003a5c:	40012c00 	.word	0x40012c00

08003a60 <HAL_TIM_Base_Init>:
 8003a60:	b510      	push	{r4, lr}
 8003a62:	4604      	mov	r4, r0
 8003a64:	b330      	cbz	r0, 8003ab4 <HAL_TIM_Base_Init+0x54>
 8003a66:	f890 303d 	ldrb.w	r3, [r0, #61]	; 0x3d
 8003a6a:	f003 02ff 	and.w	r2, r3, #255	; 0xff
 8003a6e:	b91b      	cbnz	r3, 8003a78 <HAL_TIM_Base_Init+0x18>
 8003a70:	f880 203c 	strb.w	r2, [r0, #60]	; 0x3c
 8003a74:	f7fe fd00 	bl	8002478 <HAL_TIM_Base_MspInit>
 8003a78:	2302      	movs	r3, #2
 8003a7a:	6820      	ldr	r0, [r4, #0]
 8003a7c:	f884 303d 	strb.w	r3, [r4, #61]	; 0x3d
 8003a80:	1d21      	adds	r1, r4, #4
 8003a82:	f7ff ffb5 	bl	80039f0 <TIM_Base_SetConfig>
 8003a86:	2301      	movs	r3, #1
 8003a88:	2000      	movs	r0, #0
 8003a8a:	f884 3046 	strb.w	r3, [r4, #70]	; 0x46
 8003a8e:	f884 303e 	strb.w	r3, [r4, #62]	; 0x3e
 8003a92:	f884 303f 	strb.w	r3, [r4, #63]	; 0x3f
 8003a96:	f884 3040 	strb.w	r3, [r4, #64]	; 0x40
 8003a9a:	f884 3041 	strb.w	r3, [r4, #65]	; 0x41
 8003a9e:	f884 3042 	strb.w	r3, [r4, #66]	; 0x42
 8003aa2:	f884 3043 	strb.w	r3, [r4, #67]	; 0x43
 8003aa6:	f884 3044 	strb.w	r3, [r4, #68]	; 0x44
 8003aaa:	f884 3045 	strb.w	r3, [r4, #69]	; 0x45
 8003aae:	f884 303d 	strb.w	r3, [r4, #61]	; 0x3d
 8003ab2:	bd10      	pop	{r4, pc}
 8003ab4:	2001      	movs	r0, #1
 8003ab6:	e7fc      	b.n	8003ab2 <HAL_TIM_Base_Init+0x52>

08003ab8 <HAL_TIM_PWM_Init>:
 8003ab8:	b510      	push	{r4, lr}
 8003aba:	4604      	mov	r4, r0
 8003abc:	b330      	cbz	r0, 8003b0c <HAL_TIM_PWM_Init+0x54>
 8003abe:	f890 303d 	ldrb.w	r3, [r0, #61]	; 0x3d
 8003ac2:	f003 02ff 	and.w	r2, r3, #255	; 0xff
 8003ac6:	b91b      	cbnz	r3, 8003ad0 <HAL_TIM_PWM_Init+0x18>
 8003ac8:	f880 203c 	strb.w	r2, [r0, #60]	; 0x3c
 8003acc:	f7ff fed2 	bl	8003874 <HAL_TIM_PWM_MspInit>
 8003ad0:	2302      	movs	r3, #2
 8003ad2:	6820      	ldr	r0, [r4, #0]
 8003ad4:	f884 303d 	strb.w	r3, [r4, #61]	; 0x3d
 8003ad8:	1d21      	adds	r1, r4, #4
 8003ada:	f7ff ff89 	bl	80039f0 <TIM_Base_SetConfig>
 8003ade:	2301      	movs	r3, #1
 8003ae0:	2000      	movs	r0, #0
 8003ae2:	f884 3046 	strb.w	r3, [r4, #70]	; 0x46
 8003ae6:	f884 303e 	strb.w	r3, [r4, #62]	; 0x3e
 8003aea:	f884 303f 	strb.w	r3, [r4, #63]	; 0x3f
 8003aee:	f884 3040 	strb.w	r3, [r4, #64]	; 0x40
 8003af2:	f884 3041 	strb.w	r3, [r4, #65]	; 0x41
 8003af6:	f884 3042 	strb.w	r3, [r4, #66]	; 0x42
 8003afa:	f884 3043 	strb.w	r3, [r4, #67]	; 0x43
 8003afe:	f884 3044 	strb.w	r3, [r4, #68]	; 0x44
 8003b02:	f884 3045 	strb.w	r3, [r4, #69]	; 0x45
 8003b06:	f884 303d 	strb.w	r3, [r4, #61]	; 0x3d
 8003b0a:	bd10      	pop	{r4, pc}
 8003b0c:	2001      	movs	r0, #1
 8003b0e:	e7fc      	b.n	8003b0a <HAL_TIM_PWM_Init+0x52>

08003b10 <HAL_TIM_IC_Init>:
 8003b10:	b510      	push	{r4, lr}
 8003b12:	4604      	mov	r4, r0
 8003b14:	b330      	cbz	r0, 8003b64 <HAL_TIM_IC_Init+0x54>
 8003b16:	f890 303d 	ldrb.w	r3, [r0, #61]	; 0x3d
 8003b1a:	f003 02ff 	and.w	r2, r3, #255	; 0xff
 8003b1e:	b91b      	cbnz	r3, 8003b28 <HAL_TIM_IC_Init+0x18>
 8003b20:	f880 203c 	strb.w	r2, [r0, #60]	; 0x3c
 8003b24:	f7fe fc76 	bl	8002414 <HAL_TIM_IC_MspInit>
 8003b28:	2302      	movs	r3, #2
 8003b2a:	6820      	ldr	r0, [r4, #0]
 8003b2c:	f884 303d 	strb.w	r3, [r4, #61]	; 0x3d
 8003b30:	1d21      	adds	r1, r4, #4
 8003b32:	f7ff ff5d 	bl	80039f0 <TIM_Base_SetConfig>
 8003b36:	2301      	movs	r3, #1
 8003b38:	2000      	movs	r0, #0
 8003b3a:	f884 3046 	strb.w	r3, [r4, #70]	; 0x46
 8003b3e:	f884 303e 	strb.w	r3, [r4, #62]	; 0x3e
 8003b42:	f884 303f 	strb.w	r3, [r4, #63]	; 0x3f
 8003b46:	f884 3040 	strb.w	r3, [r4, #64]	; 0x40
 8003b4a:	f884 3041 	strb.w	r3, [r4, #65]	; 0x41
 8003b4e:	f884 3042 	strb.w	r3, [r4, #66]	; 0x42
 8003b52:	f884 3043 	strb.w	r3, [r4, #67]	; 0x43
 8003b56:	f884 3044 	strb.w	r3, [r4, #68]	; 0x44
 8003b5a:	f884 3045 	strb.w	r3, [r4, #69]	; 0x45
 8003b5e:	f884 303d 	strb.w	r3, [r4, #61]	; 0x3d
 8003b62:	bd10      	pop	{r4, pc}
 8003b64:	2001      	movs	r0, #1
 8003b66:	e7fc      	b.n	8003b62 <HAL_TIM_IC_Init+0x52>

08003b68 <TIM_OC2_SetConfig>:
 8003b68:	6a03      	ldr	r3, [r0, #32]
 8003b6a:	b570      	push	{r4, r5, r6, lr}
 8003b6c:	f023 0310 	bic.w	r3, r3, #16
 8003b70:	6203      	str	r3, [r0, #32]
 8003b72:	6a03      	ldr	r3, [r0, #32]
 8003b74:	6844      	ldr	r4, [r0, #4]
 8003b76:	6982      	ldr	r2, [r0, #24]
 8003b78:	680d      	ldr	r5, [r1, #0]
 8003b7a:	f422 42e6 	bic.w	r2, r2, #29440	; 0x7300
 8003b7e:	ea42 2205 	orr.w	r2, r2, r5, lsl #8
 8003b82:	688d      	ldr	r5, [r1, #8]
 8003b84:	f023 0320 	bic.w	r3, r3, #32
 8003b88:	ea43 1305 	orr.w	r3, r3, r5, lsl #4
 8003b8c:	4d0b      	ldr	r5, [pc, #44]	; (8003bbc <TIM_OC2_SetConfig+0x54>)
 8003b8e:	42a8      	cmp	r0, r5
 8003b90:	d10d      	bne.n	8003bae <TIM_OC2_SetConfig+0x46>
 8003b92:	68cd      	ldr	r5, [r1, #12]
 8003b94:	f023 0380 	bic.w	r3, r3, #128	; 0x80
 8003b98:	ea43 1305 	orr.w	r3, r3, r5, lsl #4
 8003b9c:	f424 6440 	bic.w	r4, r4, #3072	; 0xc00
 8003ba0:	e9d1 5605 	ldrd	r5, r6, [r1, #20]
 8003ba4:	4335      	orrs	r5, r6
 8003ba6:	f023 0340 	bic.w	r3, r3, #64	; 0x40
 8003baa:	ea44 0485 	orr.w	r4, r4, r5, lsl #2
 8003bae:	6044      	str	r4, [r0, #4]
 8003bb0:	6182      	str	r2, [r0, #24]
 8003bb2:	684a      	ldr	r2, [r1, #4]
 8003bb4:	6382      	str	r2, [r0, #56]	; 0x38
 8003bb6:	6203      	str	r3, [r0, #32]
 8003bb8:	bd70      	pop	{r4, r5, r6, pc}
 8003bba:	bf00      	nop
 8003bbc:	40012c00 	.word	0x40012c00

08003bc0 <HAL_TIM_PWM_ConfigChannel>:
 8003bc0:	b538      	push	{r3, r4, r5, lr}
 8003bc2:	f890 303c 	ldrb.w	r3, [r0, #60]	; 0x3c
 8003bc6:	4604      	mov	r4, r0
 8003bc8:	2b01      	cmp	r3, #1
 8003bca:	d052      	beq.n	8003c72 <HAL_TIM_PWM_ConfigChannel+0xb2>
 8003bcc:	2301      	movs	r3, #1
 8003bce:	2a08      	cmp	r2, #8
 8003bd0:	f880 303c 	strb.w	r3, [r0, #60]	; 0x3c
 8003bd4:	d03c      	beq.n	8003c50 <HAL_TIM_PWM_ConfigChannel+0x90>
 8003bd6:	d806      	bhi.n	8003be6 <HAL_TIM_PWM_ConfigChannel+0x26>
 8003bd8:	b1c2      	cbz	r2, 8003c0c <HAL_TIM_PWM_ConfigChannel+0x4c>
 8003bda:	2a04      	cmp	r2, #4
 8003bdc:	d027      	beq.n	8003c2e <HAL_TIM_PWM_ConfigChannel+0x6e>
 8003bde:	2000      	movs	r0, #0
 8003be0:	f884 003c 	strb.w	r0, [r4, #60]	; 0x3c
 8003be4:	bd38      	pop	{r3, r4, r5, pc}
 8003be6:	2a0c      	cmp	r2, #12
 8003be8:	d1f9      	bne.n	8003bde <HAL_TIM_PWM_ConfigChannel+0x1e>
 8003bea:	6800      	ldr	r0, [r0, #0]
 8003bec:	f7ff fe20 	bl	8003830 <TIM_OC4_SetConfig>
 8003bf0:	6823      	ldr	r3, [r4, #0]
 8003bf2:	6909      	ldr	r1, [r1, #16]
 8003bf4:	69da      	ldr	r2, [r3, #28]
 8003bf6:	f442 6200 	orr.w	r2, r2, #2048	; 0x800
 8003bfa:	61da      	str	r2, [r3, #28]
 8003bfc:	69da      	ldr	r2, [r3, #28]
 8003bfe:	f422 6280 	bic.w	r2, r2, #1024	; 0x400
 8003c02:	61da      	str	r2, [r3, #28]
 8003c04:	69da      	ldr	r2, [r3, #28]
 8003c06:	ea42 2201 	orr.w	r2, r2, r1, lsl #8
 8003c0a:	e030      	b.n	8003c6e <HAL_TIM_PWM_ConfigChannel+0xae>
 8003c0c:	6800      	ldr	r0, [r0, #0]
 8003c0e:	f7ff fdbd 	bl	800378c <TIM_OC1_SetConfig>
 8003c12:	6823      	ldr	r3, [r4, #0]
 8003c14:	6909      	ldr	r1, [r1, #16]
 8003c16:	699a      	ldr	r2, [r3, #24]
 8003c18:	f042 0208 	orr.w	r2, r2, #8
 8003c1c:	619a      	str	r2, [r3, #24]
 8003c1e:	699a      	ldr	r2, [r3, #24]
 8003c20:	f022 0204 	bic.w	r2, r2, #4
 8003c24:	619a      	str	r2, [r3, #24]
 8003c26:	699a      	ldr	r2, [r3, #24]
 8003c28:	430a      	orrs	r2, r1
 8003c2a:	619a      	str	r2, [r3, #24]
 8003c2c:	e7d7      	b.n	8003bde <HAL_TIM_PWM_ConfigChannel+0x1e>
 8003c2e:	6800      	ldr	r0, [r0, #0]
 8003c30:	f7ff ff9a 	bl	8003b68 <TIM_OC2_SetConfig>
 8003c34:	6823      	ldr	r3, [r4, #0]
 8003c36:	6909      	ldr	r1, [r1, #16]
 8003c38:	699a      	ldr	r2, [r3, #24]
 8003c3a:	f442 6200 	orr.w	r2, r2, #2048	; 0x800
 8003c3e:	619a      	str	r2, [r3, #24]
 8003c40:	699a      	ldr	r2, [r3, #24]
 8003c42:	f422 6280 	bic.w	r2, r2, #1024	; 0x400
 8003c46:	619a      	str	r2, [r3, #24]
 8003c48:	699a      	ldr	r2, [r3, #24]
 8003c4a:	ea42 2201 	orr.w	r2, r2, r1, lsl #8
 8003c4e:	e7ec      	b.n	8003c2a <HAL_TIM_PWM_ConfigChannel+0x6a>
 8003c50:	6800      	ldr	r0, [r0, #0]
 8003c52:	f7ff fdc3 	bl	80037dc <TIM_OC3_SetConfig>
 8003c56:	6823      	ldr	r3, [r4, #0]
 8003c58:	6909      	ldr	r1, [r1, #16]
 8003c5a:	69da      	ldr	r2, [r3, #28]
 8003c5c:	f042 0208 	orr.w	r2, r2, #8
 8003c60:	61da      	str	r2, [r3, #28]
 8003c62:	69da      	ldr	r2, [r3, #28]
 8003c64:	f022 0204 	bic.w	r2, r2, #4
 8003c68:	61da      	str	r2, [r3, #28]
 8003c6a:	69da      	ldr	r2, [r3, #28]
 8003c6c:	430a      	orrs	r2, r1
 8003c6e:	61da      	str	r2, [r3, #28]
 8003c70:	e7b5      	b.n	8003bde <HAL_TIM_PWM_ConfigChannel+0x1e>
 8003c72:	2002      	movs	r0, #2
 8003c74:	e7b6      	b.n	8003be4 <HAL_TIM_PWM_ConfigChannel+0x24>
	...

08003c78 <TIM_TI1_SetConfig>:
 8003c78:	b570      	push	{r4, r5, r6, lr}
 8003c7a:	6a04      	ldr	r4, [r0, #32]
 8003c7c:	4e12      	ldr	r6, [pc, #72]	; (8003cc8 <TIM_TI1_SetConfig+0x50>)
 8003c7e:	f024 0401 	bic.w	r4, r4, #1
 8003c82:	6204      	str	r4, [r0, #32]
 8003c84:	42b0      	cmp	r0, r6
 8003c86:	6984      	ldr	r4, [r0, #24]
 8003c88:	6a05      	ldr	r5, [r0, #32]
 8003c8a:	d019      	beq.n	8003cc0 <TIM_TI1_SetConfig+0x48>
 8003c8c:	f1b0 4f80 	cmp.w	r0, #1073741824	; 0x40000000
 8003c90:	d016      	beq.n	8003cc0 <TIM_TI1_SetConfig+0x48>
 8003c92:	f5a6 3694 	sub.w	r6, r6, #75776	; 0x12800
 8003c96:	42b0      	cmp	r0, r6
 8003c98:	d012      	beq.n	8003cc0 <TIM_TI1_SetConfig+0x48>
 8003c9a:	f506 6680 	add.w	r6, r6, #1024	; 0x400
 8003c9e:	42b0      	cmp	r0, r6
 8003ca0:	d00e      	beq.n	8003cc0 <TIM_TI1_SetConfig+0x48>
 8003ca2:	f044 0201 	orr.w	r2, r4, #1
 8003ca6:	011b      	lsls	r3, r3, #4
 8003ca8:	f022 02f0 	bic.w	r2, r2, #240	; 0xf0
 8003cac:	b2db      	uxtb	r3, r3
 8003cae:	4313      	orrs	r3, r2
 8003cb0:	f001 010a 	and.w	r1, r1, #10
 8003cb4:	f025 020a 	bic.w	r2, r5, #10
 8003cb8:	4311      	orrs	r1, r2
 8003cba:	6183      	str	r3, [r0, #24]
 8003cbc:	6201      	str	r1, [r0, #32]
 8003cbe:	bd70      	pop	{r4, r5, r6, pc}
 8003cc0:	f024 0403 	bic.w	r4, r4, #3
 8003cc4:	4322      	orrs	r2, r4
 8003cc6:	e7ee      	b.n	8003ca6 <TIM_TI1_SetConfig+0x2e>
 8003cc8:	40012c00 	.word	0x40012c00

08003ccc <HAL_TIM_IC_ConfigChannel>:
 8003ccc:	b5f8      	push	{r3, r4, r5, r6, r7, lr}
 8003cce:	f890 303c 	ldrb.w	r3, [r0, #60]	; 0x3c
 8003cd2:	4604      	mov	r4, r0
 8003cd4:	2b01      	cmp	r3, #1
 8003cd6:	460e      	mov	r6, r1
 8003cd8:	4615      	mov	r5, r2
 8003cda:	d079      	beq.n	8003dd0 <HAL_TIM_IC_ConfigChannel+0x104>
 8003cdc:	2301      	movs	r3, #1
 8003cde:	f880 303c 	strb.w	r3, [r0, #60]	; 0x3c
 8003ce2:	68f3      	ldr	r3, [r6, #12]
 8003ce4:	6800      	ldr	r0, [r0, #0]
 8003ce6:	c906      	ldmia	r1, {r1, r2}
 8003ce8:	b975      	cbnz	r5, 8003d08 <HAL_TIM_IC_ConfigChannel+0x3c>
 8003cea:	f7ff ffc5 	bl	8003c78 <TIM_TI1_SetConfig>
 8003cee:	6823      	ldr	r3, [r4, #0]
 8003cf0:	68b1      	ldr	r1, [r6, #8]
 8003cf2:	699a      	ldr	r2, [r3, #24]
 8003cf4:	f022 020c 	bic.w	r2, r2, #12
 8003cf8:	619a      	str	r2, [r3, #24]
 8003cfa:	699a      	ldr	r2, [r3, #24]
 8003cfc:	430a      	orrs	r2, r1
 8003cfe:	619a      	str	r2, [r3, #24]
 8003d00:	2000      	movs	r0, #0
 8003d02:	f884 003c 	strb.w	r0, [r4, #60]	; 0x3c
 8003d06:	bdf8      	pop	{r3, r4, r5, r6, r7, pc}
 8003d08:	2d04      	cmp	r5, #4
 8003d0a:	68b6      	ldr	r6, [r6, #8]
 8003d0c:	d122      	bne.n	8003d54 <HAL_TIM_IC_ConfigChannel+0x88>
 8003d0e:	6a05      	ldr	r5, [r0, #32]
 8003d10:	0109      	lsls	r1, r1, #4
 8003d12:	f025 0510 	bic.w	r5, r5, #16
 8003d16:	6205      	str	r5, [r0, #32]
 8003d18:	6987      	ldr	r7, [r0, #24]
 8003d1a:	f8d0 e020 	ldr.w	lr, [r0, #32]
 8003d1e:	f427 7c40 	bic.w	ip, r7, #768	; 0x300
 8003d22:	031d      	lsls	r5, r3, #12
 8003d24:	ea4c 2c02 	orr.w	ip, ip, r2, lsl #8
 8003d28:	f42c 4c70 	bic.w	ip, ip, #61440	; 0xf000
 8003d2c:	b2ad      	uxth	r5, r5
 8003d2e:	f02e 0ea0 	bic.w	lr, lr, #160	; 0xa0
 8003d32:	f001 01a0 	and.w	r1, r1, #160	; 0xa0
 8003d36:	ea45 050c 	orr.w	r5, r5, ip
 8003d3a:	ea41 010e 	orr.w	r1, r1, lr
 8003d3e:	6185      	str	r5, [r0, #24]
 8003d40:	6201      	str	r1, [r0, #32]
 8003d42:	6983      	ldr	r3, [r0, #24]
 8003d44:	f423 6340 	bic.w	r3, r3, #3072	; 0xc00
 8003d48:	6183      	str	r3, [r0, #24]
 8003d4a:	6983      	ldr	r3, [r0, #24]
 8003d4c:	ea43 2606 	orr.w	r6, r3, r6, lsl #8
 8003d50:	6186      	str	r6, [r0, #24]
 8003d52:	e7d5      	b.n	8003d00 <HAL_TIM_IC_ConfigChannel+0x34>
 8003d54:	2d08      	cmp	r5, #8
 8003d56:	6a05      	ldr	r5, [r0, #32]
 8003d58:	d11c      	bne.n	8003d94 <HAL_TIM_IC_ConfigChannel+0xc8>
 8003d5a:	f425 7580 	bic.w	r5, r5, #256	; 0x100
 8003d5e:	6205      	str	r5, [r0, #32]
 8003d60:	69c7      	ldr	r7, [r0, #28]
 8003d62:	6a05      	ldr	r5, [r0, #32]
 8003d64:	f027 0703 	bic.w	r7, r7, #3
 8003d68:	4317      	orrs	r7, r2
 8003d6a:	011b      	lsls	r3, r3, #4
 8003d6c:	0209      	lsls	r1, r1, #8
 8003d6e:	b2db      	uxtb	r3, r3
 8003d70:	f027 07f0 	bic.w	r7, r7, #240	; 0xf0
 8003d74:	f425 7500 	bic.w	r5, r5, #512	; 0x200
 8003d78:	f401 7100 	and.w	r1, r1, #512	; 0x200
 8003d7c:	431f      	orrs	r7, r3
 8003d7e:	4329      	orrs	r1, r5
 8003d80:	61c7      	str	r7, [r0, #28]
 8003d82:	6201      	str	r1, [r0, #32]
 8003d84:	69c3      	ldr	r3, [r0, #28]
 8003d86:	f023 030c 	bic.w	r3, r3, #12
 8003d8a:	61c3      	str	r3, [r0, #28]
 8003d8c:	69c3      	ldr	r3, [r0, #28]
 8003d8e:	431e      	orrs	r6, r3
 8003d90:	61c6      	str	r6, [r0, #28]
 8003d92:	e7b5      	b.n	8003d00 <HAL_TIM_IC_ConfigChannel+0x34>
 8003d94:	f425 5580 	bic.w	r5, r5, #4096	; 0x1000
 8003d98:	6205      	str	r5, [r0, #32]
 8003d9a:	69c5      	ldr	r5, [r0, #28]
 8003d9c:	6a07      	ldr	r7, [r0, #32]
 8003d9e:	f425 7540 	bic.w	r5, r5, #768	; 0x300
 8003da2:	ea45 2502 	orr.w	r5, r5, r2, lsl #8
 8003da6:	031b      	lsls	r3, r3, #12
 8003da8:	0309      	lsls	r1, r1, #12
 8003daa:	f425 4570 	bic.w	r5, r5, #61440	; 0xf000
 8003dae:	b29b      	uxth	r3, r3
 8003db0:	f427 5700 	bic.w	r7, r7, #8192	; 0x2000
 8003db4:	f401 5100 	and.w	r1, r1, #8192	; 0x2000
 8003db8:	432b      	orrs	r3, r5
 8003dba:	4339      	orrs	r1, r7
 8003dbc:	61c3      	str	r3, [r0, #28]
 8003dbe:	6201      	str	r1, [r0, #32]
 8003dc0:	69c3      	ldr	r3, [r0, #28]
 8003dc2:	f423 6340 	bic.w	r3, r3, #3072	; 0xc00
 8003dc6:	61c3      	str	r3, [r0, #28]
 8003dc8:	69c3      	ldr	r3, [r0, #28]
 8003dca:	ea43 2606 	orr.w	r6, r3, r6, lsl #8
 8003dce:	e7df      	b.n	8003d90 <HAL_TIM_IC_ConfigChannel+0xc4>
 8003dd0:	2002      	movs	r0, #2
 8003dd2:	e798      	b.n	8003d06 <HAL_TIM_IC_ConfigChannel+0x3a>

08003dd4 <TIM_ETR_SetConfig>:
 8003dd4:	b510      	push	{r4, lr}
 8003dd6:	6884      	ldr	r4, [r0, #8]
 8003dd8:	430a      	orrs	r2, r1
 8003dda:	f424 447f 	bic.w	r4, r4, #65280	; 0xff00
 8003dde:	ea42 2203 	orr.w	r2, r2, r3, lsl #8
 8003de2:	4322      	orrs	r2, r4
 8003de4:	6082      	str	r2, [r0, #8]
 8003de6:	bd10      	pop	{r4, pc}

08003de8 <HAL_TIM_ConfigClockSource>:
 8003de8:	b570      	push	{r4, r5, r6, lr}
 8003dea:	f890 303c 	ldrb.w	r3, [r0, #60]	; 0x3c
 8003dee:	4604      	mov	r4, r0
 8003df0:	2b01      	cmp	r3, #1
 8003df2:	f04f 0002 	mov.w	r0, #2
 8003df6:	d027      	beq.n	8003e48 <HAL_TIM_ConfigClockSource+0x60>
 8003df8:	2301      	movs	r3, #1
 8003dfa:	f884 003d 	strb.w	r0, [r4, #61]	; 0x3d
 8003dfe:	6820      	ldr	r0, [r4, #0]
 8003e00:	f884 303c 	strb.w	r3, [r4, #60]	; 0x3c
 8003e04:	6883      	ldr	r3, [r0, #8]
 8003e06:	f423 437f 	bic.w	r3, r3, #65280	; 0xff00
 8003e0a:	f023 0377 	bic.w	r3, r3, #119	; 0x77
 8003e0e:	6083      	str	r3, [r0, #8]
 8003e10:	680b      	ldr	r3, [r1, #0]
 8003e12:	2b60      	cmp	r3, #96	; 0x60
 8003e14:	d04d      	beq.n	8003eb2 <HAL_TIM_ConfigClockSource+0xca>
 8003e16:	d832      	bhi.n	8003e7e <HAL_TIM_ConfigClockSource+0x96>
 8003e18:	2b40      	cmp	r3, #64	; 0x40
 8003e1a:	d062      	beq.n	8003ee2 <HAL_TIM_ConfigClockSource+0xfa>
 8003e1c:	d815      	bhi.n	8003e4a <HAL_TIM_ConfigClockSource+0x62>
 8003e1e:	2b20      	cmp	r3, #32
 8003e20:	d003      	beq.n	8003e2a <HAL_TIM_ConfigClockSource+0x42>
 8003e22:	d809      	bhi.n	8003e38 <HAL_TIM_ConfigClockSource+0x50>
 8003e24:	f033 0210 	bics.w	r2, r3, #16
 8003e28:	d108      	bne.n	8003e3c <HAL_TIM_ConfigClockSource+0x54>
 8003e2a:	6882      	ldr	r2, [r0, #8]
 8003e2c:	f022 0270 	bic.w	r2, r2, #112	; 0x70
 8003e30:	4313      	orrs	r3, r2
 8003e32:	f043 0307 	orr.w	r3, r3, #7
 8003e36:	e020      	b.n	8003e7a <HAL_TIM_ConfigClockSource+0x92>
 8003e38:	2b30      	cmp	r3, #48	; 0x30
 8003e3a:	d0f6      	beq.n	8003e2a <HAL_TIM_ConfigClockSource+0x42>
 8003e3c:	2301      	movs	r3, #1
 8003e3e:	2000      	movs	r0, #0
 8003e40:	f884 303d 	strb.w	r3, [r4, #61]	; 0x3d
 8003e44:	f884 003c 	strb.w	r0, [r4, #60]	; 0x3c
 8003e48:	bd70      	pop	{r4, r5, r6, pc}
 8003e4a:	2b50      	cmp	r3, #80	; 0x50
 8003e4c:	d1f6      	bne.n	8003e3c <HAL_TIM_ConfigClockSource+0x54>
 8003e4e:	684a      	ldr	r2, [r1, #4]
 8003e50:	68ce      	ldr	r6, [r1, #12]
 8003e52:	6a01      	ldr	r1, [r0, #32]
 8003e54:	6a05      	ldr	r5, [r0, #32]
 8003e56:	f021 010a 	bic.w	r1, r1, #10
 8003e5a:	f025 0501 	bic.w	r5, r5, #1
 8003e5e:	6205      	str	r5, [r0, #32]
 8003e60:	6983      	ldr	r3, [r0, #24]
 8003e62:	430a      	orrs	r2, r1
 8003e64:	f023 03f0 	bic.w	r3, r3, #240	; 0xf0
 8003e68:	ea43 1306 	orr.w	r3, r3, r6, lsl #4
 8003e6c:	6183      	str	r3, [r0, #24]
 8003e6e:	6202      	str	r2, [r0, #32]
 8003e70:	6883      	ldr	r3, [r0, #8]
 8003e72:	f023 0370 	bic.w	r3, r3, #112	; 0x70
 8003e76:	f043 0357 	orr.w	r3, r3, #87	; 0x57
 8003e7a:	6083      	str	r3, [r0, #8]
 8003e7c:	e7de      	b.n	8003e3c <HAL_TIM_ConfigClockSource+0x54>
 8003e7e:	2b70      	cmp	r3, #112	; 0x70
 8003e80:	d00c      	beq.n	8003e9c <HAL_TIM_ConfigClockSource+0xb4>
 8003e82:	f5b3 5f00 	cmp.w	r3, #8192	; 0x2000
 8003e86:	d1d9      	bne.n	8003e3c <HAL_TIM_ConfigClockSource+0x54>
 8003e88:	68cb      	ldr	r3, [r1, #12]
 8003e8a:	e9d1 2101 	ldrd	r2, r1, [r1, #4]
 8003e8e:	f7ff ffa1 	bl	8003dd4 <TIM_ETR_SetConfig>
 8003e92:	6822      	ldr	r2, [r4, #0]
 8003e94:	6893      	ldr	r3, [r2, #8]
 8003e96:	f443 4380 	orr.w	r3, r3, #16384	; 0x4000
 8003e9a:	e008      	b.n	8003eae <HAL_TIM_ConfigClockSource+0xc6>
 8003e9c:	68cb      	ldr	r3, [r1, #12]
 8003e9e:	e9d1 2101 	ldrd	r2, r1, [r1, #4]
 8003ea2:	f7ff ff97 	bl	8003dd4 <TIM_ETR_SetConfig>
 8003ea6:	6822      	ldr	r2, [r4, #0]
 8003ea8:	6893      	ldr	r3, [r2, #8]
 8003eaa:	f043 0377 	orr.w	r3, r3, #119	; 0x77
 8003eae:	6093      	str	r3, [r2, #8]
 8003eb0:	e7c4      	b.n	8003e3c <HAL_TIM_ConfigClockSource+0x54>
 8003eb2:	684d      	ldr	r5, [r1, #4]
 8003eb4:	68ce      	ldr	r6, [r1, #12]
 8003eb6:	6a01      	ldr	r1, [r0, #32]
 8003eb8:	f021 0110 	bic.w	r1, r1, #16
 8003ebc:	6201      	str	r1, [r0, #32]
 8003ebe:	6982      	ldr	r2, [r0, #24]
 8003ec0:	6a03      	ldr	r3, [r0, #32]
 8003ec2:	f422 4270 	bic.w	r2, r2, #61440	; 0xf000
 8003ec6:	f023 03a0 	bic.w	r3, r3, #160	; 0xa0
 8003eca:	ea43 1305 	orr.w	r3, r3, r5, lsl #4
 8003ece:	ea42 3206 	orr.w	r2, r2, r6, lsl #12
 8003ed2:	6182      	str	r2, [r0, #24]
 8003ed4:	6203      	str	r3, [r0, #32]
 8003ed6:	6883      	ldr	r3, [r0, #8]
 8003ed8:	f023 0370 	bic.w	r3, r3, #112	; 0x70
 8003edc:	f043 0367 	orr.w	r3, r3, #103	; 0x67
 8003ee0:	e7cb      	b.n	8003e7a <HAL_TIM_ConfigClockSource+0x92>
 8003ee2:	684a      	ldr	r2, [r1, #4]
 8003ee4:	68ce      	ldr	r6, [r1, #12]
 8003ee6:	6a01      	ldr	r1, [r0, #32]
 8003ee8:	6a05      	ldr	r5, [r0, #32]
 8003eea:	f021 010a 	bic.w	r1, r1, #10
 8003eee:	f025 0501 	bic.w	r5, r5, #1
 8003ef2:	6205      	str	r5, [r0, #32]
 8003ef4:	6983      	ldr	r3, [r0, #24]
 8003ef6:	430a      	orrs	r2, r1
 8003ef8:	f023 03f0 	bic.w	r3, r3, #240	; 0xf0
 8003efc:	ea43 1306 	orr.w	r3, r3, r6, lsl #4
 8003f00:	6183      	str	r3, [r0, #24]
 8003f02:	6202      	str	r2, [r0, #32]
 8003f04:	6883      	ldr	r3, [r0, #8]
 8003f06:	f023 0370 	bic.w	r3, r3, #112	; 0x70
 8003f0a:	f043 0347 	orr.w	r3, r3, #71	; 0x47
 8003f0e:	e7b4      	b.n	8003e7a <HAL_TIM_ConfigClockSource+0x92>

08003f10 <TIM_CCxChannelCmd>:
 8003f10:	b510      	push	{r4, lr}
 8003f12:	2401      	movs	r4, #1
 8003f14:	6a03      	ldr	r3, [r0, #32]
 8003f16:	f001 011f 	and.w	r1, r1, #31
 8003f1a:	408c      	lsls	r4, r1
 8003f1c:	ea23 0304 	bic.w	r3, r3, r4
 8003f20:	6203      	str	r3, [r0, #32]
 8003f22:	6a03      	ldr	r3, [r0, #32]
 8003f24:	408a      	lsls	r2, r1
 8003f26:	431a      	orrs	r2, r3
 8003f28:	6202      	str	r2, [r0, #32]
 8003f2a:	bd10      	pop	{r4, pc}

08003f2c <HAL_TIM_OC_Start>:
 8003f2c:	b510      	push	{r4, lr}
 8003f2e:	4604      	mov	r4, r0
 8003f30:	b929      	cbnz	r1, 8003f3e <HAL_TIM_OC_Start+0x12>
 8003f32:	f890 303e 	ldrb.w	r3, [r0, #62]	; 0x3e
 8003f36:	2b01      	cmp	r3, #1
 8003f38:	d021      	beq.n	8003f7e <HAL_TIM_OC_Start+0x52>
 8003f3a:	2001      	movs	r0, #1
 8003f3c:	bd10      	pop	{r4, pc}
 8003f3e:	2904      	cmp	r1, #4
 8003f40:	d107      	bne.n	8003f52 <HAL_TIM_OC_Start+0x26>
 8003f42:	f890 303f 	ldrb.w	r3, [r0, #63]	; 0x3f
 8003f46:	2b01      	cmp	r3, #1
 8003f48:	d1f7      	bne.n	8003f3a <HAL_TIM_OC_Start+0xe>
 8003f4a:	2302      	movs	r3, #2
 8003f4c:	f884 303f 	strb.w	r3, [r4, #63]	; 0x3f
 8003f50:	e018      	b.n	8003f84 <HAL_TIM_OC_Start+0x58>
 8003f52:	2908      	cmp	r1, #8
 8003f54:	d107      	bne.n	8003f66 <HAL_TIM_OC_Start+0x3a>
 8003f56:	f890 3040 	ldrb.w	r3, [r0, #64]	; 0x40
 8003f5a:	2b01      	cmp	r3, #1
 8003f5c:	d1ed      	bne.n	8003f3a <HAL_TIM_OC_Start+0xe>
 8003f5e:	2302      	movs	r3, #2
 8003f60:	f884 3040 	strb.w	r3, [r4, #64]	; 0x40
 8003f64:	e00e      	b.n	8003f84 <HAL_TIM_OC_Start+0x58>
 8003f66:	f890 3041 	ldrb.w	r3, [r0, #65]	; 0x41
 8003f6a:	2b01      	cmp	r3, #1
 8003f6c:	d1e5      	bne.n	8003f3a <HAL_TIM_OC_Start+0xe>
 8003f6e:	2904      	cmp	r1, #4
 8003f70:	d0eb      	beq.n	8003f4a <HAL_TIM_OC_Start+0x1e>
 8003f72:	2908      	cmp	r1, #8
 8003f74:	d0f3      	beq.n	8003f5e <HAL_TIM_OC_Start+0x32>
 8003f76:	2302      	movs	r3, #2
 8003f78:	f880 3041 	strb.w	r3, [r0, #65]	; 0x41
 8003f7c:	e002      	b.n	8003f84 <HAL_TIM_OC_Start+0x58>
 8003f7e:	2302      	movs	r3, #2
 8003f80:	f880 303e 	strb.w	r3, [r0, #62]	; 0x3e
 8003f84:	2201      	movs	r2, #1
 8003f86:	6820      	ldr	r0, [r4, #0]
 8003f88:	f7ff ffc2 	bl	8003f10 <TIM_CCxChannelCmd>
 8003f8c:	6823      	ldr	r3, [r4, #0]
 8003f8e:	4a0e      	ldr	r2, [pc, #56]	; (8003fc8 <HAL_TIM_OC_Start+0x9c>)
 8003f90:	4293      	cmp	r3, r2
 8003f92:	d10a      	bne.n	8003faa <HAL_TIM_OC_Start+0x7e>
 8003f94:	6c5a      	ldr	r2, [r3, #68]	; 0x44
 8003f96:	f442 4200 	orr.w	r2, r2, #32768	; 0x8000
 8003f9a:	645a      	str	r2, [r3, #68]	; 0x44
 8003f9c:	689a      	ldr	r2, [r3, #8]
 8003f9e:	f002 0207 	and.w	r2, r2, #7
 8003fa2:	2a06      	cmp	r2, #6
 8003fa4:	d10b      	bne.n	8003fbe <HAL_TIM_OC_Start+0x92>
 8003fa6:	2000      	movs	r0, #0
 8003fa8:	e7c8      	b.n	8003f3c <HAL_TIM_OC_Start+0x10>
 8003faa:	f1b3 4f80 	cmp.w	r3, #1073741824	; 0x40000000
 8003fae:	d0f5      	beq.n	8003f9c <HAL_TIM_OC_Start+0x70>
 8003fb0:	4a06      	ldr	r2, [pc, #24]	; (8003fcc <HAL_TIM_OC_Start+0xa0>)
 8003fb2:	4293      	cmp	r3, r2
 8003fb4:	d0f2      	beq.n	8003f9c <HAL_TIM_OC_Start+0x70>
 8003fb6:	f502 6280 	add.w	r2, r2, #1024	; 0x400
 8003fba:	4293      	cmp	r3, r2
 8003fbc:	d0ee      	beq.n	8003f9c <HAL_TIM_OC_Start+0x70>
 8003fbe:	681a      	ldr	r2, [r3, #0]
 8003fc0:	f042 0201 	orr.w	r2, r2, #1
 8003fc4:	601a      	str	r2, [r3, #0]
 8003fc6:	e7ee      	b.n	8003fa6 <HAL_TIM_OC_Start+0x7a>
 8003fc8:	40012c00 	.word	0x40012c00
 8003fcc:	40000400 	.word	0x40000400

08003fd0 <HAL_TIM_PWM_Start>:
 8003fd0:	f7ff bfac 	b.w	8003f2c <HAL_TIM_OC_Start>

08003fd4 <HAL_TIM_IC_Start_IT>:
 8003fd4:	b510      	push	{r4, lr}
 8003fd6:	4604      	mov	r4, r0
 8003fd8:	bb91      	cbnz	r1, 8004040 <HAL_TIM_IC_Start_IT+0x6c>
 8003fda:	f890 003e 	ldrb.w	r0, [r0, #62]	; 0x3e
 8003fde:	f894 3042 	ldrb.w	r3, [r4, #66]	; 0x42
 8003fe2:	b2c0      	uxtb	r0, r0
 8003fe4:	2801      	cmp	r0, #1
 8003fe6:	b2db      	uxtb	r3, r3
 8003fe8:	d15e      	bne.n	80040a8 <HAL_TIM_IC_Start_IT+0xd4>
 8003fea:	2b01      	cmp	r3, #1
 8003fec:	d15d      	bne.n	80040aa <HAL_TIM_IC_Start_IT+0xd6>
 8003fee:	2302      	movs	r3, #2
 8003ff0:	6820      	ldr	r0, [r4, #0]
 8003ff2:	2900      	cmp	r1, #0
 8003ff4:	d13a      	bne.n	800406c <HAL_TIM_IC_Start_IT+0x98>
 8003ff6:	f884 303e 	strb.w	r3, [r4, #62]	; 0x3e
 8003ffa:	f884 3042 	strb.w	r3, [r4, #66]	; 0x42
 8003ffe:	68c3      	ldr	r3, [r0, #12]
 8004000:	f043 0302 	orr.w	r3, r3, #2
 8004004:	60c3      	str	r3, [r0, #12]
 8004006:	2201      	movs	r2, #1
 8004008:	f7ff ff82 	bl	8003f10 <TIM_CCxChannelCmd>
 800400c:	6823      	ldr	r3, [r4, #0]
 800400e:	4a27      	ldr	r2, [pc, #156]	; (80040ac <HAL_TIM_IC_Start_IT+0xd8>)
 8004010:	4293      	cmp	r3, r2
 8004012:	d00a      	beq.n	800402a <HAL_TIM_IC_Start_IT+0x56>
 8004014:	f1b3 4f80 	cmp.w	r3, #1073741824	; 0x40000000
 8004018:	d007      	beq.n	800402a <HAL_TIM_IC_Start_IT+0x56>
 800401a:	f5a2 3294 	sub.w	r2, r2, #75776	; 0x12800
 800401e:	4293      	cmp	r3, r2
 8004020:	d003      	beq.n	800402a <HAL_TIM_IC_Start_IT+0x56>
 8004022:	f502 6280 	add.w	r2, r2, #1024	; 0x400
 8004026:	4293      	cmp	r3, r2
 8004028:	d104      	bne.n	8004034 <HAL_TIM_IC_Start_IT+0x60>
 800402a:	689a      	ldr	r2, [r3, #8]
 800402c:	f002 0207 	and.w	r2, r2, #7
 8004030:	2a06      	cmp	r2, #6
 8004032:	d003      	beq.n	800403c <HAL_TIM_IC_Start_IT+0x68>
 8004034:	681a      	ldr	r2, [r3, #0]
 8004036:	f042 0201 	orr.w	r2, r2, #1
 800403a:	601a      	str	r2, [r3, #0]
 800403c:	2000      	movs	r0, #0
 800403e:	e034      	b.n	80040aa <HAL_TIM_IC_Start_IT+0xd6>
 8004040:	2904      	cmp	r1, #4
 8004042:	d105      	bne.n	8004050 <HAL_TIM_IC_Start_IT+0x7c>
 8004044:	f890 003f 	ldrb.w	r0, [r0, #63]	; 0x3f
 8004048:	f894 3043 	ldrb.w	r3, [r4, #67]	; 0x43
 800404c:	b2c0      	uxtb	r0, r0
 800404e:	e7c9      	b.n	8003fe4 <HAL_TIM_IC_Start_IT+0x10>
 8004050:	2908      	cmp	r1, #8
 8004052:	bf0b      	itete	eq
 8004054:	f890 0040 	ldrbeq.w	r0, [r0, #64]	; 0x40
 8004058:	f894 0041 	ldrbne.w	r0, [r4, #65]	; 0x41
 800405c:	f894 3044 	ldrbeq.w	r3, [r4, #68]	; 0x44
 8004060:	f894 3045 	ldrbne.w	r3, [r4, #69]	; 0x45
 8004064:	bf0c      	ite	eq
 8004066:	b2c0      	uxtbeq	r0, r0
 8004068:	b2c0      	uxtbne	r0, r0
 800406a:	e7bb      	b.n	8003fe4 <HAL_TIM_IC_Start_IT+0x10>
 800406c:	2904      	cmp	r1, #4
 800406e:	d107      	bne.n	8004080 <HAL_TIM_IC_Start_IT+0xac>
 8004070:	f884 303f 	strb.w	r3, [r4, #63]	; 0x3f
 8004074:	f884 3043 	strb.w	r3, [r4, #67]	; 0x43
 8004078:	68c3      	ldr	r3, [r0, #12]
 800407a:	f043 0304 	orr.w	r3, r3, #4
 800407e:	e7c1      	b.n	8004004 <HAL_TIM_IC_Start_IT+0x30>
 8004080:	2908      	cmp	r1, #8
 8004082:	d107      	bne.n	8004094 <HAL_TIM_IC_Start_IT+0xc0>
 8004084:	f884 3040 	strb.w	r3, [r4, #64]	; 0x40
 8004088:	f884 3044 	strb.w	r3, [r4, #68]	; 0x44
 800408c:	68c3      	ldr	r3, [r0, #12]
 800408e:	f043 0308 	orr.w	r3, r3, #8
 8004092:	e7b7      	b.n	8004004 <HAL_TIM_IC_Start_IT+0x30>
 8004094:	290c      	cmp	r1, #12
 8004096:	f884 3041 	strb.w	r3, [r4, #65]	; 0x41
 800409a:	f884 3045 	strb.w	r3, [r4, #69]	; 0x45
 800409e:	d1b2      	bne.n	8004006 <HAL_TIM_IC_Start_IT+0x32>
 80040a0:	68c3      	ldr	r3, [r0, #12]
 80040a2:	f043 0310 	orr.w	r3, r3, #16
 80040a6:	e7ad      	b.n	8004004 <HAL_TIM_IC_Start_IT+0x30>
 80040a8:	2001      	movs	r0, #1
 80040aa:	bd10      	pop	{r4, pc}
 80040ac:	40012c00 	.word	0x40012c00

080040b0 <HAL_TIMEx_MasterConfigSynchronization>:
 80040b0:	b530      	push	{r4, r5, lr}
 80040b2:	f890 303c 	ldrb.w	r3, [r0, #60]	; 0x3c
 80040b6:	4602      	mov	r2, r0
 80040b8:	2b01      	cmp	r3, #1
 80040ba:	f04f 0002 	mov.w	r0, #2
 80040be:	d022      	beq.n	8004106 <HAL_TIMEx_MasterConfigSynchronization+0x56>
 80040c0:	6813      	ldr	r3, [r2, #0]
 80040c2:	f882 003d 	strb.w	r0, [r2, #61]	; 0x3d
 80040c6:	685c      	ldr	r4, [r3, #4]
 80040c8:	680d      	ldr	r5, [r1, #0]
 80040ca:	f024 0470 	bic.w	r4, r4, #112	; 0x70
 80040ce:	432c      	orrs	r4, r5
 80040d0:	6898      	ldr	r0, [r3, #8]
 80040d2:	605c      	str	r4, [r3, #4]
 80040d4:	4c0c      	ldr	r4, [pc, #48]	; (8004108 <HAL_TIMEx_MasterConfigSynchronization+0x58>)
 80040d6:	42a3      	cmp	r3, r4
 80040d8:	d00a      	beq.n	80040f0 <HAL_TIMEx_MasterConfigSynchronization+0x40>
 80040da:	f1b3 4f80 	cmp.w	r3, #1073741824	; 0x40000000
 80040de:	d007      	beq.n	80040f0 <HAL_TIMEx_MasterConfigSynchronization+0x40>
 80040e0:	f5a4 3494 	sub.w	r4, r4, #75776	; 0x12800
 80040e4:	42a3      	cmp	r3, r4
 80040e6:	d003      	beq.n	80040f0 <HAL_TIMEx_MasterConfigSynchronization+0x40>
 80040e8:	f504 6480 	add.w	r4, r4, #1024	; 0x400
 80040ec:	42a3      	cmp	r3, r4
 80040ee:	d104      	bne.n	80040fa <HAL_TIMEx_MasterConfigSynchronization+0x4a>
 80040f0:	6849      	ldr	r1, [r1, #4]
 80040f2:	f020 0080 	bic.w	r0, r0, #128	; 0x80
 80040f6:	4301      	orrs	r1, r0
 80040f8:	6099      	str	r1, [r3, #8]
 80040fa:	2301      	movs	r3, #1
 80040fc:	2000      	movs	r0, #0
 80040fe:	f882 303d 	strb.w	r3, [r2, #61]	; 0x3d
 8004102:	f882 003c 	strb.w	r0, [r2, #60]	; 0x3c
 8004106:	bd30      	pop	{r4, r5, pc}
 8004108:	40012c00 	.word	0x40012c00

0800410c <HAL_TIMEx_CommutCallback>:
 800410c:	4770      	bx	lr

0800410e <HAL_TIMEx_BreakCallback>:
 800410e:	4770      	bx	lr

08004110 <__errno>:
 8004110:	4b01      	ldr	r3, [pc, #4]	; (8004118 <__errno+0x8>)
 8004112:	6818      	ldr	r0, [r3, #0]
 8004114:	4770      	bx	lr
 8004116:	bf00      	nop
 8004118:	20000048 	.word	0x20000048

0800411c <__libc_init_array>:
 800411c:	b570      	push	{r4, r5, r6, lr}
 800411e:	2600      	movs	r6, #0
 8004120:	4d0c      	ldr	r5, [pc, #48]	; (8004154 <__libc_init_array+0x38>)
 8004122:	4c0d      	ldr	r4, [pc, #52]	; (8004158 <__libc_init_array+0x3c>)
 8004124:	1b64      	subs	r4, r4, r5
 8004126:	10a4      	asrs	r4, r4, #2
 8004128:	42a6      	cmp	r6, r4
 800412a:	d109      	bne.n	8004140 <__libc_init_array+0x24>
 800412c:	f004 f82a 	bl	8008184 <_init>
 8004130:	2600      	movs	r6, #0
 8004132:	4d0a      	ldr	r5, [pc, #40]	; (800415c <__libc_init_array+0x40>)
 8004134:	4c0a      	ldr	r4, [pc, #40]	; (8004160 <__libc_init_array+0x44>)
 8004136:	1b64      	subs	r4, r4, r5
 8004138:	10a4      	asrs	r4, r4, #2
 800413a:	42a6      	cmp	r6, r4
 800413c:	d105      	bne.n	800414a <__libc_init_array+0x2e>
 800413e:	bd70      	pop	{r4, r5, r6, pc}
 8004140:	f855 3b04 	ldr.w	r3, [r5], #4
 8004144:	4798      	blx	r3
 8004146:	3601      	adds	r6, #1
 8004148:	e7ee      	b.n	8004128 <__libc_init_array+0xc>
 800414a:	f855 3b04 	ldr.w	r3, [r5], #4
 800414e:	4798      	blx	r3
 8004150:	3601      	adds	r6, #1
 8004152:	e7f2      	b.n	800413a <__libc_init_array+0x1e>
 8004154:	08008780 	.word	0x08008780
 8004158:	08008780 	.word	0x08008780
 800415c:	08008780 	.word	0x08008780
 8004160:	08008784 	.word	0x08008784

08004164 <memset>:
 8004164:	4603      	mov	r3, r0
 8004166:	4402      	add	r2, r0
 8004168:	4293      	cmp	r3, r2
 800416a:	d100      	bne.n	800416e <memset+0xa>
 800416c:	4770      	bx	lr
 800416e:	f803 1b01 	strb.w	r1, [r3], #1
 8004172:	e7f9      	b.n	8004168 <memset+0x4>

08004174 <__cvt>:
 8004174:	2b00      	cmp	r3, #0
 8004176:	e92d 47f0 	stmdb	sp!, {r4, r5, r6, r7, r8, r9, sl, lr}
 800417a:	461f      	mov	r7, r3
 800417c:	bfbb      	ittet	lt
 800417e:	f103 4300 	addlt.w	r3, r3, #2147483648	; 0x80000000
 8004182:	461f      	movlt	r7, r3
 8004184:	2300      	movge	r3, #0
 8004186:	232d      	movlt	r3, #45	; 0x2d
 8004188:	b088      	sub	sp, #32
 800418a:	4614      	mov	r4, r2
 800418c:	9a12      	ldr	r2, [sp, #72]	; 0x48
 800418e:	9d10      	ldr	r5, [sp, #64]	; 0x40
 8004190:	7013      	strb	r3, [r2, #0]
 8004192:	9b14      	ldr	r3, [sp, #80]	; 0x50
 8004194:	f8dd a04c 	ldr.w	sl, [sp, #76]	; 0x4c
 8004198:	f023 0820 	bic.w	r8, r3, #32
 800419c:	f1b8 0f46 	cmp.w	r8, #70	; 0x46
 80041a0:	d005      	beq.n	80041ae <__cvt+0x3a>
 80041a2:	f1b8 0f45 	cmp.w	r8, #69	; 0x45
 80041a6:	d100      	bne.n	80041aa <__cvt+0x36>
 80041a8:	3501      	adds	r5, #1
 80041aa:	2302      	movs	r3, #2
 80041ac:	e000      	b.n	80041b0 <__cvt+0x3c>
 80041ae:	2303      	movs	r3, #3
 80041b0:	aa07      	add	r2, sp, #28
 80041b2:	9204      	str	r2, [sp, #16]
 80041b4:	aa06      	add	r2, sp, #24
 80041b6:	e9cd a202 	strd	sl, r2, [sp, #8]
 80041ba:	e9cd 3500 	strd	r3, r5, [sp]
 80041be:	4622      	mov	r2, r4
 80041c0:	463b      	mov	r3, r7
 80041c2:	f000 fcc5 	bl	8004b50 <_dtoa_r>
 80041c6:	f1b8 0f47 	cmp.w	r8, #71	; 0x47
 80041ca:	4606      	mov	r6, r0
 80041cc:	d102      	bne.n	80041d4 <__cvt+0x60>
 80041ce:	9b11      	ldr	r3, [sp, #68]	; 0x44
 80041d0:	07db      	lsls	r3, r3, #31
 80041d2:	d522      	bpl.n	800421a <__cvt+0xa6>
 80041d4:	f1b8 0f46 	cmp.w	r8, #70	; 0x46
 80041d8:	eb06 0905 	add.w	r9, r6, r5
 80041dc:	d110      	bne.n	8004200 <__cvt+0x8c>
 80041de:	7833      	ldrb	r3, [r6, #0]
 80041e0:	2b30      	cmp	r3, #48	; 0x30
 80041e2:	d10a      	bne.n	80041fa <__cvt+0x86>
 80041e4:	2200      	movs	r2, #0
 80041e6:	2300      	movs	r3, #0
 80041e8:	4620      	mov	r0, r4
 80041ea:	4639      	mov	r1, r7
 80041ec:	f7fc fbdc 	bl	80009a8 <__aeabi_dcmpeq>
 80041f0:	b918      	cbnz	r0, 80041fa <__cvt+0x86>
 80041f2:	f1c5 0501 	rsb	r5, r5, #1
 80041f6:	f8ca 5000 	str.w	r5, [sl]
 80041fa:	f8da 3000 	ldr.w	r3, [sl]
 80041fe:	4499      	add	r9, r3
 8004200:	2200      	movs	r2, #0
 8004202:	2300      	movs	r3, #0
 8004204:	4620      	mov	r0, r4
 8004206:	4639      	mov	r1, r7
 8004208:	f7fc fbce 	bl	80009a8 <__aeabi_dcmpeq>
 800420c:	b108      	cbz	r0, 8004212 <__cvt+0x9e>
 800420e:	f8cd 901c 	str.w	r9, [sp, #28]
 8004212:	2230      	movs	r2, #48	; 0x30
 8004214:	9b07      	ldr	r3, [sp, #28]
 8004216:	454b      	cmp	r3, r9
 8004218:	d307      	bcc.n	800422a <__cvt+0xb6>
 800421a:	4630      	mov	r0, r6
 800421c:	9b07      	ldr	r3, [sp, #28]
 800421e:	9a15      	ldr	r2, [sp, #84]	; 0x54
 8004220:	1b9b      	subs	r3, r3, r6
 8004222:	6013      	str	r3, [r2, #0]
 8004224:	b008      	add	sp, #32
 8004226:	e8bd 87f0 	ldmia.w	sp!, {r4, r5, r6, r7, r8, r9, sl, pc}
 800422a:	1c59      	adds	r1, r3, #1
 800422c:	9107      	str	r1, [sp, #28]
 800422e:	701a      	strb	r2, [r3, #0]
 8004230:	e7f0      	b.n	8004214 <__cvt+0xa0>

08004232 <__exponent>:
 8004232:	4603      	mov	r3, r0
 8004234:	b5f7      	push	{r0, r1, r2, r4, r5, r6, r7, lr}
 8004236:	2900      	cmp	r1, #0
 8004238:	f803 2b02 	strb.w	r2, [r3], #2
 800423c:	bfb6      	itet	lt
 800423e:	222d      	movlt	r2, #45	; 0x2d
 8004240:	222b      	movge	r2, #43	; 0x2b
 8004242:	4249      	neglt	r1, r1
 8004244:	2909      	cmp	r1, #9
 8004246:	7042      	strb	r2, [r0, #1]
 8004248:	dd2b      	ble.n	80042a2 <__exponent+0x70>
 800424a:	f10d 0407 	add.w	r4, sp, #7
 800424e:	46a4      	mov	ip, r4
 8004250:	270a      	movs	r7, #10
 8004252:	fb91 f6f7 	sdiv	r6, r1, r7
 8004256:	460a      	mov	r2, r1
 8004258:	46a6      	mov	lr, r4
 800425a:	fb07 1516 	mls	r5, r7, r6, r1
 800425e:	2a63      	cmp	r2, #99	; 0x63
 8004260:	f105 0530 	add.w	r5, r5, #48	; 0x30
 8004264:	4631      	mov	r1, r6
 8004266:	f104 34ff 	add.w	r4, r4, #4294967295
 800426a:	f80e 5c01 	strb.w	r5, [lr, #-1]
 800426e:	dcf0      	bgt.n	8004252 <__exponent+0x20>
 8004270:	3130      	adds	r1, #48	; 0x30
 8004272:	f1ae 0502 	sub.w	r5, lr, #2
 8004276:	f804 1c01 	strb.w	r1, [r4, #-1]
 800427a:	4629      	mov	r1, r5
 800427c:	1c44      	adds	r4, r0, #1
 800427e:	4561      	cmp	r1, ip
 8004280:	d30a      	bcc.n	8004298 <__exponent+0x66>
 8004282:	f10d 0209 	add.w	r2, sp, #9
 8004286:	eba2 020e 	sub.w	r2, r2, lr
 800428a:	4565      	cmp	r5, ip
 800428c:	bf88      	it	hi
 800428e:	2200      	movhi	r2, #0
 8004290:	4413      	add	r3, r2
 8004292:	1a18      	subs	r0, r3, r0
 8004294:	b003      	add	sp, #12
 8004296:	bdf0      	pop	{r4, r5, r6, r7, pc}
 8004298:	f811 2b01 	ldrb.w	r2, [r1], #1
 800429c:	f804 2f01 	strb.w	r2, [r4, #1]!
 80042a0:	e7ed      	b.n	800427e <__exponent+0x4c>
 80042a2:	2330      	movs	r3, #48	; 0x30
 80042a4:	3130      	adds	r1, #48	; 0x30
 80042a6:	7083      	strb	r3, [r0, #2]
 80042a8:	70c1      	strb	r1, [r0, #3]
 80042aa:	1d03      	adds	r3, r0, #4
 80042ac:	e7f1      	b.n	8004292 <__exponent+0x60>
	...

080042b0 <_printf_float>:
 80042b0:	e92d 4ff0 	stmdb	sp!, {r4, r5, r6, r7, r8, r9, sl, fp, lr}
 80042b4:	b091      	sub	sp, #68	; 0x44
 80042b6:	460c      	mov	r4, r1
 80042b8:	f8dd 8068 	ldr.w	r8, [sp, #104]	; 0x68
 80042bc:	4616      	mov	r6, r2
 80042be:	461f      	mov	r7, r3
 80042c0:	4605      	mov	r5, r0
 80042c2:	f001 fa33 	bl	800572c <_localeconv_r>
 80042c6:	6803      	ldr	r3, [r0, #0]
 80042c8:	4618      	mov	r0, r3
 80042ca:	9309      	str	r3, [sp, #36]	; 0x24
 80042cc:	f7fb ff40 	bl	8000150 <strlen>
 80042d0:	2300      	movs	r3, #0
 80042d2:	930e      	str	r3, [sp, #56]	; 0x38
 80042d4:	f8d8 3000 	ldr.w	r3, [r8]
 80042d8:	900a      	str	r0, [sp, #40]	; 0x28
 80042da:	3307      	adds	r3, #7
 80042dc:	f023 0307 	bic.w	r3, r3, #7
 80042e0:	f103 0208 	add.w	r2, r3, #8
 80042e4:	f894 9018 	ldrb.w	r9, [r4, #24]
 80042e8:	f8d4 b000 	ldr.w	fp, [r4]
 80042ec:	f8c8 2000 	str.w	r2, [r8]
 80042f0:	e9d3 2300 	ldrd	r2, r3, [r3]
 80042f4:	e9c4 2312 	strd	r2, r3, [r4, #72]	; 0x48
 80042f8:	e9d4 8a12 	ldrd	r8, sl, [r4, #72]	; 0x48
 80042fc:	f02a 4300 	bic.w	r3, sl, #2147483648	; 0x80000000
 8004300:	930b      	str	r3, [sp, #44]	; 0x2c
 8004302:	f04f 32ff 	mov.w	r2, #4294967295
 8004306:	4640      	mov	r0, r8
 8004308:	4b9c      	ldr	r3, [pc, #624]	; (800457c <_printf_float+0x2cc>)
 800430a:	990b      	ldr	r1, [sp, #44]	; 0x2c
 800430c:	f7fc fb7e 	bl	8000a0c <__aeabi_dcmpun>
 8004310:	bb70      	cbnz	r0, 8004370 <_printf_float+0xc0>
 8004312:	f04f 32ff 	mov.w	r2, #4294967295
 8004316:	4640      	mov	r0, r8
 8004318:	4b98      	ldr	r3, [pc, #608]	; (800457c <_printf_float+0x2cc>)
 800431a:	990b      	ldr	r1, [sp, #44]	; 0x2c
 800431c:	f7fc fb58 	bl	80009d0 <__aeabi_dcmple>
 8004320:	bb30      	cbnz	r0, 8004370 <_printf_float+0xc0>
 8004322:	2200      	movs	r2, #0
 8004324:	2300      	movs	r3, #0
 8004326:	4640      	mov	r0, r8
 8004328:	4651      	mov	r1, sl
 800432a:	f7fc fb47 	bl	80009bc <__aeabi_dcmplt>
 800432e:	b110      	cbz	r0, 8004336 <_printf_float+0x86>
 8004330:	232d      	movs	r3, #45	; 0x2d
 8004332:	f884 3043 	strb.w	r3, [r4, #67]	; 0x43
 8004336:	4b92      	ldr	r3, [pc, #584]	; (8004580 <_printf_float+0x2d0>)
 8004338:	4892      	ldr	r0, [pc, #584]	; (8004584 <_printf_float+0x2d4>)
 800433a:	f1b9 0f47 	cmp.w	r9, #71	; 0x47
 800433e:	bf94      	ite	ls
 8004340:	4698      	movls	r8, r3
 8004342:	4680      	movhi	r8, r0
 8004344:	2303      	movs	r3, #3
 8004346:	f04f 0a00 	mov.w	sl, #0
 800434a:	6123      	str	r3, [r4, #16]
 800434c:	f02b 0304 	bic.w	r3, fp, #4
 8004350:	6023      	str	r3, [r4, #0]
 8004352:	4633      	mov	r3, r6
 8004354:	4621      	mov	r1, r4
 8004356:	4628      	mov	r0, r5
 8004358:	9700      	str	r7, [sp, #0]
 800435a:	aa0f      	add	r2, sp, #60	; 0x3c
 800435c:	f000 f9d4 	bl	8004708 <_printf_common>
 8004360:	3001      	adds	r0, #1
 8004362:	f040 8090 	bne.w	8004486 <_printf_float+0x1d6>
 8004366:	f04f 30ff 	mov.w	r0, #4294967295
 800436a:	b011      	add	sp, #68	; 0x44
 800436c:	e8bd 8ff0 	ldmia.w	sp!, {r4, r5, r6, r7, r8, r9, sl, fp, pc}
 8004370:	4642      	mov	r2, r8
 8004372:	4653      	mov	r3, sl
 8004374:	4640      	mov	r0, r8
 8004376:	4651      	mov	r1, sl
 8004378:	f7fc fb48 	bl	8000a0c <__aeabi_dcmpun>
 800437c:	b148      	cbz	r0, 8004392 <_printf_float+0xe2>
 800437e:	f1ba 0f00 	cmp.w	sl, #0
 8004382:	bfb8      	it	lt
 8004384:	232d      	movlt	r3, #45	; 0x2d
 8004386:	4880      	ldr	r0, [pc, #512]	; (8004588 <_printf_float+0x2d8>)
 8004388:	bfb8      	it	lt
 800438a:	f884 3043 	strblt.w	r3, [r4, #67]	; 0x43
 800438e:	4b7f      	ldr	r3, [pc, #508]	; (800458c <_printf_float+0x2dc>)
 8004390:	e7d3      	b.n	800433a <_printf_float+0x8a>
 8004392:	6863      	ldr	r3, [r4, #4]
 8004394:	f009 01df 	and.w	r1, r9, #223	; 0xdf
 8004398:	1c5a      	adds	r2, r3, #1
 800439a:	d142      	bne.n	8004422 <_printf_float+0x172>
 800439c:	2306      	movs	r3, #6
 800439e:	6063      	str	r3, [r4, #4]
 80043a0:	2200      	movs	r2, #0
 80043a2:	9206      	str	r2, [sp, #24]
 80043a4:	aa0e      	add	r2, sp, #56	; 0x38
 80043a6:	e9cd 9204 	strd	r9, r2, [sp, #16]
 80043aa:	aa0d      	add	r2, sp, #52	; 0x34
 80043ac:	f44b 6380 	orr.w	r3, fp, #1024	; 0x400
 80043b0:	9203      	str	r2, [sp, #12]
 80043b2:	f10d 0233 	add.w	r2, sp, #51	; 0x33
 80043b6:	e9cd 3201 	strd	r3, r2, [sp, #4]
 80043ba:	6023      	str	r3, [r4, #0]
 80043bc:	6863      	ldr	r3, [r4, #4]
 80043be:	4642      	mov	r2, r8
 80043c0:	9300      	str	r3, [sp, #0]
 80043c2:	4628      	mov	r0, r5
 80043c4:	4653      	mov	r3, sl
 80043c6:	910b      	str	r1, [sp, #44]	; 0x2c
 80043c8:	f7ff fed4 	bl	8004174 <__cvt>
 80043cc:	990b      	ldr	r1, [sp, #44]	; 0x2c
 80043ce:	4680      	mov	r8, r0
 80043d0:	2947      	cmp	r1, #71	; 0x47
 80043d2:	990d      	ldr	r1, [sp, #52]	; 0x34
 80043d4:	d108      	bne.n	80043e8 <_printf_float+0x138>
 80043d6:	1cc8      	adds	r0, r1, #3
 80043d8:	db02      	blt.n	80043e0 <_printf_float+0x130>
 80043da:	6863      	ldr	r3, [r4, #4]
 80043dc:	4299      	cmp	r1, r3
 80043de:	dd40      	ble.n	8004462 <_printf_float+0x1b2>
 80043e0:	f1a9 0902 	sub.w	r9, r9, #2
 80043e4:	fa5f f989 	uxtb.w	r9, r9
 80043e8:	f1b9 0f65 	cmp.w	r9, #101	; 0x65
 80043ec:	d81f      	bhi.n	800442e <_printf_float+0x17e>
 80043ee:	464a      	mov	r2, r9
 80043f0:	3901      	subs	r1, #1
 80043f2:	f104 0050 	add.w	r0, r4, #80	; 0x50
 80043f6:	910d      	str	r1, [sp, #52]	; 0x34
 80043f8:	f7ff ff1b 	bl	8004232 <__exponent>
 80043fc:	9a0e      	ldr	r2, [sp, #56]	; 0x38
 80043fe:	4682      	mov	sl, r0
 8004400:	1813      	adds	r3, r2, r0
 8004402:	2a01      	cmp	r2, #1
 8004404:	6123      	str	r3, [r4, #16]
 8004406:	dc02      	bgt.n	800440e <_printf_float+0x15e>
 8004408:	6822      	ldr	r2, [r4, #0]
 800440a:	07d2      	lsls	r2, r2, #31
 800440c:	d501      	bpl.n	8004412 <_printf_float+0x162>
 800440e:	3301      	adds	r3, #1
 8004410:	6123      	str	r3, [r4, #16]
 8004412:	f89d 3033 	ldrb.w	r3, [sp, #51]	; 0x33
 8004416:	2b00      	cmp	r3, #0
 8004418:	d09b      	beq.n	8004352 <_printf_float+0xa2>
 800441a:	232d      	movs	r3, #45	; 0x2d
 800441c:	f884 3043 	strb.w	r3, [r4, #67]	; 0x43
 8004420:	e797      	b.n	8004352 <_printf_float+0xa2>
 8004422:	2947      	cmp	r1, #71	; 0x47
 8004424:	d1bc      	bne.n	80043a0 <_printf_float+0xf0>
 8004426:	2b00      	cmp	r3, #0
 8004428:	d1ba      	bne.n	80043a0 <_printf_float+0xf0>
 800442a:	2301      	movs	r3, #1
 800442c:	e7b7      	b.n	800439e <_printf_float+0xee>
 800442e:	f1b9 0f66 	cmp.w	r9, #102	; 0x66
 8004432:	d118      	bne.n	8004466 <_printf_float+0x1b6>
 8004434:	2900      	cmp	r1, #0
 8004436:	6863      	ldr	r3, [r4, #4]
 8004438:	dd0b      	ble.n	8004452 <_printf_float+0x1a2>
 800443a:	6121      	str	r1, [r4, #16]
 800443c:	b913      	cbnz	r3, 8004444 <_printf_float+0x194>
 800443e:	6822      	ldr	r2, [r4, #0]
 8004440:	07d0      	lsls	r0, r2, #31
 8004442:	d502      	bpl.n	800444a <_printf_float+0x19a>
 8004444:	3301      	adds	r3, #1
 8004446:	440b      	add	r3, r1
 8004448:	6123      	str	r3, [r4, #16]
 800444a:	f04f 0a00 	mov.w	sl, #0
 800444e:	65a1      	str	r1, [r4, #88]	; 0x58
 8004450:	e7df      	b.n	8004412 <_printf_float+0x162>
 8004452:	b913      	cbnz	r3, 800445a <_printf_float+0x1aa>
 8004454:	6822      	ldr	r2, [r4, #0]
 8004456:	07d2      	lsls	r2, r2, #31
 8004458:	d501      	bpl.n	800445e <_printf_float+0x1ae>
 800445a:	3302      	adds	r3, #2
 800445c:	e7f4      	b.n	8004448 <_printf_float+0x198>
 800445e:	2301      	movs	r3, #1
 8004460:	e7f2      	b.n	8004448 <_printf_float+0x198>
 8004462:	f04f 0967 	mov.w	r9, #103	; 0x67
 8004466:	9b0e      	ldr	r3, [sp, #56]	; 0x38
 8004468:	4299      	cmp	r1, r3
 800446a:	db05      	blt.n	8004478 <_printf_float+0x1c8>
 800446c:	6823      	ldr	r3, [r4, #0]
 800446e:	6121      	str	r1, [r4, #16]
 8004470:	07d8      	lsls	r0, r3, #31
 8004472:	d5ea      	bpl.n	800444a <_printf_float+0x19a>
 8004474:	1c4b      	adds	r3, r1, #1
 8004476:	e7e7      	b.n	8004448 <_printf_float+0x198>
 8004478:	2900      	cmp	r1, #0
 800447a:	bfcc      	ite	gt
 800447c:	2201      	movgt	r2, #1
 800447e:	f1c1 0202 	rsble	r2, r1, #2
 8004482:	4413      	add	r3, r2
 8004484:	e7e0      	b.n	8004448 <_printf_float+0x198>
 8004486:	6823      	ldr	r3, [r4, #0]
 8004488:	055a      	lsls	r2, r3, #21
 800448a:	d407      	bmi.n	800449c <_printf_float+0x1ec>
 800448c:	6923      	ldr	r3, [r4, #16]
 800448e:	4642      	mov	r2, r8
 8004490:	4631      	mov	r1, r6
 8004492:	4628      	mov	r0, r5
 8004494:	47b8      	blx	r7
 8004496:	3001      	adds	r0, #1
 8004498:	d12b      	bne.n	80044f2 <_printf_float+0x242>
 800449a:	e764      	b.n	8004366 <_printf_float+0xb6>
 800449c:	f1b9 0f65 	cmp.w	r9, #101	; 0x65
 80044a0:	f240 80dd 	bls.w	800465e <_printf_float+0x3ae>
 80044a4:	e9d4 0112 	ldrd	r0, r1, [r4, #72]	; 0x48
 80044a8:	2200      	movs	r2, #0
 80044aa:	2300      	movs	r3, #0
 80044ac:	f7fc fa7c 	bl	80009a8 <__aeabi_dcmpeq>
 80044b0:	2800      	cmp	r0, #0
 80044b2:	d033      	beq.n	800451c <_printf_float+0x26c>
 80044b4:	2301      	movs	r3, #1
 80044b6:	4631      	mov	r1, r6
 80044b8:	4628      	mov	r0, r5
 80044ba:	4a35      	ldr	r2, [pc, #212]	; (8004590 <_printf_float+0x2e0>)
 80044bc:	47b8      	blx	r7
 80044be:	3001      	adds	r0, #1
 80044c0:	f43f af51 	beq.w	8004366 <_printf_float+0xb6>
 80044c4:	e9dd 230d 	ldrd	r2, r3, [sp, #52]	; 0x34
 80044c8:	429a      	cmp	r2, r3
 80044ca:	db02      	blt.n	80044d2 <_printf_float+0x222>
 80044cc:	6823      	ldr	r3, [r4, #0]
 80044ce:	07d8      	lsls	r0, r3, #31
 80044d0:	d50f      	bpl.n	80044f2 <_printf_float+0x242>
 80044d2:	e9dd 2309 	ldrd	r2, r3, [sp, #36]	; 0x24
 80044d6:	4631      	mov	r1, r6
 80044d8:	4628      	mov	r0, r5
 80044da:	47b8      	blx	r7
 80044dc:	3001      	adds	r0, #1
 80044de:	f43f af42 	beq.w	8004366 <_printf_float+0xb6>
 80044e2:	f04f 0800 	mov.w	r8, #0
 80044e6:	f104 091a 	add.w	r9, r4, #26
 80044ea:	9b0e      	ldr	r3, [sp, #56]	; 0x38
 80044ec:	3b01      	subs	r3, #1
 80044ee:	4543      	cmp	r3, r8
 80044f0:	dc09      	bgt.n	8004506 <_printf_float+0x256>
 80044f2:	6823      	ldr	r3, [r4, #0]
 80044f4:	079b      	lsls	r3, r3, #30
 80044f6:	f100 8102 	bmi.w	80046fe <_printf_float+0x44e>
 80044fa:	68e0      	ldr	r0, [r4, #12]
 80044fc:	9b0f      	ldr	r3, [sp, #60]	; 0x3c
 80044fe:	4298      	cmp	r0, r3
 8004500:	bfb8      	it	lt
 8004502:	4618      	movlt	r0, r3
 8004504:	e731      	b.n	800436a <_printf_float+0xba>
 8004506:	2301      	movs	r3, #1
 8004508:	464a      	mov	r2, r9
 800450a:	4631      	mov	r1, r6
 800450c:	4628      	mov	r0, r5
 800450e:	47b8      	blx	r7
 8004510:	3001      	adds	r0, #1
 8004512:	f43f af28 	beq.w	8004366 <_printf_float+0xb6>
 8004516:	f108 0801 	add.w	r8, r8, #1
 800451a:	e7e6      	b.n	80044ea <_printf_float+0x23a>
 800451c:	9b0d      	ldr	r3, [sp, #52]	; 0x34
 800451e:	2b00      	cmp	r3, #0
 8004520:	dc38      	bgt.n	8004594 <_printf_float+0x2e4>
 8004522:	2301      	movs	r3, #1
 8004524:	4631      	mov	r1, r6
 8004526:	4628      	mov	r0, r5
 8004528:	4a19      	ldr	r2, [pc, #100]	; (8004590 <_printf_float+0x2e0>)
 800452a:	47b8      	blx	r7
 800452c:	3001      	adds	r0, #1
 800452e:	f43f af1a 	beq.w	8004366 <_printf_float+0xb6>
 8004532:	e9dd 230d 	ldrd	r2, r3, [sp, #52]	; 0x34
 8004536:	4313      	orrs	r3, r2
 8004538:	d102      	bne.n	8004540 <_printf_float+0x290>
 800453a:	6823      	ldr	r3, [r4, #0]
 800453c:	07d9      	lsls	r1, r3, #31
 800453e:	d5d8      	bpl.n	80044f2 <_printf_float+0x242>
 8004540:	e9dd 2309 	ldrd	r2, r3, [sp, #36]	; 0x24
 8004544:	4631      	mov	r1, r6
 8004546:	4628      	mov	r0, r5
 8004548:	47b8      	blx	r7
 800454a:	3001      	adds	r0, #1
 800454c:	f43f af0b 	beq.w	8004366 <_printf_float+0xb6>
 8004550:	f04f 0900 	mov.w	r9, #0
 8004554:	f104 0a1a 	add.w	sl, r4, #26
 8004558:	9b0d      	ldr	r3, [sp, #52]	; 0x34
 800455a:	425b      	negs	r3, r3
 800455c:	454b      	cmp	r3, r9
 800455e:	dc01      	bgt.n	8004564 <_printf_float+0x2b4>
 8004560:	9b0e      	ldr	r3, [sp, #56]	; 0x38
 8004562:	e794      	b.n	800448e <_printf_float+0x1de>
 8004564:	2301      	movs	r3, #1
 8004566:	4652      	mov	r2, sl
 8004568:	4631      	mov	r1, r6
 800456a:	4628      	mov	r0, r5
 800456c:	47b8      	blx	r7
 800456e:	3001      	adds	r0, #1
 8004570:	f43f aef9 	beq.w	8004366 <_printf_float+0xb6>
 8004574:	f109 0901 	add.w	r9, r9, #1
 8004578:	e7ee      	b.n	8004558 <_printf_float+0x2a8>
 800457a:	bf00      	nop
 800457c:	7fefffff 	.word	0x7fefffff
 8004580:	080081d0 	.word	0x080081d0
 8004584:	080081d4 	.word	0x080081d4
 8004588:	080081dc 	.word	0x080081dc
 800458c:	080081d8 	.word	0x080081d8
 8004590:	080081e0 	.word	0x080081e0
 8004594:	9a0e      	ldr	r2, [sp, #56]	; 0x38
 8004596:	6da3      	ldr	r3, [r4, #88]	; 0x58
 8004598:	429a      	cmp	r2, r3
 800459a:	bfa8      	it	ge
 800459c:	461a      	movge	r2, r3
 800459e:	2a00      	cmp	r2, #0
 80045a0:	4691      	mov	r9, r2
 80045a2:	dc37      	bgt.n	8004614 <_printf_float+0x364>
 80045a4:	f04f 0b00 	mov.w	fp, #0
 80045a8:	ea29 79e9 	bic.w	r9, r9, r9, asr #31
 80045ac:	f104 021a 	add.w	r2, r4, #26
 80045b0:	f8d4 a058 	ldr.w	sl, [r4, #88]	; 0x58
 80045b4:	ebaa 0309 	sub.w	r3, sl, r9
 80045b8:	455b      	cmp	r3, fp
 80045ba:	dc33      	bgt.n	8004624 <_printf_float+0x374>
 80045bc:	e9dd 230d 	ldrd	r2, r3, [sp, #52]	; 0x34
 80045c0:	429a      	cmp	r2, r3
 80045c2:	db3b      	blt.n	800463c <_printf_float+0x38c>
 80045c4:	6823      	ldr	r3, [r4, #0]
 80045c6:	07da      	lsls	r2, r3, #31
 80045c8:	d438      	bmi.n	800463c <_printf_float+0x38c>
 80045ca:	9b0e      	ldr	r3, [sp, #56]	; 0x38
 80045cc:	990d      	ldr	r1, [sp, #52]	; 0x34
 80045ce:	eba3 020a 	sub.w	r2, r3, sl
 80045d2:	eba3 0901 	sub.w	r9, r3, r1
 80045d6:	4591      	cmp	r9, r2
 80045d8:	bfa8      	it	ge
 80045da:	4691      	movge	r9, r2
 80045dc:	f1b9 0f00 	cmp.w	r9, #0
 80045e0:	dc34      	bgt.n	800464c <_printf_float+0x39c>
 80045e2:	f04f 0800 	mov.w	r8, #0
 80045e6:	ea29 79e9 	bic.w	r9, r9, r9, asr #31
 80045ea:	f104 0a1a 	add.w	sl, r4, #26
 80045ee:	e9dd 230d 	ldrd	r2, r3, [sp, #52]	; 0x34
 80045f2:	1a9b      	subs	r3, r3, r2
 80045f4:	eba3 0309 	sub.w	r3, r3, r9
 80045f8:	4543      	cmp	r3, r8
 80045fa:	f77f af7a 	ble.w	80044f2 <_printf_float+0x242>
 80045fe:	2301      	movs	r3, #1
 8004600:	4652      	mov	r2, sl
 8004602:	4631      	mov	r1, r6
 8004604:	4628      	mov	r0, r5
 8004606:	47b8      	blx	r7
 8004608:	3001      	adds	r0, #1
 800460a:	f43f aeac 	beq.w	8004366 <_printf_float+0xb6>
 800460e:	f108 0801 	add.w	r8, r8, #1
 8004612:	e7ec      	b.n	80045ee <_printf_float+0x33e>
 8004614:	4613      	mov	r3, r2
 8004616:	4631      	mov	r1, r6
 8004618:	4642      	mov	r2, r8
 800461a:	4628      	mov	r0, r5
 800461c:	47b8      	blx	r7
 800461e:	3001      	adds	r0, #1
 8004620:	d1c0      	bne.n	80045a4 <_printf_float+0x2f4>
 8004622:	e6a0      	b.n	8004366 <_printf_float+0xb6>
 8004624:	2301      	movs	r3, #1
 8004626:	4631      	mov	r1, r6
 8004628:	4628      	mov	r0, r5
 800462a:	920b      	str	r2, [sp, #44]	; 0x2c
 800462c:	47b8      	blx	r7
 800462e:	3001      	adds	r0, #1
 8004630:	f43f ae99 	beq.w	8004366 <_printf_float+0xb6>
 8004634:	9a0b      	ldr	r2, [sp, #44]	; 0x2c
 8004636:	f10b 0b01 	add.w	fp, fp, #1
 800463a:	e7b9      	b.n	80045b0 <_printf_float+0x300>
 800463c:	4631      	mov	r1, r6
 800463e:	e9dd 2309 	ldrd	r2, r3, [sp, #36]	; 0x24
 8004642:	4628      	mov	r0, r5
 8004644:	47b8      	blx	r7
 8004646:	3001      	adds	r0, #1
 8004648:	d1bf      	bne.n	80045ca <_printf_float+0x31a>
 800464a:	e68c      	b.n	8004366 <_printf_float+0xb6>
 800464c:	464b      	mov	r3, r9
 800464e:	4631      	mov	r1, r6
 8004650:	4628      	mov	r0, r5
 8004652:	eb08 020a 	add.w	r2, r8, sl
 8004656:	47b8      	blx	r7
 8004658:	3001      	adds	r0, #1
 800465a:	d1c2      	bne.n	80045e2 <_printf_float+0x332>
 800465c:	e683      	b.n	8004366 <_printf_float+0xb6>
 800465e:	9a0e      	ldr	r2, [sp, #56]	; 0x38
 8004660:	2a01      	cmp	r2, #1
 8004662:	dc01      	bgt.n	8004668 <_printf_float+0x3b8>
 8004664:	07db      	lsls	r3, r3, #31
 8004666:	d537      	bpl.n	80046d8 <_printf_float+0x428>
 8004668:	2301      	movs	r3, #1
 800466a:	4642      	mov	r2, r8
 800466c:	4631      	mov	r1, r6
 800466e:	4628      	mov	r0, r5
 8004670:	47b8      	blx	r7
 8004672:	3001      	adds	r0, #1
 8004674:	f43f ae77 	beq.w	8004366 <_printf_float+0xb6>
 8004678:	e9dd 2309 	ldrd	r2, r3, [sp, #36]	; 0x24
 800467c:	4631      	mov	r1, r6
 800467e:	4628      	mov	r0, r5
 8004680:	47b8      	blx	r7
 8004682:	3001      	adds	r0, #1
 8004684:	f43f ae6f 	beq.w	8004366 <_printf_float+0xb6>
 8004688:	e9d4 0112 	ldrd	r0, r1, [r4, #72]	; 0x48
 800468c:	2200      	movs	r2, #0
 800468e:	2300      	movs	r3, #0
 8004690:	f7fc f98a 	bl	80009a8 <__aeabi_dcmpeq>
 8004694:	b9d8      	cbnz	r0, 80046ce <_printf_float+0x41e>
 8004696:	9b0e      	ldr	r3, [sp, #56]	; 0x38
 8004698:	f108 0201 	add.w	r2, r8, #1
 800469c:	3b01      	subs	r3, #1
 800469e:	4631      	mov	r1, r6
 80046a0:	4628      	mov	r0, r5
 80046a2:	47b8      	blx	r7
 80046a4:	3001      	adds	r0, #1
 80046a6:	d10e      	bne.n	80046c6 <_printf_float+0x416>
 80046a8:	e65d      	b.n	8004366 <_printf_float+0xb6>
 80046aa:	2301      	movs	r3, #1
 80046ac:	464a      	mov	r2, r9
 80046ae:	4631      	mov	r1, r6
 80046b0:	4628      	mov	r0, r5
 80046b2:	47b8      	blx	r7
 80046b4:	3001      	adds	r0, #1
 80046b6:	f43f ae56 	beq.w	8004366 <_printf_float+0xb6>
 80046ba:	f108 0801 	add.w	r8, r8, #1
 80046be:	9b0e      	ldr	r3, [sp, #56]	; 0x38
 80046c0:	3b01      	subs	r3, #1
 80046c2:	4543      	cmp	r3, r8
 80046c4:	dcf1      	bgt.n	80046aa <_printf_float+0x3fa>
 80046c6:	4653      	mov	r3, sl
 80046c8:	f104 0250 	add.w	r2, r4, #80	; 0x50
 80046cc:	e6e0      	b.n	8004490 <_printf_float+0x1e0>
 80046ce:	f04f 0800 	mov.w	r8, #0
 80046d2:	f104 091a 	add.w	r9, r4, #26
 80046d6:	e7f2      	b.n	80046be <_printf_float+0x40e>
 80046d8:	2301      	movs	r3, #1
 80046da:	4642      	mov	r2, r8
 80046dc:	e7df      	b.n	800469e <_printf_float+0x3ee>
 80046de:	2301      	movs	r3, #1
 80046e0:	464a      	mov	r2, r9
 80046e2:	4631      	mov	r1, r6
 80046e4:	4628      	mov	r0, r5
 80046e6:	47b8      	blx	r7
 80046e8:	3001      	adds	r0, #1
 80046ea:	f43f ae3c 	beq.w	8004366 <_printf_float+0xb6>
 80046ee:	f108 0801 	add.w	r8, r8, #1
 80046f2:	68e3      	ldr	r3, [r4, #12]
 80046f4:	990f      	ldr	r1, [sp, #60]	; 0x3c
 80046f6:	1a5b      	subs	r3, r3, r1
 80046f8:	4543      	cmp	r3, r8
 80046fa:	dcf0      	bgt.n	80046de <_printf_float+0x42e>
 80046fc:	e6fd      	b.n	80044fa <_printf_float+0x24a>
 80046fe:	f04f 0800 	mov.w	r8, #0
 8004702:	f104 0919 	add.w	r9, r4, #25
 8004706:	e7f4      	b.n	80046f2 <_printf_float+0x442>

08004708 <_printf_common>:
 8004708:	e92d 47f0 	stmdb	sp!, {r4, r5, r6, r7, r8, r9, sl, lr}
 800470c:	4616      	mov	r6, r2
 800470e:	4699      	mov	r9, r3
 8004710:	688a      	ldr	r2, [r1, #8]
 8004712:	690b      	ldr	r3, [r1, #16]
 8004714:	4607      	mov	r7, r0
 8004716:	4293      	cmp	r3, r2
 8004718:	bfb8      	it	lt
 800471a:	4613      	movlt	r3, r2
 800471c:	6033      	str	r3, [r6, #0]
 800471e:	f891 2043 	ldrb.w	r2, [r1, #67]	; 0x43
 8004722:	460c      	mov	r4, r1
 8004724:	f8dd 8020 	ldr.w	r8, [sp, #32]
 8004728:	b10a      	cbz	r2, 800472e <_printf_common+0x26>
 800472a:	3301      	adds	r3, #1
 800472c:	6033      	str	r3, [r6, #0]
 800472e:	6823      	ldr	r3, [r4, #0]
 8004730:	0699      	lsls	r1, r3, #26
 8004732:	bf42      	ittt	mi
 8004734:	6833      	ldrmi	r3, [r6, #0]
 8004736:	3302      	addmi	r3, #2
 8004738:	6033      	strmi	r3, [r6, #0]
 800473a:	6825      	ldr	r5, [r4, #0]
 800473c:	f015 0506 	ands.w	r5, r5, #6
 8004740:	d106      	bne.n	8004750 <_printf_common+0x48>
 8004742:	f104 0a19 	add.w	sl, r4, #25
 8004746:	68e3      	ldr	r3, [r4, #12]
 8004748:	6832      	ldr	r2, [r6, #0]
 800474a:	1a9b      	subs	r3, r3, r2
 800474c:	42ab      	cmp	r3, r5
 800474e:	dc28      	bgt.n	80047a2 <_printf_common+0x9a>
 8004750:	f894 2043 	ldrb.w	r2, [r4, #67]	; 0x43
 8004754:	1e13      	subs	r3, r2, #0
 8004756:	6822      	ldr	r2, [r4, #0]
 8004758:	bf18      	it	ne
 800475a:	2301      	movne	r3, #1
 800475c:	0692      	lsls	r2, r2, #26
 800475e:	d42d      	bmi.n	80047bc <_printf_common+0xb4>
 8004760:	4649      	mov	r1, r9
 8004762:	4638      	mov	r0, r7
 8004764:	f104 0243 	add.w	r2, r4, #67	; 0x43
 8004768:	47c0      	blx	r8
 800476a:	3001      	adds	r0, #1
 800476c:	d020      	beq.n	80047b0 <_printf_common+0xa8>
 800476e:	6823      	ldr	r3, [r4, #0]
 8004770:	68e5      	ldr	r5, [r4, #12]
 8004772:	f003 0306 	and.w	r3, r3, #6
 8004776:	2b04      	cmp	r3, #4
 8004778:	bf18      	it	ne
 800477a:	2500      	movne	r5, #0
 800477c:	6832      	ldr	r2, [r6, #0]
 800477e:	f04f 0600 	mov.w	r6, #0
 8004782:	68a3      	ldr	r3, [r4, #8]
 8004784:	bf08      	it	eq
 8004786:	1aad      	subeq	r5, r5, r2
 8004788:	6922      	ldr	r2, [r4, #16]
 800478a:	bf08      	it	eq
 800478c:	ea25 75e5 	biceq.w	r5, r5, r5, asr #31
 8004790:	4293      	cmp	r3, r2
 8004792:	bfc4      	itt	gt
 8004794:	1a9b      	subgt	r3, r3, r2
 8004796:	18ed      	addgt	r5, r5, r3
 8004798:	341a      	adds	r4, #26
 800479a:	42b5      	cmp	r5, r6
 800479c:	d11a      	bne.n	80047d4 <_printf_common+0xcc>
 800479e:	2000      	movs	r0, #0
 80047a0:	e008      	b.n	80047b4 <_printf_common+0xac>
 80047a2:	2301      	movs	r3, #1
 80047a4:	4652      	mov	r2, sl
 80047a6:	4649      	mov	r1, r9
 80047a8:	4638      	mov	r0, r7
 80047aa:	47c0      	blx	r8
 80047ac:	3001      	adds	r0, #1
 80047ae:	d103      	bne.n	80047b8 <_printf_common+0xb0>
 80047b0:	f04f 30ff 	mov.w	r0, #4294967295
 80047b4:	e8bd 87f0 	ldmia.w	sp!, {r4, r5, r6, r7, r8, r9, sl, pc}
 80047b8:	3501      	adds	r5, #1
 80047ba:	e7c4      	b.n	8004746 <_printf_common+0x3e>
 80047bc:	2030      	movs	r0, #48	; 0x30
 80047be:	18e1      	adds	r1, r4, r3
 80047c0:	f881 0043 	strb.w	r0, [r1, #67]	; 0x43
 80047c4:	1c5a      	adds	r2, r3, #1
 80047c6:	f894 1045 	ldrb.w	r1, [r4, #69]	; 0x45
 80047ca:	4422      	add	r2, r4
 80047cc:	3302      	adds	r3, #2
 80047ce:	f882 1043 	strb.w	r1, [r2, #67]	; 0x43
 80047d2:	e7c5      	b.n	8004760 <_printf_common+0x58>
 80047d4:	2301      	movs	r3, #1
 80047d6:	4622      	mov	r2, r4
 80047d8:	4649      	mov	r1, r9
 80047da:	4638      	mov	r0, r7
 80047dc:	47c0      	blx	r8
 80047de:	3001      	adds	r0, #1
 80047e0:	d0e6      	beq.n	80047b0 <_printf_common+0xa8>
 80047e2:	3601      	adds	r6, #1
 80047e4:	e7d9      	b.n	800479a <_printf_common+0x92>
	...

080047e8 <_printf_i>:
 80047e8:	e92d 47ff 	stmdb	sp!, {r0, r1, r2, r3, r4, r5, r6, r7, r8, r9, sl, lr}
 80047ec:	7e0f      	ldrb	r7, [r1, #24]
 80047ee:	4691      	mov	r9, r2
 80047f0:	2f78      	cmp	r7, #120	; 0x78
 80047f2:	4680      	mov	r8, r0
 80047f4:	460c      	mov	r4, r1
 80047f6:	469a      	mov	sl, r3
 80047f8:	9d0c      	ldr	r5, [sp, #48]	; 0x30
 80047fa:	f101 0243 	add.w	r2, r1, #67	; 0x43
 80047fe:	d807      	bhi.n	8004810 <_printf_i+0x28>
 8004800:	2f62      	cmp	r7, #98	; 0x62
 8004802:	d80a      	bhi.n	800481a <_printf_i+0x32>
 8004804:	2f00      	cmp	r7, #0
 8004806:	f000 80d9 	beq.w	80049bc <_printf_i+0x1d4>
 800480a:	2f58      	cmp	r7, #88	; 0x58
 800480c:	f000 80a4 	beq.w	8004958 <_printf_i+0x170>
 8004810:	f104 0542 	add.w	r5, r4, #66	; 0x42
 8004814:	f884 7042 	strb.w	r7, [r4, #66]	; 0x42
 8004818:	e03a      	b.n	8004890 <_printf_i+0xa8>
 800481a:	f1a7 0363 	sub.w	r3, r7, #99	; 0x63
 800481e:	2b15      	cmp	r3, #21
 8004820:	d8f6      	bhi.n	8004810 <_printf_i+0x28>
 8004822:	a101      	add	r1, pc, #4	; (adr r1, 8004828 <_printf_i+0x40>)
 8004824:	f851 f023 	ldr.w	pc, [r1, r3, lsl #2]
 8004828:	08004881 	.word	0x08004881
 800482c:	08004895 	.word	0x08004895
 8004830:	08004811 	.word	0x08004811
 8004834:	08004811 	.word	0x08004811
 8004838:	08004811 	.word	0x08004811
 800483c:	08004811 	.word	0x08004811
 8004840:	08004895 	.word	0x08004895
 8004844:	08004811 	.word	0x08004811
 8004848:	08004811 	.word	0x08004811
 800484c:	08004811 	.word	0x08004811
 8004850:	08004811 	.word	0x08004811
 8004854:	080049a3 	.word	0x080049a3
 8004858:	080048c5 	.word	0x080048c5
 800485c:	08004985 	.word	0x08004985
 8004860:	08004811 	.word	0x08004811
 8004864:	08004811 	.word	0x08004811
 8004868:	080049c5 	.word	0x080049c5
 800486c:	08004811 	.word	0x08004811
 8004870:	080048c5 	.word	0x080048c5
 8004874:	08004811 	.word	0x08004811
 8004878:	08004811 	.word	0x08004811
 800487c:	0800498d 	.word	0x0800498d
 8004880:	682b      	ldr	r3, [r5, #0]
 8004882:	1d1a      	adds	r2, r3, #4
 8004884:	681b      	ldr	r3, [r3, #0]
 8004886:	602a      	str	r2, [r5, #0]
 8004888:	f104 0542 	add.w	r5, r4, #66	; 0x42
 800488c:	f884 3042 	strb.w	r3, [r4, #66]	; 0x42
 8004890:	2301      	movs	r3, #1
 8004892:	e0a4      	b.n	80049de <_printf_i+0x1f6>
 8004894:	6820      	ldr	r0, [r4, #0]
 8004896:	6829      	ldr	r1, [r5, #0]
 8004898:	0606      	lsls	r6, r0, #24
 800489a:	f101 0304 	add.w	r3, r1, #4
 800489e:	d50a      	bpl.n	80048b6 <_printf_i+0xce>
 80048a0:	680e      	ldr	r6, [r1, #0]
 80048a2:	602b      	str	r3, [r5, #0]
 80048a4:	2e00      	cmp	r6, #0
 80048a6:	da03      	bge.n	80048b0 <_printf_i+0xc8>
 80048a8:	232d      	movs	r3, #45	; 0x2d
 80048aa:	4276      	negs	r6, r6
 80048ac:	f884 3043 	strb.w	r3, [r4, #67]	; 0x43
 80048b0:	230a      	movs	r3, #10
 80048b2:	485e      	ldr	r0, [pc, #376]	; (8004a2c <_printf_i+0x244>)
 80048b4:	e019      	b.n	80048ea <_printf_i+0x102>
 80048b6:	680e      	ldr	r6, [r1, #0]
 80048b8:	f010 0f40 	tst.w	r0, #64	; 0x40
 80048bc:	602b      	str	r3, [r5, #0]
 80048be:	bf18      	it	ne
 80048c0:	b236      	sxthne	r6, r6
 80048c2:	e7ef      	b.n	80048a4 <_printf_i+0xbc>
 80048c4:	682b      	ldr	r3, [r5, #0]
 80048c6:	6820      	ldr	r0, [r4, #0]
 80048c8:	1d19      	adds	r1, r3, #4
 80048ca:	6029      	str	r1, [r5, #0]
 80048cc:	0601      	lsls	r1, r0, #24
 80048ce:	d501      	bpl.n	80048d4 <_printf_i+0xec>
 80048d0:	681e      	ldr	r6, [r3, #0]
 80048d2:	e002      	b.n	80048da <_printf_i+0xf2>
 80048d4:	0646      	lsls	r6, r0, #25
 80048d6:	d5fb      	bpl.n	80048d0 <_printf_i+0xe8>
 80048d8:	881e      	ldrh	r6, [r3, #0]
 80048da:	2f6f      	cmp	r7, #111	; 0x6f
 80048dc:	bf0c      	ite	eq
 80048de:	2308      	moveq	r3, #8
 80048e0:	230a      	movne	r3, #10
 80048e2:	4852      	ldr	r0, [pc, #328]	; (8004a2c <_printf_i+0x244>)
 80048e4:	2100      	movs	r1, #0
 80048e6:	f884 1043 	strb.w	r1, [r4, #67]	; 0x43
 80048ea:	6865      	ldr	r5, [r4, #4]
 80048ec:	2d00      	cmp	r5, #0
 80048ee:	bfa8      	it	ge
 80048f0:	6821      	ldrge	r1, [r4, #0]
 80048f2:	60a5      	str	r5, [r4, #8]
 80048f4:	bfa4      	itt	ge
 80048f6:	f021 0104 	bicge.w	r1, r1, #4
 80048fa:	6021      	strge	r1, [r4, #0]
 80048fc:	b90e      	cbnz	r6, 8004902 <_printf_i+0x11a>
 80048fe:	2d00      	cmp	r5, #0
 8004900:	d04d      	beq.n	800499e <_printf_i+0x1b6>
 8004902:	4615      	mov	r5, r2
 8004904:	fbb6 f1f3 	udiv	r1, r6, r3
 8004908:	fb03 6711 	mls	r7, r3, r1, r6
 800490c:	5dc7      	ldrb	r7, [r0, r7]
 800490e:	f805 7d01 	strb.w	r7, [r5, #-1]!
 8004912:	4637      	mov	r7, r6
 8004914:	42bb      	cmp	r3, r7
 8004916:	460e      	mov	r6, r1
 8004918:	d9f4      	bls.n	8004904 <_printf_i+0x11c>
 800491a:	2b08      	cmp	r3, #8
 800491c:	d10b      	bne.n	8004936 <_printf_i+0x14e>
 800491e:	6823      	ldr	r3, [r4, #0]
 8004920:	07de      	lsls	r6, r3, #31
 8004922:	d508      	bpl.n	8004936 <_printf_i+0x14e>
 8004924:	6923      	ldr	r3, [r4, #16]
 8004926:	6861      	ldr	r1, [r4, #4]
 8004928:	4299      	cmp	r1, r3
 800492a:	bfde      	ittt	le
 800492c:	2330      	movle	r3, #48	; 0x30
 800492e:	f805 3c01 	strble.w	r3, [r5, #-1]
 8004932:	f105 35ff 	addle.w	r5, r5, #4294967295
 8004936:	1b52      	subs	r2, r2, r5
 8004938:	6122      	str	r2, [r4, #16]
 800493a:	464b      	mov	r3, r9
 800493c:	4621      	mov	r1, r4
 800493e:	4640      	mov	r0, r8
 8004940:	f8cd a000 	str.w	sl, [sp]
 8004944:	aa03      	add	r2, sp, #12
 8004946:	f7ff fedf 	bl	8004708 <_printf_common>
 800494a:	3001      	adds	r0, #1
 800494c:	d14c      	bne.n	80049e8 <_printf_i+0x200>
 800494e:	f04f 30ff 	mov.w	r0, #4294967295
 8004952:	b004      	add	sp, #16
 8004954:	e8bd 87f0 	ldmia.w	sp!, {r4, r5, r6, r7, r8, r9, sl, pc}
 8004958:	4834      	ldr	r0, [pc, #208]	; (8004a2c <_printf_i+0x244>)
 800495a:	f881 7045 	strb.w	r7, [r1, #69]	; 0x45
 800495e:	6829      	ldr	r1, [r5, #0]
 8004960:	6823      	ldr	r3, [r4, #0]
 8004962:	f851 6b04 	ldr.w	r6, [r1], #4
 8004966:	6029      	str	r1, [r5, #0]
 8004968:	061d      	lsls	r5, r3, #24
 800496a:	d514      	bpl.n	8004996 <_printf_i+0x1ae>
 800496c:	07df      	lsls	r7, r3, #31
 800496e:	bf44      	itt	mi
 8004970:	f043 0320 	orrmi.w	r3, r3, #32
 8004974:	6023      	strmi	r3, [r4, #0]
 8004976:	b91e      	cbnz	r6, 8004980 <_printf_i+0x198>
 8004978:	6823      	ldr	r3, [r4, #0]
 800497a:	f023 0320 	bic.w	r3, r3, #32
 800497e:	6023      	str	r3, [r4, #0]
 8004980:	2310      	movs	r3, #16
 8004982:	e7af      	b.n	80048e4 <_printf_i+0xfc>
 8004984:	6823      	ldr	r3, [r4, #0]
 8004986:	f043 0320 	orr.w	r3, r3, #32
 800498a:	6023      	str	r3, [r4, #0]
 800498c:	2378      	movs	r3, #120	; 0x78
 800498e:	4828      	ldr	r0, [pc, #160]	; (8004a30 <_printf_i+0x248>)
 8004990:	f884 3045 	strb.w	r3, [r4, #69]	; 0x45
 8004994:	e7e3      	b.n	800495e <_printf_i+0x176>
 8004996:	0659      	lsls	r1, r3, #25
 8004998:	bf48      	it	mi
 800499a:	b2b6      	uxthmi	r6, r6
 800499c:	e7e6      	b.n	800496c <_printf_i+0x184>
 800499e:	4615      	mov	r5, r2
 80049a0:	e7bb      	b.n	800491a <_printf_i+0x132>
 80049a2:	682b      	ldr	r3, [r5, #0]
 80049a4:	6826      	ldr	r6, [r4, #0]
 80049a6:	1d18      	adds	r0, r3, #4
 80049a8:	6961      	ldr	r1, [r4, #20]
 80049aa:	6028      	str	r0, [r5, #0]
 80049ac:	0635      	lsls	r5, r6, #24
 80049ae:	681b      	ldr	r3, [r3, #0]
 80049b0:	d501      	bpl.n	80049b6 <_printf_i+0x1ce>
 80049b2:	6019      	str	r1, [r3, #0]
 80049b4:	e002      	b.n	80049bc <_printf_i+0x1d4>
 80049b6:	0670      	lsls	r0, r6, #25
 80049b8:	d5fb      	bpl.n	80049b2 <_printf_i+0x1ca>
 80049ba:	8019      	strh	r1, [r3, #0]
 80049bc:	2300      	movs	r3, #0
 80049be:	4615      	mov	r5, r2
 80049c0:	6123      	str	r3, [r4, #16]
 80049c2:	e7ba      	b.n	800493a <_printf_i+0x152>
 80049c4:	682b      	ldr	r3, [r5, #0]
 80049c6:	2100      	movs	r1, #0
 80049c8:	1d1a      	adds	r2, r3, #4
 80049ca:	602a      	str	r2, [r5, #0]
 80049cc:	681d      	ldr	r5, [r3, #0]
 80049ce:	6862      	ldr	r2, [r4, #4]
 80049d0:	4628      	mov	r0, r5
 80049d2:	f000 feb7 	bl	8005744 <memchr>
 80049d6:	b108      	cbz	r0, 80049dc <_printf_i+0x1f4>
 80049d8:	1b40      	subs	r0, r0, r5
 80049da:	6060      	str	r0, [r4, #4]
 80049dc:	6863      	ldr	r3, [r4, #4]
 80049de:	6123      	str	r3, [r4, #16]
 80049e0:	2300      	movs	r3, #0
 80049e2:	f884 3043 	strb.w	r3, [r4, #67]	; 0x43
 80049e6:	e7a8      	b.n	800493a <_printf_i+0x152>
 80049e8:	462a      	mov	r2, r5
 80049ea:	4649      	mov	r1, r9
 80049ec:	4640      	mov	r0, r8
 80049ee:	6923      	ldr	r3, [r4, #16]
 80049f0:	47d0      	blx	sl
 80049f2:	3001      	adds	r0, #1
 80049f4:	d0ab      	beq.n	800494e <_printf_i+0x166>
 80049f6:	6823      	ldr	r3, [r4, #0]
 80049f8:	079b      	lsls	r3, r3, #30
 80049fa:	d413      	bmi.n	8004a24 <_printf_i+0x23c>
 80049fc:	68e0      	ldr	r0, [r4, #12]
 80049fe:	9b03      	ldr	r3, [sp, #12]
 8004a00:	4298      	cmp	r0, r3
 8004a02:	bfb8      	it	lt
 8004a04:	4618      	movlt	r0, r3
 8004a06:	e7a4      	b.n	8004952 <_printf_i+0x16a>
 8004a08:	2301      	movs	r3, #1
 8004a0a:	4632      	mov	r2, r6
 8004a0c:	4649      	mov	r1, r9
 8004a0e:	4640      	mov	r0, r8
 8004a10:	47d0      	blx	sl
 8004a12:	3001      	adds	r0, #1
 8004a14:	d09b      	beq.n	800494e <_printf_i+0x166>
 8004a16:	3501      	adds	r5, #1
 8004a18:	68e3      	ldr	r3, [r4, #12]
 8004a1a:	9903      	ldr	r1, [sp, #12]
 8004a1c:	1a5b      	subs	r3, r3, r1
 8004a1e:	42ab      	cmp	r3, r5
 8004a20:	dcf2      	bgt.n	8004a08 <_printf_i+0x220>
 8004a22:	e7eb      	b.n	80049fc <_printf_i+0x214>
 8004a24:	2500      	movs	r5, #0
 8004a26:	f104 0619 	add.w	r6, r4, #25
 8004a2a:	e7f5      	b.n	8004a18 <_printf_i+0x230>
 8004a2c:	080081e2 	.word	0x080081e2
 8004a30:	080081f3 	.word	0x080081f3

08004a34 <quorem>:
 8004a34:	e92d 4ff7 	stmdb	sp!, {r0, r1, r2, r4, r5, r6, r7, r8, r9, sl, fp, lr}
 8004a38:	6903      	ldr	r3, [r0, #16]
 8004a3a:	690c      	ldr	r4, [r1, #16]
 8004a3c:	4607      	mov	r7, r0
 8004a3e:	42a3      	cmp	r3, r4
 8004a40:	f2c0 8082 	blt.w	8004b48 <quorem+0x114>
 8004a44:	3c01      	subs	r4, #1
 8004a46:	f100 0514 	add.w	r5, r0, #20
 8004a4a:	f101 0814 	add.w	r8, r1, #20
 8004a4e:	eb05 0384 	add.w	r3, r5, r4, lsl #2
 8004a52:	9301      	str	r3, [sp, #4]
 8004a54:	f858 3024 	ldr.w	r3, [r8, r4, lsl #2]
 8004a58:	f855 2024 	ldr.w	r2, [r5, r4, lsl #2]
 8004a5c:	3301      	adds	r3, #1
 8004a5e:	429a      	cmp	r2, r3
 8004a60:	fbb2 f6f3 	udiv	r6, r2, r3
 8004a64:	ea4f 0b84 	mov.w	fp, r4, lsl #2
 8004a68:	eb08 0984 	add.w	r9, r8, r4, lsl #2
 8004a6c:	d331      	bcc.n	8004ad2 <quorem+0x9e>
 8004a6e:	f04f 0e00 	mov.w	lr, #0
 8004a72:	4640      	mov	r0, r8
 8004a74:	46ac      	mov	ip, r5
 8004a76:	46f2      	mov	sl, lr
 8004a78:	f850 2b04 	ldr.w	r2, [r0], #4
 8004a7c:	b293      	uxth	r3, r2
 8004a7e:	fb06 e303 	mla	r3, r6, r3, lr
 8004a82:	0c12      	lsrs	r2, r2, #16
 8004a84:	ea4f 4e13 	mov.w	lr, r3, lsr #16
 8004a88:	b29b      	uxth	r3, r3
 8004a8a:	fb06 e202 	mla	r2, r6, r2, lr
 8004a8e:	ebaa 0303 	sub.w	r3, sl, r3
 8004a92:	f8dc a000 	ldr.w	sl, [ip]
 8004a96:	ea4f 4e12 	mov.w	lr, r2, lsr #16
 8004a9a:	fa1f fa8a 	uxth.w	sl, sl
 8004a9e:	4453      	add	r3, sl
 8004aa0:	f8dc a000 	ldr.w	sl, [ip]
 8004aa4:	b292      	uxth	r2, r2
 8004aa6:	ebc2 421a 	rsb	r2, r2, sl, lsr #16
 8004aaa:	eb02 4223 	add.w	r2, r2, r3, asr #16
 8004aae:	b29b      	uxth	r3, r3
 8004ab0:	ea43 4302 	orr.w	r3, r3, r2, lsl #16
 8004ab4:	4581      	cmp	r9, r0
 8004ab6:	ea4f 4a22 	mov.w	sl, r2, asr #16
 8004aba:	f84c 3b04 	str.w	r3, [ip], #4
 8004abe:	d2db      	bcs.n	8004a78 <quorem+0x44>
 8004ac0:	f855 300b 	ldr.w	r3, [r5, fp]
 8004ac4:	b92b      	cbnz	r3, 8004ad2 <quorem+0x9e>
 8004ac6:	9b01      	ldr	r3, [sp, #4]
 8004ac8:	3b04      	subs	r3, #4
 8004aca:	429d      	cmp	r5, r3
 8004acc:	461a      	mov	r2, r3
 8004ace:	d32f      	bcc.n	8004b30 <quorem+0xfc>
 8004ad0:	613c      	str	r4, [r7, #16]
 8004ad2:	4638      	mov	r0, r7
 8004ad4:	f001 f8d0 	bl	8005c78 <__mcmp>
 8004ad8:	2800      	cmp	r0, #0
 8004ada:	db25      	blt.n	8004b28 <quorem+0xf4>
 8004adc:	4628      	mov	r0, r5
 8004ade:	f04f 0c00 	mov.w	ip, #0
 8004ae2:	3601      	adds	r6, #1
 8004ae4:	f858 1b04 	ldr.w	r1, [r8], #4
 8004ae8:	f8d0 e000 	ldr.w	lr, [r0]
 8004aec:	b28b      	uxth	r3, r1
 8004aee:	ebac 0303 	sub.w	r3, ip, r3
 8004af2:	fa1f f28e 	uxth.w	r2, lr
 8004af6:	4413      	add	r3, r2
 8004af8:	0c0a      	lsrs	r2, r1, #16
 8004afa:	ebc2 421e 	rsb	r2, r2, lr, lsr #16
 8004afe:	eb02 4223 	add.w	r2, r2, r3, asr #16
 8004b02:	b29b      	uxth	r3, r3
 8004b04:	ea43 4302 	orr.w	r3, r3, r2, lsl #16
 8004b08:	45c1      	cmp	r9, r8
 8004b0a:	ea4f 4c22 	mov.w	ip, r2, asr #16
 8004b0e:	f840 3b04 	str.w	r3, [r0], #4
 8004b12:	d2e7      	bcs.n	8004ae4 <quorem+0xb0>
 8004b14:	f855 2024 	ldr.w	r2, [r5, r4, lsl #2]
 8004b18:	eb05 0384 	add.w	r3, r5, r4, lsl #2
 8004b1c:	b922      	cbnz	r2, 8004b28 <quorem+0xf4>
 8004b1e:	3b04      	subs	r3, #4
 8004b20:	429d      	cmp	r5, r3
 8004b22:	461a      	mov	r2, r3
 8004b24:	d30a      	bcc.n	8004b3c <quorem+0x108>
 8004b26:	613c      	str	r4, [r7, #16]
 8004b28:	4630      	mov	r0, r6
 8004b2a:	b003      	add	sp, #12
 8004b2c:	e8bd 8ff0 	ldmia.w	sp!, {r4, r5, r6, r7, r8, r9, sl, fp, pc}
 8004b30:	6812      	ldr	r2, [r2, #0]
 8004b32:	3b04      	subs	r3, #4
 8004b34:	2a00      	cmp	r2, #0
 8004b36:	d1cb      	bne.n	8004ad0 <quorem+0x9c>
 8004b38:	3c01      	subs	r4, #1
 8004b3a:	e7c6      	b.n	8004aca <quorem+0x96>
 8004b3c:	6812      	ldr	r2, [r2, #0]
 8004b3e:	3b04      	subs	r3, #4
 8004b40:	2a00      	cmp	r2, #0
 8004b42:	d1f0      	bne.n	8004b26 <quorem+0xf2>
 8004b44:	3c01      	subs	r4, #1
 8004b46:	e7eb      	b.n	8004b20 <quorem+0xec>
 8004b48:	2000      	movs	r0, #0
 8004b4a:	e7ee      	b.n	8004b2a <quorem+0xf6>
 8004b4c:	0000      	movs	r0, r0
	...

08004b50 <_dtoa_r>:
 8004b50:	e92d 4ff0 	stmdb	sp!, {r4, r5, r6, r7, r8, r9, sl, fp, lr}
 8004b54:	4616      	mov	r6, r2
 8004b56:	461f      	mov	r7, r3
 8004b58:	6a44      	ldr	r4, [r0, #36]	; 0x24
 8004b5a:	b099      	sub	sp, #100	; 0x64
 8004b5c:	4605      	mov	r5, r0
 8004b5e:	e9cd 6704 	strd	r6, r7, [sp, #16]
 8004b62:	f8dd 8094 	ldr.w	r8, [sp, #148]	; 0x94
 8004b66:	b974      	cbnz	r4, 8004b86 <_dtoa_r+0x36>
 8004b68:	2010      	movs	r0, #16
 8004b6a:	f000 fde3 	bl	8005734 <malloc>
 8004b6e:	4602      	mov	r2, r0
 8004b70:	6268      	str	r0, [r5, #36]	; 0x24
 8004b72:	b920      	cbnz	r0, 8004b7e <_dtoa_r+0x2e>
 8004b74:	21ea      	movs	r1, #234	; 0xea
 8004b76:	4ba8      	ldr	r3, [pc, #672]	; (8004e18 <_dtoa_r+0x2c8>)
 8004b78:	48a8      	ldr	r0, [pc, #672]	; (8004e1c <_dtoa_r+0x2cc>)
 8004b7a:	f001 fa81 	bl	8006080 <__assert_func>
 8004b7e:	e9c0 4401 	strd	r4, r4, [r0, #4]
 8004b82:	6004      	str	r4, [r0, #0]
 8004b84:	60c4      	str	r4, [r0, #12]
 8004b86:	6a6b      	ldr	r3, [r5, #36]	; 0x24
 8004b88:	6819      	ldr	r1, [r3, #0]
 8004b8a:	b151      	cbz	r1, 8004ba2 <_dtoa_r+0x52>
 8004b8c:	685a      	ldr	r2, [r3, #4]
 8004b8e:	2301      	movs	r3, #1
 8004b90:	4093      	lsls	r3, r2
 8004b92:	604a      	str	r2, [r1, #4]
 8004b94:	608b      	str	r3, [r1, #8]
 8004b96:	4628      	mov	r0, r5
 8004b98:	f000 fe30 	bl	80057fc <_Bfree>
 8004b9c:	2200      	movs	r2, #0
 8004b9e:	6a6b      	ldr	r3, [r5, #36]	; 0x24
 8004ba0:	601a      	str	r2, [r3, #0]
 8004ba2:	1e3b      	subs	r3, r7, #0
 8004ba4:	bfaf      	iteee	ge
 8004ba6:	2300      	movge	r3, #0
 8004ba8:	2201      	movlt	r2, #1
 8004baa:	f023 4300 	biclt.w	r3, r3, #2147483648	; 0x80000000
 8004bae:	9305      	strlt	r3, [sp, #20]
 8004bb0:	bfa8      	it	ge
 8004bb2:	f8c8 3000 	strge.w	r3, [r8]
 8004bb6:	f8dd 9014 	ldr.w	r9, [sp, #20]
 8004bba:	4b99      	ldr	r3, [pc, #612]	; (8004e20 <_dtoa_r+0x2d0>)
 8004bbc:	bfb8      	it	lt
 8004bbe:	f8c8 2000 	strlt.w	r2, [r8]
 8004bc2:	ea33 0309 	bics.w	r3, r3, r9
 8004bc6:	d119      	bne.n	8004bfc <_dtoa_r+0xac>
 8004bc8:	f242 730f 	movw	r3, #9999	; 0x270f
 8004bcc:	9a24      	ldr	r2, [sp, #144]	; 0x90
 8004bce:	6013      	str	r3, [r2, #0]
 8004bd0:	f3c9 0313 	ubfx	r3, r9, #0, #20
 8004bd4:	4333      	orrs	r3, r6
 8004bd6:	f000 857f 	beq.w	80056d8 <_dtoa_r+0xb88>
 8004bda:	9b26      	ldr	r3, [sp, #152]	; 0x98
 8004bdc:	b953      	cbnz	r3, 8004bf4 <_dtoa_r+0xa4>
 8004bde:	4b91      	ldr	r3, [pc, #580]	; (8004e24 <_dtoa_r+0x2d4>)
 8004be0:	e022      	b.n	8004c28 <_dtoa_r+0xd8>
 8004be2:	4b91      	ldr	r3, [pc, #580]	; (8004e28 <_dtoa_r+0x2d8>)
 8004be4:	9303      	str	r3, [sp, #12]
 8004be6:	3308      	adds	r3, #8
 8004be8:	9a26      	ldr	r2, [sp, #152]	; 0x98
 8004bea:	6013      	str	r3, [r2, #0]
 8004bec:	9803      	ldr	r0, [sp, #12]
 8004bee:	b019      	add	sp, #100	; 0x64
 8004bf0:	e8bd 8ff0 	ldmia.w	sp!, {r4, r5, r6, r7, r8, r9, sl, fp, pc}
 8004bf4:	4b8b      	ldr	r3, [pc, #556]	; (8004e24 <_dtoa_r+0x2d4>)
 8004bf6:	9303      	str	r3, [sp, #12]
 8004bf8:	3303      	adds	r3, #3
 8004bfa:	e7f5      	b.n	8004be8 <_dtoa_r+0x98>
 8004bfc:	e9dd 3404 	ldrd	r3, r4, [sp, #16]
 8004c00:	e9cd 340c 	strd	r3, r4, [sp, #48]	; 0x30
 8004c04:	e9dd 010c 	ldrd	r0, r1, [sp, #48]	; 0x30
 8004c08:	2200      	movs	r2, #0
 8004c0a:	2300      	movs	r3, #0
 8004c0c:	f7fb fecc 	bl	80009a8 <__aeabi_dcmpeq>
 8004c10:	4680      	mov	r8, r0
 8004c12:	b158      	cbz	r0, 8004c2c <_dtoa_r+0xdc>
 8004c14:	2301      	movs	r3, #1
 8004c16:	9a24      	ldr	r2, [sp, #144]	; 0x90
 8004c18:	6013      	str	r3, [r2, #0]
 8004c1a:	9b26      	ldr	r3, [sp, #152]	; 0x98
 8004c1c:	2b00      	cmp	r3, #0
 8004c1e:	f000 8558 	beq.w	80056d2 <_dtoa_r+0xb82>
 8004c22:	4882      	ldr	r0, [pc, #520]	; (8004e2c <_dtoa_r+0x2dc>)
 8004c24:	6018      	str	r0, [r3, #0]
 8004c26:	1e43      	subs	r3, r0, #1
 8004c28:	9303      	str	r3, [sp, #12]
 8004c2a:	e7df      	b.n	8004bec <_dtoa_r+0x9c>
 8004c2c:	ab16      	add	r3, sp, #88	; 0x58
 8004c2e:	9301      	str	r3, [sp, #4]
 8004c30:	ab17      	add	r3, sp, #92	; 0x5c
 8004c32:	9300      	str	r3, [sp, #0]
 8004c34:	4628      	mov	r0, r5
 8004c36:	e9dd 230c 	ldrd	r2, r3, [sp, #48]	; 0x30
 8004c3a:	f001 f8c5 	bl	8005dc8 <__d2b>
 8004c3e:	f3c9 540a 	ubfx	r4, r9, #20, #11
 8004c42:	4683      	mov	fp, r0
 8004c44:	2c00      	cmp	r4, #0
 8004c46:	d07f      	beq.n	8004d48 <_dtoa_r+0x1f8>
 8004c48:	e9dd 010c 	ldrd	r0, r1, [sp, #48]	; 0x30
 8004c4c:	9b0d      	ldr	r3, [sp, #52]	; 0x34
 8004c4e:	f2a4 34ff 	subw	r4, r4, #1023	; 0x3ff
 8004c52:	f3c3 0313 	ubfx	r3, r3, #0, #20
 8004c56:	f043 517f 	orr.w	r1, r3, #1069547520	; 0x3fc00000
 8004c5a:	f441 1140 	orr.w	r1, r1, #3145728	; 0x300000
 8004c5e:	f8cd 804c 	str.w	r8, [sp, #76]	; 0x4c
 8004c62:	2200      	movs	r2, #0
 8004c64:	4b72      	ldr	r3, [pc, #456]	; (8004e30 <_dtoa_r+0x2e0>)
 8004c66:	f7fb fa7f 	bl	8000168 <__aeabi_dsub>
 8004c6a:	a365      	add	r3, pc, #404	; (adr r3, 8004e00 <_dtoa_r+0x2b0>)
 8004c6c:	e9d3 2300 	ldrd	r2, r3, [r3]
 8004c70:	f7fb fc32 	bl	80004d8 <__aeabi_dmul>
 8004c74:	a364      	add	r3, pc, #400	; (adr r3, 8004e08 <_dtoa_r+0x2b8>)
 8004c76:	e9d3 2300 	ldrd	r2, r3, [r3]
 8004c7a:	f7fb fa77 	bl	800016c <__adddf3>
 8004c7e:	4606      	mov	r6, r0
 8004c80:	4620      	mov	r0, r4
 8004c82:	460f      	mov	r7, r1
 8004c84:	f7fb fbbe 	bl	8000404 <__aeabi_i2d>
 8004c88:	a361      	add	r3, pc, #388	; (adr r3, 8004e10 <_dtoa_r+0x2c0>)
 8004c8a:	e9d3 2300 	ldrd	r2, r3, [r3]
 8004c8e:	f7fb fc23 	bl	80004d8 <__aeabi_dmul>
 8004c92:	4602      	mov	r2, r0
 8004c94:	460b      	mov	r3, r1
 8004c96:	4630      	mov	r0, r6
 8004c98:	4639      	mov	r1, r7
 8004c9a:	f7fb fa67 	bl	800016c <__adddf3>
 8004c9e:	4606      	mov	r6, r0
 8004ca0:	460f      	mov	r7, r1
 8004ca2:	f7fb fec9 	bl	8000a38 <__aeabi_d2iz>
 8004ca6:	2200      	movs	r2, #0
 8004ca8:	4682      	mov	sl, r0
 8004caa:	2300      	movs	r3, #0
 8004cac:	4630      	mov	r0, r6
 8004cae:	4639      	mov	r1, r7
 8004cb0:	f7fb fe84 	bl	80009bc <__aeabi_dcmplt>
 8004cb4:	b148      	cbz	r0, 8004cca <_dtoa_r+0x17a>
 8004cb6:	4650      	mov	r0, sl
 8004cb8:	f7fb fba4 	bl	8000404 <__aeabi_i2d>
 8004cbc:	4632      	mov	r2, r6
 8004cbe:	463b      	mov	r3, r7
 8004cc0:	f7fb fe72 	bl	80009a8 <__aeabi_dcmpeq>
 8004cc4:	b908      	cbnz	r0, 8004cca <_dtoa_r+0x17a>
 8004cc6:	f10a 3aff 	add.w	sl, sl, #4294967295
 8004cca:	f1ba 0f16 	cmp.w	sl, #22
 8004cce:	d858      	bhi.n	8004d82 <_dtoa_r+0x232>
 8004cd0:	e9dd 010c 	ldrd	r0, r1, [sp, #48]	; 0x30
 8004cd4:	4b57      	ldr	r3, [pc, #348]	; (8004e34 <_dtoa_r+0x2e4>)
 8004cd6:	eb03 03ca 	add.w	r3, r3, sl, lsl #3
 8004cda:	e9d3 2300 	ldrd	r2, r3, [r3]
 8004cde:	f7fb fe6d 	bl	80009bc <__aeabi_dcmplt>
 8004ce2:	2800      	cmp	r0, #0
 8004ce4:	d04f      	beq.n	8004d86 <_dtoa_r+0x236>
 8004ce6:	2300      	movs	r3, #0
 8004ce8:	f10a 3aff 	add.w	sl, sl, #4294967295
 8004cec:	930f      	str	r3, [sp, #60]	; 0x3c
 8004cee:	9b16      	ldr	r3, [sp, #88]	; 0x58
 8004cf0:	1b1c      	subs	r4, r3, r4
 8004cf2:	1e63      	subs	r3, r4, #1
 8004cf4:	9309      	str	r3, [sp, #36]	; 0x24
 8004cf6:	bf49      	itett	mi
 8004cf8:	f1c4 0301 	rsbmi	r3, r4, #1
 8004cfc:	2300      	movpl	r3, #0
 8004cfe:	9306      	strmi	r3, [sp, #24]
 8004d00:	2300      	movmi	r3, #0
 8004d02:	bf54      	ite	pl
 8004d04:	9306      	strpl	r3, [sp, #24]
 8004d06:	9309      	strmi	r3, [sp, #36]	; 0x24
 8004d08:	f1ba 0f00 	cmp.w	sl, #0
 8004d0c:	db3d      	blt.n	8004d8a <_dtoa_r+0x23a>
 8004d0e:	9b09      	ldr	r3, [sp, #36]	; 0x24
 8004d10:	f8cd a038 	str.w	sl, [sp, #56]	; 0x38
 8004d14:	4453      	add	r3, sl
 8004d16:	9309      	str	r3, [sp, #36]	; 0x24
 8004d18:	2300      	movs	r3, #0
 8004d1a:	930a      	str	r3, [sp, #40]	; 0x28
 8004d1c:	9b22      	ldr	r3, [sp, #136]	; 0x88
 8004d1e:	2b09      	cmp	r3, #9
 8004d20:	f200 808c 	bhi.w	8004e3c <_dtoa_r+0x2ec>
 8004d24:	2b05      	cmp	r3, #5
 8004d26:	bfc4      	itt	gt
 8004d28:	3b04      	subgt	r3, #4
 8004d2a:	9322      	strgt	r3, [sp, #136]	; 0x88
 8004d2c:	9b22      	ldr	r3, [sp, #136]	; 0x88
 8004d2e:	bfc8      	it	gt
 8004d30:	2400      	movgt	r4, #0
 8004d32:	f1a3 0302 	sub.w	r3, r3, #2
 8004d36:	bfd8      	it	le
 8004d38:	2401      	movle	r4, #1
 8004d3a:	2b03      	cmp	r3, #3
 8004d3c:	f200 808a 	bhi.w	8004e54 <_dtoa_r+0x304>
 8004d40:	e8df f003 	tbb	[pc, r3]
 8004d44:	5b4d4f2d 	.word	0x5b4d4f2d
 8004d48:	e9dd 4316 	ldrd	r4, r3, [sp, #88]	; 0x58
 8004d4c:	441c      	add	r4, r3
 8004d4e:	f204 4332 	addw	r3, r4, #1074	; 0x432
 8004d52:	2b20      	cmp	r3, #32
 8004d54:	bfc3      	ittte	gt
 8004d56:	f1c3 0340 	rsbgt	r3, r3, #64	; 0x40
 8004d5a:	f204 4012 	addwgt	r0, r4, #1042	; 0x412
 8004d5e:	fa09 f303 	lslgt.w	r3, r9, r3
 8004d62:	f1c3 0320 	rsble	r3, r3, #32
 8004d66:	bfc6      	itte	gt
 8004d68:	fa26 f000 	lsrgt.w	r0, r6, r0
 8004d6c:	4318      	orrgt	r0, r3
 8004d6e:	fa06 f003 	lslle.w	r0, r6, r3
 8004d72:	f7fb fb37 	bl	80003e4 <__aeabi_ui2d>
 8004d76:	2301      	movs	r3, #1
 8004d78:	f1a1 71f8 	sub.w	r1, r1, #32505856	; 0x1f00000
 8004d7c:	3c01      	subs	r4, #1
 8004d7e:	9313      	str	r3, [sp, #76]	; 0x4c
 8004d80:	e76f      	b.n	8004c62 <_dtoa_r+0x112>
 8004d82:	2301      	movs	r3, #1
 8004d84:	e7b2      	b.n	8004cec <_dtoa_r+0x19c>
 8004d86:	900f      	str	r0, [sp, #60]	; 0x3c
 8004d88:	e7b1      	b.n	8004cee <_dtoa_r+0x19e>
 8004d8a:	9b06      	ldr	r3, [sp, #24]
 8004d8c:	eba3 030a 	sub.w	r3, r3, sl
 8004d90:	9306      	str	r3, [sp, #24]
 8004d92:	f1ca 0300 	rsb	r3, sl, #0
 8004d96:	930a      	str	r3, [sp, #40]	; 0x28
 8004d98:	2300      	movs	r3, #0
 8004d9a:	930e      	str	r3, [sp, #56]	; 0x38
 8004d9c:	e7be      	b.n	8004d1c <_dtoa_r+0x1cc>
 8004d9e:	2300      	movs	r3, #0
 8004da0:	930b      	str	r3, [sp, #44]	; 0x2c
 8004da2:	9b23      	ldr	r3, [sp, #140]	; 0x8c
 8004da4:	2b00      	cmp	r3, #0
 8004da6:	dc58      	bgt.n	8004e5a <_dtoa_r+0x30a>
 8004da8:	f04f 0901 	mov.w	r9, #1
 8004dac:	464b      	mov	r3, r9
 8004dae:	f8cd 9020 	str.w	r9, [sp, #32]
 8004db2:	f8cd 908c 	str.w	r9, [sp, #140]	; 0x8c
 8004db6:	2200      	movs	r2, #0
 8004db8:	6a68      	ldr	r0, [r5, #36]	; 0x24
 8004dba:	6042      	str	r2, [r0, #4]
 8004dbc:	2204      	movs	r2, #4
 8004dbe:	f102 0614 	add.w	r6, r2, #20
 8004dc2:	429e      	cmp	r6, r3
 8004dc4:	6841      	ldr	r1, [r0, #4]
 8004dc6:	d94e      	bls.n	8004e66 <_dtoa_r+0x316>
 8004dc8:	4628      	mov	r0, r5
 8004dca:	f000 fcd7 	bl	800577c <_Balloc>
 8004dce:	9003      	str	r0, [sp, #12]
 8004dd0:	2800      	cmp	r0, #0
 8004dd2:	d14c      	bne.n	8004e6e <_dtoa_r+0x31e>
 8004dd4:	4602      	mov	r2, r0
 8004dd6:	f44f 71d5 	mov.w	r1, #426	; 0x1aa
 8004dda:	4b17      	ldr	r3, [pc, #92]	; (8004e38 <_dtoa_r+0x2e8>)
 8004ddc:	e6cc      	b.n	8004b78 <_dtoa_r+0x28>
 8004dde:	2301      	movs	r3, #1
 8004de0:	e7de      	b.n	8004da0 <_dtoa_r+0x250>
 8004de2:	2300      	movs	r3, #0
 8004de4:	930b      	str	r3, [sp, #44]	; 0x2c
 8004de6:	9b23      	ldr	r3, [sp, #140]	; 0x8c
 8004de8:	eb0a 0903 	add.w	r9, sl, r3
 8004dec:	f109 0301 	add.w	r3, r9, #1
 8004df0:	2b01      	cmp	r3, #1
 8004df2:	9308      	str	r3, [sp, #32]
 8004df4:	bfb8      	it	lt
 8004df6:	2301      	movlt	r3, #1
 8004df8:	e7dd      	b.n	8004db6 <_dtoa_r+0x266>
 8004dfa:	2301      	movs	r3, #1
 8004dfc:	e7f2      	b.n	8004de4 <_dtoa_r+0x294>
 8004dfe:	bf00      	nop
 8004e00:	636f4361 	.word	0x636f4361
 8004e04:	3fd287a7 	.word	0x3fd287a7
 8004e08:	8b60c8b3 	.word	0x8b60c8b3
 8004e0c:	3fc68a28 	.word	0x3fc68a28
 8004e10:	509f79fb 	.word	0x509f79fb
 8004e14:	3fd34413 	.word	0x3fd34413
 8004e18:	08008211 	.word	0x08008211
 8004e1c:	08008228 	.word	0x08008228
 8004e20:	7ff00000 	.word	0x7ff00000
 8004e24:	0800820d 	.word	0x0800820d
 8004e28:	08008204 	.word	0x08008204
 8004e2c:	080081e1 	.word	0x080081e1
 8004e30:	3ff80000 	.word	0x3ff80000
 8004e34:	08008318 	.word	0x08008318
 8004e38:	08008283 	.word	0x08008283
 8004e3c:	2401      	movs	r4, #1
 8004e3e:	2300      	movs	r3, #0
 8004e40:	940b      	str	r4, [sp, #44]	; 0x2c
 8004e42:	9322      	str	r3, [sp, #136]	; 0x88
 8004e44:	f04f 39ff 	mov.w	r9, #4294967295
 8004e48:	2200      	movs	r2, #0
 8004e4a:	2312      	movs	r3, #18
 8004e4c:	f8cd 9020 	str.w	r9, [sp, #32]
 8004e50:	9223      	str	r2, [sp, #140]	; 0x8c
 8004e52:	e7b0      	b.n	8004db6 <_dtoa_r+0x266>
 8004e54:	2301      	movs	r3, #1
 8004e56:	930b      	str	r3, [sp, #44]	; 0x2c
 8004e58:	e7f4      	b.n	8004e44 <_dtoa_r+0x2f4>
 8004e5a:	f8dd 908c 	ldr.w	r9, [sp, #140]	; 0x8c
 8004e5e:	464b      	mov	r3, r9
 8004e60:	f8cd 9020 	str.w	r9, [sp, #32]
 8004e64:	e7a7      	b.n	8004db6 <_dtoa_r+0x266>
 8004e66:	3101      	adds	r1, #1
 8004e68:	6041      	str	r1, [r0, #4]
 8004e6a:	0052      	lsls	r2, r2, #1
 8004e6c:	e7a7      	b.n	8004dbe <_dtoa_r+0x26e>
 8004e6e:	6a6b      	ldr	r3, [r5, #36]	; 0x24
 8004e70:	9a03      	ldr	r2, [sp, #12]
 8004e72:	601a      	str	r2, [r3, #0]
 8004e74:	9b08      	ldr	r3, [sp, #32]
 8004e76:	2b0e      	cmp	r3, #14
 8004e78:	f200 80a8 	bhi.w	8004fcc <_dtoa_r+0x47c>
 8004e7c:	2c00      	cmp	r4, #0
 8004e7e:	f000 80a5 	beq.w	8004fcc <_dtoa_r+0x47c>
 8004e82:	f1ba 0f00 	cmp.w	sl, #0
 8004e86:	dd34      	ble.n	8004ef2 <_dtoa_r+0x3a2>
 8004e88:	4a9a      	ldr	r2, [pc, #616]	; (80050f4 <_dtoa_r+0x5a4>)
 8004e8a:	f00a 030f 	and.w	r3, sl, #15
 8004e8e:	eb02 03c3 	add.w	r3, r2, r3, lsl #3
 8004e92:	f41a 7f80 	tst.w	sl, #256	; 0x100
 8004e96:	e9d3 3400 	ldrd	r3, r4, [r3]
 8004e9a:	e9cd 3410 	strd	r3, r4, [sp, #64]	; 0x40
 8004e9e:	ea4f 142a 	mov.w	r4, sl, asr #4
 8004ea2:	d016      	beq.n	8004ed2 <_dtoa_r+0x382>
 8004ea4:	e9dd 010c 	ldrd	r0, r1, [sp, #48]	; 0x30
 8004ea8:	4b93      	ldr	r3, [pc, #588]	; (80050f8 <_dtoa_r+0x5a8>)
 8004eaa:	2703      	movs	r7, #3
 8004eac:	e9d3 2308 	ldrd	r2, r3, [r3, #32]
 8004eb0:	f7fb fc3c 	bl	800072c <__aeabi_ddiv>
 8004eb4:	e9cd 0104 	strd	r0, r1, [sp, #16]
 8004eb8:	f004 040f 	and.w	r4, r4, #15
 8004ebc:	4e8e      	ldr	r6, [pc, #568]	; (80050f8 <_dtoa_r+0x5a8>)
 8004ebe:	b954      	cbnz	r4, 8004ed6 <_dtoa_r+0x386>
 8004ec0:	e9dd 2310 	ldrd	r2, r3, [sp, #64]	; 0x40
 8004ec4:	e9dd 0104 	ldrd	r0, r1, [sp, #16]
 8004ec8:	f7fb fc30 	bl	800072c <__aeabi_ddiv>
 8004ecc:	e9cd 0104 	strd	r0, r1, [sp, #16]
 8004ed0:	e029      	b.n	8004f26 <_dtoa_r+0x3d6>
 8004ed2:	2702      	movs	r7, #2
 8004ed4:	e7f2      	b.n	8004ebc <_dtoa_r+0x36c>
 8004ed6:	07e1      	lsls	r1, r4, #31
 8004ed8:	d508      	bpl.n	8004eec <_dtoa_r+0x39c>
 8004eda:	e9dd 0110 	ldrd	r0, r1, [sp, #64]	; 0x40
 8004ede:	e9d6 2300 	ldrd	r2, r3, [r6]
 8004ee2:	f7fb faf9 	bl	80004d8 <__aeabi_dmul>
 8004ee6:	e9cd 0110 	strd	r0, r1, [sp, #64]	; 0x40
 8004eea:	3701      	adds	r7, #1
 8004eec:	1064      	asrs	r4, r4, #1
 8004eee:	3608      	adds	r6, #8
 8004ef0:	e7e5      	b.n	8004ebe <_dtoa_r+0x36e>
 8004ef2:	f000 80a5 	beq.w	8005040 <_dtoa_r+0x4f0>
 8004ef6:	e9dd 010c 	ldrd	r0, r1, [sp, #48]	; 0x30
 8004efa:	f1ca 0400 	rsb	r4, sl, #0
 8004efe:	4b7d      	ldr	r3, [pc, #500]	; (80050f4 <_dtoa_r+0x5a4>)
 8004f00:	f004 020f 	and.w	r2, r4, #15
 8004f04:	eb03 03c2 	add.w	r3, r3, r2, lsl #3
 8004f08:	e9d3 2300 	ldrd	r2, r3, [r3]
 8004f0c:	f7fb fae4 	bl	80004d8 <__aeabi_dmul>
 8004f10:	2702      	movs	r7, #2
 8004f12:	2300      	movs	r3, #0
 8004f14:	e9cd 0104 	strd	r0, r1, [sp, #16]
 8004f18:	4e77      	ldr	r6, [pc, #476]	; (80050f8 <_dtoa_r+0x5a8>)
 8004f1a:	1124      	asrs	r4, r4, #4
 8004f1c:	2c00      	cmp	r4, #0
 8004f1e:	f040 8084 	bne.w	800502a <_dtoa_r+0x4da>
 8004f22:	2b00      	cmp	r3, #0
 8004f24:	d1d2      	bne.n	8004ecc <_dtoa_r+0x37c>
 8004f26:	9b0f      	ldr	r3, [sp, #60]	; 0x3c
 8004f28:	2b00      	cmp	r3, #0
 8004f2a:	f000 808b 	beq.w	8005044 <_dtoa_r+0x4f4>
 8004f2e:	e9dd 3404 	ldrd	r3, r4, [sp, #16]
 8004f32:	e9cd 3410 	strd	r3, r4, [sp, #64]	; 0x40
 8004f36:	e9dd 0110 	ldrd	r0, r1, [sp, #64]	; 0x40
 8004f3a:	2200      	movs	r2, #0
 8004f3c:	4b6f      	ldr	r3, [pc, #444]	; (80050fc <_dtoa_r+0x5ac>)
 8004f3e:	f7fb fd3d 	bl	80009bc <__aeabi_dcmplt>
 8004f42:	2800      	cmp	r0, #0
 8004f44:	d07e      	beq.n	8005044 <_dtoa_r+0x4f4>
 8004f46:	9b08      	ldr	r3, [sp, #32]
 8004f48:	2b00      	cmp	r3, #0
 8004f4a:	d07b      	beq.n	8005044 <_dtoa_r+0x4f4>
 8004f4c:	f1b9 0f00 	cmp.w	r9, #0
 8004f50:	dd38      	ble.n	8004fc4 <_dtoa_r+0x474>
 8004f52:	e9dd 0110 	ldrd	r0, r1, [sp, #64]	; 0x40
 8004f56:	2200      	movs	r2, #0
 8004f58:	4b69      	ldr	r3, [pc, #420]	; (8005100 <_dtoa_r+0x5b0>)
 8004f5a:	f7fb fabd 	bl	80004d8 <__aeabi_dmul>
 8004f5e:	464c      	mov	r4, r9
 8004f60:	e9cd 0104 	strd	r0, r1, [sp, #16]
 8004f64:	f10a 38ff 	add.w	r8, sl, #4294967295
 8004f68:	3701      	adds	r7, #1
 8004f6a:	4638      	mov	r0, r7
 8004f6c:	f7fb fa4a 	bl	8000404 <__aeabi_i2d>
 8004f70:	e9dd 2304 	ldrd	r2, r3, [sp, #16]
 8004f74:	f7fb fab0 	bl	80004d8 <__aeabi_dmul>
 8004f78:	2200      	movs	r2, #0
 8004f7a:	4b62      	ldr	r3, [pc, #392]	; (8005104 <_dtoa_r+0x5b4>)
 8004f7c:	f7fb f8f6 	bl	800016c <__adddf3>
 8004f80:	f1a1 7650 	sub.w	r6, r1, #54525952	; 0x3400000
 8004f84:	e9cd 0110 	strd	r0, r1, [sp, #64]	; 0x40
 8004f88:	9611      	str	r6, [sp, #68]	; 0x44
 8004f8a:	2c00      	cmp	r4, #0
 8004f8c:	d15d      	bne.n	800504a <_dtoa_r+0x4fa>
 8004f8e:	e9dd 0104 	ldrd	r0, r1, [sp, #16]
 8004f92:	2200      	movs	r2, #0
 8004f94:	4b5c      	ldr	r3, [pc, #368]	; (8005108 <_dtoa_r+0x5b8>)
 8004f96:	f7fb f8e7 	bl	8000168 <__aeabi_dsub>
 8004f9a:	4602      	mov	r2, r0
 8004f9c:	460b      	mov	r3, r1
 8004f9e:	e9cd 2304 	strd	r2, r3, [sp, #16]
 8004fa2:	4633      	mov	r3, r6
 8004fa4:	9a10      	ldr	r2, [sp, #64]	; 0x40
 8004fa6:	f7fb fd27 	bl	80009f8 <__aeabi_dcmpgt>
 8004faa:	2800      	cmp	r0, #0
 8004fac:	f040 829c 	bne.w	80054e8 <_dtoa_r+0x998>
 8004fb0:	e9dd 0104 	ldrd	r0, r1, [sp, #16]
 8004fb4:	9a10      	ldr	r2, [sp, #64]	; 0x40
 8004fb6:	f106 4300 	add.w	r3, r6, #2147483648	; 0x80000000
 8004fba:	f7fb fcff 	bl	80009bc <__aeabi_dcmplt>
 8004fbe:	2800      	cmp	r0, #0
 8004fc0:	f040 8290 	bne.w	80054e4 <_dtoa_r+0x994>
 8004fc4:	e9dd 340c 	ldrd	r3, r4, [sp, #48]	; 0x30
 8004fc8:	e9cd 3404 	strd	r3, r4, [sp, #16]
 8004fcc:	9b17      	ldr	r3, [sp, #92]	; 0x5c
 8004fce:	2b00      	cmp	r3, #0
 8004fd0:	f2c0 8152 	blt.w	8005278 <_dtoa_r+0x728>
 8004fd4:	f1ba 0f0e 	cmp.w	sl, #14
 8004fd8:	f300 814e 	bgt.w	8005278 <_dtoa_r+0x728>
 8004fdc:	4b45      	ldr	r3, [pc, #276]	; (80050f4 <_dtoa_r+0x5a4>)
 8004fde:	eb03 03ca 	add.w	r3, r3, sl, lsl #3
 8004fe2:	e9d3 3400 	ldrd	r3, r4, [r3]
 8004fe6:	e9cd 3406 	strd	r3, r4, [sp, #24]
 8004fea:	9b23      	ldr	r3, [sp, #140]	; 0x8c
 8004fec:	2b00      	cmp	r3, #0
 8004fee:	f280 80db 	bge.w	80051a8 <_dtoa_r+0x658>
 8004ff2:	9b08      	ldr	r3, [sp, #32]
 8004ff4:	2b00      	cmp	r3, #0
 8004ff6:	f300 80d7 	bgt.w	80051a8 <_dtoa_r+0x658>
 8004ffa:	f040 8272 	bne.w	80054e2 <_dtoa_r+0x992>
 8004ffe:	e9dd 0106 	ldrd	r0, r1, [sp, #24]
 8005002:	2200      	movs	r2, #0
 8005004:	4b40      	ldr	r3, [pc, #256]	; (8005108 <_dtoa_r+0x5b8>)
 8005006:	f7fb fa67 	bl	80004d8 <__aeabi_dmul>
 800500a:	e9dd 2304 	ldrd	r2, r3, [sp, #16]
 800500e:	f7fb fce9 	bl	80009e4 <__aeabi_dcmpge>
 8005012:	9c08      	ldr	r4, [sp, #32]
 8005014:	4626      	mov	r6, r4
 8005016:	2800      	cmp	r0, #0
 8005018:	f040 8248 	bne.w	80054ac <_dtoa_r+0x95c>
 800501c:	2331      	movs	r3, #49	; 0x31
 800501e:	9f03      	ldr	r7, [sp, #12]
 8005020:	f10a 0a01 	add.w	sl, sl, #1
 8005024:	f807 3b01 	strb.w	r3, [r7], #1
 8005028:	e244      	b.n	80054b4 <_dtoa_r+0x964>
 800502a:	07e2      	lsls	r2, r4, #31
 800502c:	d505      	bpl.n	800503a <_dtoa_r+0x4ea>
 800502e:	e9d6 2300 	ldrd	r2, r3, [r6]
 8005032:	f7fb fa51 	bl	80004d8 <__aeabi_dmul>
 8005036:	2301      	movs	r3, #1
 8005038:	3701      	adds	r7, #1
 800503a:	1064      	asrs	r4, r4, #1
 800503c:	3608      	adds	r6, #8
 800503e:	e76d      	b.n	8004f1c <_dtoa_r+0x3cc>
 8005040:	2702      	movs	r7, #2
 8005042:	e770      	b.n	8004f26 <_dtoa_r+0x3d6>
 8005044:	46d0      	mov	r8, sl
 8005046:	9c08      	ldr	r4, [sp, #32]
 8005048:	e78f      	b.n	8004f6a <_dtoa_r+0x41a>
 800504a:	9903      	ldr	r1, [sp, #12]
 800504c:	4b29      	ldr	r3, [pc, #164]	; (80050f4 <_dtoa_r+0x5a4>)
 800504e:	4421      	add	r1, r4
 8005050:	9112      	str	r1, [sp, #72]	; 0x48
 8005052:	990b      	ldr	r1, [sp, #44]	; 0x2c
 8005054:	eb03 03c4 	add.w	r3, r3, r4, lsl #3
 8005058:	e9dd 6710 	ldrd	r6, r7, [sp, #64]	; 0x40
 800505c:	e953 2302 	ldrd	r2, r3, [r3, #-8]
 8005060:	2900      	cmp	r1, #0
 8005062:	d055      	beq.n	8005110 <_dtoa_r+0x5c0>
 8005064:	2000      	movs	r0, #0
 8005066:	4929      	ldr	r1, [pc, #164]	; (800510c <_dtoa_r+0x5bc>)
 8005068:	f7fb fb60 	bl	800072c <__aeabi_ddiv>
 800506c:	463b      	mov	r3, r7
 800506e:	4632      	mov	r2, r6
 8005070:	f7fb f87a 	bl	8000168 <__aeabi_dsub>
 8005074:	e9cd 0110 	strd	r0, r1, [sp, #64]	; 0x40
 8005078:	9f03      	ldr	r7, [sp, #12]
 800507a:	e9dd 0104 	ldrd	r0, r1, [sp, #16]
 800507e:	f7fb fcdb 	bl	8000a38 <__aeabi_d2iz>
 8005082:	4604      	mov	r4, r0
 8005084:	f7fb f9be 	bl	8000404 <__aeabi_i2d>
 8005088:	4602      	mov	r2, r0
 800508a:	460b      	mov	r3, r1
 800508c:	e9dd 0104 	ldrd	r0, r1, [sp, #16]
 8005090:	f7fb f86a 	bl	8000168 <__aeabi_dsub>
 8005094:	4602      	mov	r2, r0
 8005096:	460b      	mov	r3, r1
 8005098:	3430      	adds	r4, #48	; 0x30
 800509a:	e9cd 2304 	strd	r2, r3, [sp, #16]
 800509e:	e9dd 2310 	ldrd	r2, r3, [sp, #64]	; 0x40
 80050a2:	f807 4b01 	strb.w	r4, [r7], #1
 80050a6:	f7fb fc89 	bl	80009bc <__aeabi_dcmplt>
 80050aa:	2800      	cmp	r0, #0
 80050ac:	d174      	bne.n	8005198 <_dtoa_r+0x648>
 80050ae:	e9dd 2304 	ldrd	r2, r3, [sp, #16]
 80050b2:	2000      	movs	r0, #0
 80050b4:	4911      	ldr	r1, [pc, #68]	; (80050fc <_dtoa_r+0x5ac>)
 80050b6:	f7fb f857 	bl	8000168 <__aeabi_dsub>
 80050ba:	e9dd 2310 	ldrd	r2, r3, [sp, #64]	; 0x40
 80050be:	f7fb fc7d 	bl	80009bc <__aeabi_dcmplt>
 80050c2:	2800      	cmp	r0, #0
 80050c4:	f040 80b7 	bne.w	8005236 <_dtoa_r+0x6e6>
 80050c8:	9b12      	ldr	r3, [sp, #72]	; 0x48
 80050ca:	429f      	cmp	r7, r3
 80050cc:	f43f af7a 	beq.w	8004fc4 <_dtoa_r+0x474>
 80050d0:	e9dd 0110 	ldrd	r0, r1, [sp, #64]	; 0x40
 80050d4:	2200      	movs	r2, #0
 80050d6:	4b0a      	ldr	r3, [pc, #40]	; (8005100 <_dtoa_r+0x5b0>)
 80050d8:	f7fb f9fe 	bl	80004d8 <__aeabi_dmul>
 80050dc:	2200      	movs	r2, #0
 80050de:	e9cd 0110 	strd	r0, r1, [sp, #64]	; 0x40
 80050e2:	e9dd 0104 	ldrd	r0, r1, [sp, #16]
 80050e6:	4b06      	ldr	r3, [pc, #24]	; (8005100 <_dtoa_r+0x5b0>)
 80050e8:	f7fb f9f6 	bl	80004d8 <__aeabi_dmul>
 80050ec:	e9cd 0104 	strd	r0, r1, [sp, #16]
 80050f0:	e7c3      	b.n	800507a <_dtoa_r+0x52a>
 80050f2:	bf00      	nop
 80050f4:	08008318 	.word	0x08008318
 80050f8:	080082f0 	.word	0x080082f0
 80050fc:	3ff00000 	.word	0x3ff00000
 8005100:	40240000 	.word	0x40240000
 8005104:	401c0000 	.word	0x401c0000
 8005108:	40140000 	.word	0x40140000
 800510c:	3fe00000 	.word	0x3fe00000
 8005110:	4630      	mov	r0, r6
 8005112:	4639      	mov	r1, r7
 8005114:	f7fb f9e0 	bl	80004d8 <__aeabi_dmul>
 8005118:	9b12      	ldr	r3, [sp, #72]	; 0x48
 800511a:	e9cd 0110 	strd	r0, r1, [sp, #64]	; 0x40
 800511e:	9c03      	ldr	r4, [sp, #12]
 8005120:	9314      	str	r3, [sp, #80]	; 0x50
 8005122:	e9dd 0104 	ldrd	r0, r1, [sp, #16]
 8005126:	f7fb fc87 	bl	8000a38 <__aeabi_d2iz>
 800512a:	9015      	str	r0, [sp, #84]	; 0x54
 800512c:	f7fb f96a 	bl	8000404 <__aeabi_i2d>
 8005130:	4602      	mov	r2, r0
 8005132:	460b      	mov	r3, r1
 8005134:	e9dd 0104 	ldrd	r0, r1, [sp, #16]
 8005138:	f7fb f816 	bl	8000168 <__aeabi_dsub>
 800513c:	9b15      	ldr	r3, [sp, #84]	; 0x54
 800513e:	4606      	mov	r6, r0
 8005140:	3330      	adds	r3, #48	; 0x30
 8005142:	f804 3b01 	strb.w	r3, [r4], #1
 8005146:	9b12      	ldr	r3, [sp, #72]	; 0x48
 8005148:	460f      	mov	r7, r1
 800514a:	429c      	cmp	r4, r3
 800514c:	f04f 0200 	mov.w	r2, #0
 8005150:	d124      	bne.n	800519c <_dtoa_r+0x64c>
 8005152:	e9dd 0110 	ldrd	r0, r1, [sp, #64]	; 0x40
 8005156:	4bb0      	ldr	r3, [pc, #704]	; (8005418 <_dtoa_r+0x8c8>)
 8005158:	f7fb f808 	bl	800016c <__adddf3>
 800515c:	4602      	mov	r2, r0
 800515e:	460b      	mov	r3, r1
 8005160:	4630      	mov	r0, r6
 8005162:	4639      	mov	r1, r7
 8005164:	f7fb fc48 	bl	80009f8 <__aeabi_dcmpgt>
 8005168:	2800      	cmp	r0, #0
 800516a:	d163      	bne.n	8005234 <_dtoa_r+0x6e4>
 800516c:	e9dd 2310 	ldrd	r2, r3, [sp, #64]	; 0x40
 8005170:	2000      	movs	r0, #0
 8005172:	49a9      	ldr	r1, [pc, #676]	; (8005418 <_dtoa_r+0x8c8>)
 8005174:	f7fa fff8 	bl	8000168 <__aeabi_dsub>
 8005178:	4602      	mov	r2, r0
 800517a:	460b      	mov	r3, r1
 800517c:	4630      	mov	r0, r6
 800517e:	4639      	mov	r1, r7
 8005180:	f7fb fc1c 	bl	80009bc <__aeabi_dcmplt>
 8005184:	2800      	cmp	r0, #0
 8005186:	f43f af1d 	beq.w	8004fc4 <_dtoa_r+0x474>
 800518a:	9f14      	ldr	r7, [sp, #80]	; 0x50
 800518c:	1e7b      	subs	r3, r7, #1
 800518e:	9314      	str	r3, [sp, #80]	; 0x50
 8005190:	f817 3c01 	ldrb.w	r3, [r7, #-1]
 8005194:	2b30      	cmp	r3, #48	; 0x30
 8005196:	d0f8      	beq.n	800518a <_dtoa_r+0x63a>
 8005198:	46c2      	mov	sl, r8
 800519a:	e03b      	b.n	8005214 <_dtoa_r+0x6c4>
 800519c:	4b9f      	ldr	r3, [pc, #636]	; (800541c <_dtoa_r+0x8cc>)
 800519e:	f7fb f99b 	bl	80004d8 <__aeabi_dmul>
 80051a2:	e9cd 0104 	strd	r0, r1, [sp, #16]
 80051a6:	e7bc      	b.n	8005122 <_dtoa_r+0x5d2>
 80051a8:	9f03      	ldr	r7, [sp, #12]
 80051aa:	e9dd 8904 	ldrd	r8, r9, [sp, #16]
 80051ae:	e9dd 2306 	ldrd	r2, r3, [sp, #24]
 80051b2:	4640      	mov	r0, r8
 80051b4:	4649      	mov	r1, r9
 80051b6:	f7fb fab9 	bl	800072c <__aeabi_ddiv>
 80051ba:	f7fb fc3d 	bl	8000a38 <__aeabi_d2iz>
 80051be:	4604      	mov	r4, r0
 80051c0:	f7fb f920 	bl	8000404 <__aeabi_i2d>
 80051c4:	e9dd 2306 	ldrd	r2, r3, [sp, #24]
 80051c8:	f7fb f986 	bl	80004d8 <__aeabi_dmul>
 80051cc:	4602      	mov	r2, r0
 80051ce:	460b      	mov	r3, r1
 80051d0:	4640      	mov	r0, r8
 80051d2:	4649      	mov	r1, r9
 80051d4:	f7fa ffc8 	bl	8000168 <__aeabi_dsub>
 80051d8:	f104 0630 	add.w	r6, r4, #48	; 0x30
 80051dc:	f807 6b01 	strb.w	r6, [r7], #1
 80051e0:	9e03      	ldr	r6, [sp, #12]
 80051e2:	f8dd c020 	ldr.w	ip, [sp, #32]
 80051e6:	1bbe      	subs	r6, r7, r6
 80051e8:	45b4      	cmp	ip, r6
 80051ea:	4602      	mov	r2, r0
 80051ec:	460b      	mov	r3, r1
 80051ee:	d136      	bne.n	800525e <_dtoa_r+0x70e>
 80051f0:	f7fa ffbc 	bl	800016c <__adddf3>
 80051f4:	e9dd 2306 	ldrd	r2, r3, [sp, #24]
 80051f8:	4680      	mov	r8, r0
 80051fa:	4689      	mov	r9, r1
 80051fc:	f7fb fbfc 	bl	80009f8 <__aeabi_dcmpgt>
 8005200:	bb58      	cbnz	r0, 800525a <_dtoa_r+0x70a>
 8005202:	e9dd 2306 	ldrd	r2, r3, [sp, #24]
 8005206:	4640      	mov	r0, r8
 8005208:	4649      	mov	r1, r9
 800520a:	f7fb fbcd 	bl	80009a8 <__aeabi_dcmpeq>
 800520e:	b108      	cbz	r0, 8005214 <_dtoa_r+0x6c4>
 8005210:	07e1      	lsls	r1, r4, #31
 8005212:	d422      	bmi.n	800525a <_dtoa_r+0x70a>
 8005214:	4628      	mov	r0, r5
 8005216:	4659      	mov	r1, fp
 8005218:	f000 faf0 	bl	80057fc <_Bfree>
 800521c:	2300      	movs	r3, #0
 800521e:	703b      	strb	r3, [r7, #0]
 8005220:	9b24      	ldr	r3, [sp, #144]	; 0x90
 8005222:	f10a 0001 	add.w	r0, sl, #1
 8005226:	6018      	str	r0, [r3, #0]
 8005228:	9b26      	ldr	r3, [sp, #152]	; 0x98
 800522a:	2b00      	cmp	r3, #0
 800522c:	f43f acde 	beq.w	8004bec <_dtoa_r+0x9c>
 8005230:	601f      	str	r7, [r3, #0]
 8005232:	e4db      	b.n	8004bec <_dtoa_r+0x9c>
 8005234:	4627      	mov	r7, r4
 8005236:	463b      	mov	r3, r7
 8005238:	461f      	mov	r7, r3
 800523a:	f813 2d01 	ldrb.w	r2, [r3, #-1]!
 800523e:	2a39      	cmp	r2, #57	; 0x39
 8005240:	d107      	bne.n	8005252 <_dtoa_r+0x702>
 8005242:	9a03      	ldr	r2, [sp, #12]
 8005244:	429a      	cmp	r2, r3
 8005246:	d1f7      	bne.n	8005238 <_dtoa_r+0x6e8>
 8005248:	2230      	movs	r2, #48	; 0x30
 800524a:	9903      	ldr	r1, [sp, #12]
 800524c:	f108 0801 	add.w	r8, r8, #1
 8005250:	700a      	strb	r2, [r1, #0]
 8005252:	781a      	ldrb	r2, [r3, #0]
 8005254:	3201      	adds	r2, #1
 8005256:	701a      	strb	r2, [r3, #0]
 8005258:	e79e      	b.n	8005198 <_dtoa_r+0x648>
 800525a:	46d0      	mov	r8, sl
 800525c:	e7eb      	b.n	8005236 <_dtoa_r+0x6e6>
 800525e:	2200      	movs	r2, #0
 8005260:	4b6e      	ldr	r3, [pc, #440]	; (800541c <_dtoa_r+0x8cc>)
 8005262:	f7fb f939 	bl	80004d8 <__aeabi_dmul>
 8005266:	2200      	movs	r2, #0
 8005268:	2300      	movs	r3, #0
 800526a:	4680      	mov	r8, r0
 800526c:	4689      	mov	r9, r1
 800526e:	f7fb fb9b 	bl	80009a8 <__aeabi_dcmpeq>
 8005272:	2800      	cmp	r0, #0
 8005274:	d09b      	beq.n	80051ae <_dtoa_r+0x65e>
 8005276:	e7cd      	b.n	8005214 <_dtoa_r+0x6c4>
 8005278:	9a0b      	ldr	r2, [sp, #44]	; 0x2c
 800527a:	2a00      	cmp	r2, #0
 800527c:	f000 80d0 	beq.w	8005420 <_dtoa_r+0x8d0>
 8005280:	9a22      	ldr	r2, [sp, #136]	; 0x88
 8005282:	2a01      	cmp	r2, #1
 8005284:	f300 80ae 	bgt.w	80053e4 <_dtoa_r+0x894>
 8005288:	9a13      	ldr	r2, [sp, #76]	; 0x4c
 800528a:	2a00      	cmp	r2, #0
 800528c:	f000 80a6 	beq.w	80053dc <_dtoa_r+0x88c>
 8005290:	f203 4333 	addw	r3, r3, #1075	; 0x433
 8005294:	9c0a      	ldr	r4, [sp, #40]	; 0x28
 8005296:	9f06      	ldr	r7, [sp, #24]
 8005298:	9a06      	ldr	r2, [sp, #24]
 800529a:	2101      	movs	r1, #1
 800529c:	441a      	add	r2, r3
 800529e:	9206      	str	r2, [sp, #24]
 80052a0:	9a09      	ldr	r2, [sp, #36]	; 0x24
 80052a2:	4628      	mov	r0, r5
 80052a4:	441a      	add	r2, r3
 80052a6:	9209      	str	r2, [sp, #36]	; 0x24
 80052a8:	f000 fb5e 	bl	8005968 <__i2b>
 80052ac:	4606      	mov	r6, r0
 80052ae:	2f00      	cmp	r7, #0
 80052b0:	dd0c      	ble.n	80052cc <_dtoa_r+0x77c>
 80052b2:	9b09      	ldr	r3, [sp, #36]	; 0x24
 80052b4:	2b00      	cmp	r3, #0
 80052b6:	dd09      	ble.n	80052cc <_dtoa_r+0x77c>
 80052b8:	42bb      	cmp	r3, r7
 80052ba:	bfa8      	it	ge
 80052bc:	463b      	movge	r3, r7
 80052be:	9a06      	ldr	r2, [sp, #24]
 80052c0:	1aff      	subs	r7, r7, r3
 80052c2:	1ad2      	subs	r2, r2, r3
 80052c4:	9206      	str	r2, [sp, #24]
 80052c6:	9a09      	ldr	r2, [sp, #36]	; 0x24
 80052c8:	1ad3      	subs	r3, r2, r3
 80052ca:	9309      	str	r3, [sp, #36]	; 0x24
 80052cc:	9b0a      	ldr	r3, [sp, #40]	; 0x28
 80052ce:	b1f3      	cbz	r3, 800530e <_dtoa_r+0x7be>
 80052d0:	9b0b      	ldr	r3, [sp, #44]	; 0x2c
 80052d2:	2b00      	cmp	r3, #0
 80052d4:	f000 80a8 	beq.w	8005428 <_dtoa_r+0x8d8>
 80052d8:	2c00      	cmp	r4, #0
 80052da:	dd10      	ble.n	80052fe <_dtoa_r+0x7ae>
 80052dc:	4631      	mov	r1, r6
 80052de:	4622      	mov	r2, r4
 80052e0:	4628      	mov	r0, r5
 80052e2:	f000 fbff 	bl	8005ae4 <__pow5mult>
 80052e6:	465a      	mov	r2, fp
 80052e8:	4601      	mov	r1, r0
 80052ea:	4606      	mov	r6, r0
 80052ec:	4628      	mov	r0, r5
 80052ee:	f000 fb51 	bl	8005994 <__multiply>
 80052f2:	4680      	mov	r8, r0
 80052f4:	4659      	mov	r1, fp
 80052f6:	4628      	mov	r0, r5
 80052f8:	f000 fa80 	bl	80057fc <_Bfree>
 80052fc:	46c3      	mov	fp, r8
 80052fe:	9b0a      	ldr	r3, [sp, #40]	; 0x28
 8005300:	1b1a      	subs	r2, r3, r4
 8005302:	d004      	beq.n	800530e <_dtoa_r+0x7be>
 8005304:	4659      	mov	r1, fp
 8005306:	4628      	mov	r0, r5
 8005308:	f000 fbec 	bl	8005ae4 <__pow5mult>
 800530c:	4683      	mov	fp, r0
 800530e:	2101      	movs	r1, #1
 8005310:	4628      	mov	r0, r5
 8005312:	f000 fb29 	bl	8005968 <__i2b>
 8005316:	9b0e      	ldr	r3, [sp, #56]	; 0x38
 8005318:	4604      	mov	r4, r0
 800531a:	2b00      	cmp	r3, #0
 800531c:	f340 8086 	ble.w	800542c <_dtoa_r+0x8dc>
 8005320:	461a      	mov	r2, r3
 8005322:	4601      	mov	r1, r0
 8005324:	4628      	mov	r0, r5
 8005326:	f000 fbdd 	bl	8005ae4 <__pow5mult>
 800532a:	9b22      	ldr	r3, [sp, #136]	; 0x88
 800532c:	4604      	mov	r4, r0
 800532e:	2b01      	cmp	r3, #1
 8005330:	dd7f      	ble.n	8005432 <_dtoa_r+0x8e2>
 8005332:	f04f 0800 	mov.w	r8, #0
 8005336:	6923      	ldr	r3, [r4, #16]
 8005338:	eb04 0383 	add.w	r3, r4, r3, lsl #2
 800533c:	6918      	ldr	r0, [r3, #16]
 800533e:	f000 fac5 	bl	80058cc <__hi0bits>
 8005342:	f1c0 0020 	rsb	r0, r0, #32
 8005346:	9b09      	ldr	r3, [sp, #36]	; 0x24
 8005348:	4418      	add	r0, r3
 800534a:	f010 001f 	ands.w	r0, r0, #31
 800534e:	f000 8092 	beq.w	8005476 <_dtoa_r+0x926>
 8005352:	f1c0 0320 	rsb	r3, r0, #32
 8005356:	2b04      	cmp	r3, #4
 8005358:	f340 808a 	ble.w	8005470 <_dtoa_r+0x920>
 800535c:	f1c0 001c 	rsb	r0, r0, #28
 8005360:	9b06      	ldr	r3, [sp, #24]
 8005362:	4407      	add	r7, r0
 8005364:	4403      	add	r3, r0
 8005366:	9306      	str	r3, [sp, #24]
 8005368:	9b09      	ldr	r3, [sp, #36]	; 0x24
 800536a:	4403      	add	r3, r0
 800536c:	9309      	str	r3, [sp, #36]	; 0x24
 800536e:	9b06      	ldr	r3, [sp, #24]
 8005370:	2b00      	cmp	r3, #0
 8005372:	dd05      	ble.n	8005380 <_dtoa_r+0x830>
 8005374:	4659      	mov	r1, fp
 8005376:	461a      	mov	r2, r3
 8005378:	4628      	mov	r0, r5
 800537a:	f000 fc0d 	bl	8005b98 <__lshift>
 800537e:	4683      	mov	fp, r0
 8005380:	9b09      	ldr	r3, [sp, #36]	; 0x24
 8005382:	2b00      	cmp	r3, #0
 8005384:	dd05      	ble.n	8005392 <_dtoa_r+0x842>
 8005386:	4621      	mov	r1, r4
 8005388:	461a      	mov	r2, r3
 800538a:	4628      	mov	r0, r5
 800538c:	f000 fc04 	bl	8005b98 <__lshift>
 8005390:	4604      	mov	r4, r0
 8005392:	9b0f      	ldr	r3, [sp, #60]	; 0x3c
 8005394:	2b00      	cmp	r3, #0
 8005396:	d070      	beq.n	800547a <_dtoa_r+0x92a>
 8005398:	4621      	mov	r1, r4
 800539a:	4658      	mov	r0, fp
 800539c:	f000 fc6c 	bl	8005c78 <__mcmp>
 80053a0:	2800      	cmp	r0, #0
 80053a2:	da6a      	bge.n	800547a <_dtoa_r+0x92a>
 80053a4:	2300      	movs	r3, #0
 80053a6:	4659      	mov	r1, fp
 80053a8:	220a      	movs	r2, #10
 80053aa:	4628      	mov	r0, r5
 80053ac:	f000 fa48 	bl	8005840 <__multadd>
 80053b0:	9b0b      	ldr	r3, [sp, #44]	; 0x2c
 80053b2:	4683      	mov	fp, r0
 80053b4:	f10a 3aff 	add.w	sl, sl, #4294967295
 80053b8:	2b00      	cmp	r3, #0
 80053ba:	f000 8194 	beq.w	80056e6 <_dtoa_r+0xb96>
 80053be:	4631      	mov	r1, r6
 80053c0:	2300      	movs	r3, #0
 80053c2:	220a      	movs	r2, #10
 80053c4:	4628      	mov	r0, r5
 80053c6:	f000 fa3b 	bl	8005840 <__multadd>
 80053ca:	f1b9 0f00 	cmp.w	r9, #0
 80053ce:	4606      	mov	r6, r0
 80053d0:	f300 8093 	bgt.w	80054fa <_dtoa_r+0x9aa>
 80053d4:	9b22      	ldr	r3, [sp, #136]	; 0x88
 80053d6:	2b02      	cmp	r3, #2
 80053d8:	dc57      	bgt.n	800548a <_dtoa_r+0x93a>
 80053da:	e08e      	b.n	80054fa <_dtoa_r+0x9aa>
 80053dc:	9b16      	ldr	r3, [sp, #88]	; 0x58
 80053de:	f1c3 0336 	rsb	r3, r3, #54	; 0x36
 80053e2:	e757      	b.n	8005294 <_dtoa_r+0x744>
 80053e4:	9b08      	ldr	r3, [sp, #32]
 80053e6:	1e5c      	subs	r4, r3, #1
 80053e8:	9b0a      	ldr	r3, [sp, #40]	; 0x28
 80053ea:	42a3      	cmp	r3, r4
 80053ec:	bfb7      	itett	lt
 80053ee:	9b0a      	ldrlt	r3, [sp, #40]	; 0x28
 80053f0:	1b1c      	subge	r4, r3, r4
 80053f2:	1ae2      	sublt	r2, r4, r3
 80053f4:	9b0e      	ldrlt	r3, [sp, #56]	; 0x38
 80053f6:	bfbe      	ittt	lt
 80053f8:	940a      	strlt	r4, [sp, #40]	; 0x28
 80053fa:	189b      	addlt	r3, r3, r2
 80053fc:	930e      	strlt	r3, [sp, #56]	; 0x38
 80053fe:	9b08      	ldr	r3, [sp, #32]
 8005400:	bfb8      	it	lt
 8005402:	2400      	movlt	r4, #0
 8005404:	2b00      	cmp	r3, #0
 8005406:	bfbb      	ittet	lt
 8005408:	9b06      	ldrlt	r3, [sp, #24]
 800540a:	9a08      	ldrlt	r2, [sp, #32]
 800540c:	9f06      	ldrge	r7, [sp, #24]
 800540e:	1a9f      	sublt	r7, r3, r2
 8005410:	bfac      	ite	ge
 8005412:	9b08      	ldrge	r3, [sp, #32]
 8005414:	2300      	movlt	r3, #0
 8005416:	e73f      	b.n	8005298 <_dtoa_r+0x748>
 8005418:	3fe00000 	.word	0x3fe00000
 800541c:	40240000 	.word	0x40240000
 8005420:	9c0a      	ldr	r4, [sp, #40]	; 0x28
 8005422:	9f06      	ldr	r7, [sp, #24]
 8005424:	9e0b      	ldr	r6, [sp, #44]	; 0x2c
 8005426:	e742      	b.n	80052ae <_dtoa_r+0x75e>
 8005428:	9a0a      	ldr	r2, [sp, #40]	; 0x28
 800542a:	e76b      	b.n	8005304 <_dtoa_r+0x7b4>
 800542c:	9b22      	ldr	r3, [sp, #136]	; 0x88
 800542e:	2b01      	cmp	r3, #1
 8005430:	dc19      	bgt.n	8005466 <_dtoa_r+0x916>
 8005432:	9b04      	ldr	r3, [sp, #16]
 8005434:	b9bb      	cbnz	r3, 8005466 <_dtoa_r+0x916>
 8005436:	9b05      	ldr	r3, [sp, #20]
 8005438:	f3c3 0313 	ubfx	r3, r3, #0, #20
 800543c:	b99b      	cbnz	r3, 8005466 <_dtoa_r+0x916>
 800543e:	9b05      	ldr	r3, [sp, #20]
 8005440:	f023 4300 	bic.w	r3, r3, #2147483648	; 0x80000000
 8005444:	0d1b      	lsrs	r3, r3, #20
 8005446:	051b      	lsls	r3, r3, #20
 8005448:	b183      	cbz	r3, 800546c <_dtoa_r+0x91c>
 800544a:	f04f 0801 	mov.w	r8, #1
 800544e:	9b06      	ldr	r3, [sp, #24]
 8005450:	3301      	adds	r3, #1
 8005452:	9306      	str	r3, [sp, #24]
 8005454:	9b09      	ldr	r3, [sp, #36]	; 0x24
 8005456:	3301      	adds	r3, #1
 8005458:	9309      	str	r3, [sp, #36]	; 0x24
 800545a:	9b0e      	ldr	r3, [sp, #56]	; 0x38
 800545c:	2b00      	cmp	r3, #0
 800545e:	f47f af6a 	bne.w	8005336 <_dtoa_r+0x7e6>
 8005462:	2001      	movs	r0, #1
 8005464:	e76f      	b.n	8005346 <_dtoa_r+0x7f6>
 8005466:	f04f 0800 	mov.w	r8, #0
 800546a:	e7f6      	b.n	800545a <_dtoa_r+0x90a>
 800546c:	4698      	mov	r8, r3
 800546e:	e7f4      	b.n	800545a <_dtoa_r+0x90a>
 8005470:	f43f af7d 	beq.w	800536e <_dtoa_r+0x81e>
 8005474:	4618      	mov	r0, r3
 8005476:	301c      	adds	r0, #28
 8005478:	e772      	b.n	8005360 <_dtoa_r+0x810>
 800547a:	9b08      	ldr	r3, [sp, #32]
 800547c:	2b00      	cmp	r3, #0
 800547e:	dc36      	bgt.n	80054ee <_dtoa_r+0x99e>
 8005480:	9b22      	ldr	r3, [sp, #136]	; 0x88
 8005482:	2b02      	cmp	r3, #2
 8005484:	dd33      	ble.n	80054ee <_dtoa_r+0x99e>
 8005486:	f8dd 9020 	ldr.w	r9, [sp, #32]
 800548a:	f1b9 0f00 	cmp.w	r9, #0
 800548e:	d10d      	bne.n	80054ac <_dtoa_r+0x95c>
 8005490:	4621      	mov	r1, r4
 8005492:	464b      	mov	r3, r9
 8005494:	2205      	movs	r2, #5
 8005496:	4628      	mov	r0, r5
 8005498:	f000 f9d2 	bl	8005840 <__multadd>
 800549c:	4601      	mov	r1, r0
 800549e:	4604      	mov	r4, r0
 80054a0:	4658      	mov	r0, fp
 80054a2:	f000 fbe9 	bl	8005c78 <__mcmp>
 80054a6:	2800      	cmp	r0, #0
 80054a8:	f73f adb8 	bgt.w	800501c <_dtoa_r+0x4cc>
 80054ac:	9b23      	ldr	r3, [sp, #140]	; 0x8c
 80054ae:	9f03      	ldr	r7, [sp, #12]
 80054b0:	ea6f 0a03 	mvn.w	sl, r3
 80054b4:	f04f 0800 	mov.w	r8, #0
 80054b8:	4621      	mov	r1, r4
 80054ba:	4628      	mov	r0, r5
 80054bc:	f000 f99e 	bl	80057fc <_Bfree>
 80054c0:	2e00      	cmp	r6, #0
 80054c2:	f43f aea7 	beq.w	8005214 <_dtoa_r+0x6c4>
 80054c6:	f1b8 0f00 	cmp.w	r8, #0
 80054ca:	d005      	beq.n	80054d8 <_dtoa_r+0x988>
 80054cc:	45b0      	cmp	r8, r6
 80054ce:	d003      	beq.n	80054d8 <_dtoa_r+0x988>
 80054d0:	4641      	mov	r1, r8
 80054d2:	4628      	mov	r0, r5
 80054d4:	f000 f992 	bl	80057fc <_Bfree>
 80054d8:	4631      	mov	r1, r6
 80054da:	4628      	mov	r0, r5
 80054dc:	f000 f98e 	bl	80057fc <_Bfree>
 80054e0:	e698      	b.n	8005214 <_dtoa_r+0x6c4>
 80054e2:	2400      	movs	r4, #0
 80054e4:	4626      	mov	r6, r4
 80054e6:	e7e1      	b.n	80054ac <_dtoa_r+0x95c>
 80054e8:	46c2      	mov	sl, r8
 80054ea:	4626      	mov	r6, r4
 80054ec:	e596      	b.n	800501c <_dtoa_r+0x4cc>
 80054ee:	9b0b      	ldr	r3, [sp, #44]	; 0x2c
 80054f0:	f8dd 9020 	ldr.w	r9, [sp, #32]
 80054f4:	2b00      	cmp	r3, #0
 80054f6:	f000 80fd 	beq.w	80056f4 <_dtoa_r+0xba4>
 80054fa:	2f00      	cmp	r7, #0
 80054fc:	dd05      	ble.n	800550a <_dtoa_r+0x9ba>
 80054fe:	4631      	mov	r1, r6
 8005500:	463a      	mov	r2, r7
 8005502:	4628      	mov	r0, r5
 8005504:	f000 fb48 	bl	8005b98 <__lshift>
 8005508:	4606      	mov	r6, r0
 800550a:	f1b8 0f00 	cmp.w	r8, #0
 800550e:	d05c      	beq.n	80055ca <_dtoa_r+0xa7a>
 8005510:	4628      	mov	r0, r5
 8005512:	6871      	ldr	r1, [r6, #4]
 8005514:	f000 f932 	bl	800577c <_Balloc>
 8005518:	4607      	mov	r7, r0
 800551a:	b928      	cbnz	r0, 8005528 <_dtoa_r+0x9d8>
 800551c:	4602      	mov	r2, r0
 800551e:	f240 21ea 	movw	r1, #746	; 0x2ea
 8005522:	4b7f      	ldr	r3, [pc, #508]	; (8005720 <_dtoa_r+0xbd0>)
 8005524:	f7ff bb28 	b.w	8004b78 <_dtoa_r+0x28>
 8005528:	6932      	ldr	r2, [r6, #16]
 800552a:	f106 010c 	add.w	r1, r6, #12
 800552e:	3202      	adds	r2, #2
 8005530:	0092      	lsls	r2, r2, #2
 8005532:	300c      	adds	r0, #12
 8005534:	f000 f914 	bl	8005760 <memcpy>
 8005538:	2201      	movs	r2, #1
 800553a:	4639      	mov	r1, r7
 800553c:	4628      	mov	r0, r5
 800553e:	f000 fb2b 	bl	8005b98 <__lshift>
 8005542:	46b0      	mov	r8, r6
 8005544:	4606      	mov	r6, r0
 8005546:	9b03      	ldr	r3, [sp, #12]
 8005548:	3301      	adds	r3, #1
 800554a:	9308      	str	r3, [sp, #32]
 800554c:	9b03      	ldr	r3, [sp, #12]
 800554e:	444b      	add	r3, r9
 8005550:	930a      	str	r3, [sp, #40]	; 0x28
 8005552:	9b04      	ldr	r3, [sp, #16]
 8005554:	f003 0301 	and.w	r3, r3, #1
 8005558:	9309      	str	r3, [sp, #36]	; 0x24
 800555a:	9b08      	ldr	r3, [sp, #32]
 800555c:	4621      	mov	r1, r4
 800555e:	3b01      	subs	r3, #1
 8005560:	4658      	mov	r0, fp
 8005562:	9304      	str	r3, [sp, #16]
 8005564:	f7ff fa66 	bl	8004a34 <quorem>
 8005568:	4603      	mov	r3, r0
 800556a:	4641      	mov	r1, r8
 800556c:	3330      	adds	r3, #48	; 0x30
 800556e:	9006      	str	r0, [sp, #24]
 8005570:	4658      	mov	r0, fp
 8005572:	930b      	str	r3, [sp, #44]	; 0x2c
 8005574:	f000 fb80 	bl	8005c78 <__mcmp>
 8005578:	4632      	mov	r2, r6
 800557a:	4681      	mov	r9, r0
 800557c:	4621      	mov	r1, r4
 800557e:	4628      	mov	r0, r5
 8005580:	f000 fb96 	bl	8005cb0 <__mdiff>
 8005584:	68c2      	ldr	r2, [r0, #12]
 8005586:	4607      	mov	r7, r0
 8005588:	9b0b      	ldr	r3, [sp, #44]	; 0x2c
 800558a:	bb02      	cbnz	r2, 80055ce <_dtoa_r+0xa7e>
 800558c:	4601      	mov	r1, r0
 800558e:	4658      	mov	r0, fp
 8005590:	f000 fb72 	bl	8005c78 <__mcmp>
 8005594:	4602      	mov	r2, r0
 8005596:	9b0b      	ldr	r3, [sp, #44]	; 0x2c
 8005598:	4639      	mov	r1, r7
 800559a:	4628      	mov	r0, r5
 800559c:	e9cd 320b 	strd	r3, r2, [sp, #44]	; 0x2c
 80055a0:	f000 f92c 	bl	80057fc <_Bfree>
 80055a4:	9b22      	ldr	r3, [sp, #136]	; 0x88
 80055a6:	9a0c      	ldr	r2, [sp, #48]	; 0x30
 80055a8:	9f08      	ldr	r7, [sp, #32]
 80055aa:	ea43 0102 	orr.w	r1, r3, r2
 80055ae:	9b09      	ldr	r3, [sp, #36]	; 0x24
 80055b0:	430b      	orrs	r3, r1
 80055b2:	9b0b      	ldr	r3, [sp, #44]	; 0x2c
 80055b4:	d10d      	bne.n	80055d2 <_dtoa_r+0xa82>
 80055b6:	2b39      	cmp	r3, #57	; 0x39
 80055b8:	d029      	beq.n	800560e <_dtoa_r+0xabe>
 80055ba:	f1b9 0f00 	cmp.w	r9, #0
 80055be:	dd01      	ble.n	80055c4 <_dtoa_r+0xa74>
 80055c0:	9b06      	ldr	r3, [sp, #24]
 80055c2:	3331      	adds	r3, #49	; 0x31
 80055c4:	9a04      	ldr	r2, [sp, #16]
 80055c6:	7013      	strb	r3, [r2, #0]
 80055c8:	e776      	b.n	80054b8 <_dtoa_r+0x968>
 80055ca:	4630      	mov	r0, r6
 80055cc:	e7b9      	b.n	8005542 <_dtoa_r+0x9f2>
 80055ce:	2201      	movs	r2, #1
 80055d0:	e7e2      	b.n	8005598 <_dtoa_r+0xa48>
 80055d2:	f1b9 0f00 	cmp.w	r9, #0
 80055d6:	db06      	blt.n	80055e6 <_dtoa_r+0xa96>
 80055d8:	9922      	ldr	r1, [sp, #136]	; 0x88
 80055da:	ea41 0909 	orr.w	r9, r1, r9
 80055de:	9909      	ldr	r1, [sp, #36]	; 0x24
 80055e0:	ea59 0101 	orrs.w	r1, r9, r1
 80055e4:	d120      	bne.n	8005628 <_dtoa_r+0xad8>
 80055e6:	2a00      	cmp	r2, #0
 80055e8:	ddec      	ble.n	80055c4 <_dtoa_r+0xa74>
 80055ea:	4659      	mov	r1, fp
 80055ec:	2201      	movs	r2, #1
 80055ee:	4628      	mov	r0, r5
 80055f0:	9308      	str	r3, [sp, #32]
 80055f2:	f000 fad1 	bl	8005b98 <__lshift>
 80055f6:	4621      	mov	r1, r4
 80055f8:	4683      	mov	fp, r0
 80055fa:	f000 fb3d 	bl	8005c78 <__mcmp>
 80055fe:	2800      	cmp	r0, #0
 8005600:	9b08      	ldr	r3, [sp, #32]
 8005602:	dc02      	bgt.n	800560a <_dtoa_r+0xaba>
 8005604:	d1de      	bne.n	80055c4 <_dtoa_r+0xa74>
 8005606:	07da      	lsls	r2, r3, #31
 8005608:	d5dc      	bpl.n	80055c4 <_dtoa_r+0xa74>
 800560a:	2b39      	cmp	r3, #57	; 0x39
 800560c:	d1d8      	bne.n	80055c0 <_dtoa_r+0xa70>
 800560e:	2339      	movs	r3, #57	; 0x39
 8005610:	9a04      	ldr	r2, [sp, #16]
 8005612:	7013      	strb	r3, [r2, #0]
 8005614:	463b      	mov	r3, r7
 8005616:	461f      	mov	r7, r3
 8005618:	f817 2c01 	ldrb.w	r2, [r7, #-1]
 800561c:	3b01      	subs	r3, #1
 800561e:	2a39      	cmp	r2, #57	; 0x39
 8005620:	d050      	beq.n	80056c4 <_dtoa_r+0xb74>
 8005622:	3201      	adds	r2, #1
 8005624:	701a      	strb	r2, [r3, #0]
 8005626:	e747      	b.n	80054b8 <_dtoa_r+0x968>
 8005628:	2a00      	cmp	r2, #0
 800562a:	dd03      	ble.n	8005634 <_dtoa_r+0xae4>
 800562c:	2b39      	cmp	r3, #57	; 0x39
 800562e:	d0ee      	beq.n	800560e <_dtoa_r+0xabe>
 8005630:	3301      	adds	r3, #1
 8005632:	e7c7      	b.n	80055c4 <_dtoa_r+0xa74>
 8005634:	9a08      	ldr	r2, [sp, #32]
 8005636:	990a      	ldr	r1, [sp, #40]	; 0x28
 8005638:	f802 3c01 	strb.w	r3, [r2, #-1]
 800563c:	428a      	cmp	r2, r1
 800563e:	d02a      	beq.n	8005696 <_dtoa_r+0xb46>
 8005640:	4659      	mov	r1, fp
 8005642:	2300      	movs	r3, #0
 8005644:	220a      	movs	r2, #10
 8005646:	4628      	mov	r0, r5
 8005648:	f000 f8fa 	bl	8005840 <__multadd>
 800564c:	45b0      	cmp	r8, r6
 800564e:	4683      	mov	fp, r0
 8005650:	f04f 0300 	mov.w	r3, #0
 8005654:	f04f 020a 	mov.w	r2, #10
 8005658:	4641      	mov	r1, r8
 800565a:	4628      	mov	r0, r5
 800565c:	d107      	bne.n	800566e <_dtoa_r+0xb1e>
 800565e:	f000 f8ef 	bl	8005840 <__multadd>
 8005662:	4680      	mov	r8, r0
 8005664:	4606      	mov	r6, r0
 8005666:	9b08      	ldr	r3, [sp, #32]
 8005668:	3301      	adds	r3, #1
 800566a:	9308      	str	r3, [sp, #32]
 800566c:	e775      	b.n	800555a <_dtoa_r+0xa0a>
 800566e:	f000 f8e7 	bl	8005840 <__multadd>
 8005672:	4631      	mov	r1, r6
 8005674:	4680      	mov	r8, r0
 8005676:	2300      	movs	r3, #0
 8005678:	220a      	movs	r2, #10
 800567a:	4628      	mov	r0, r5
 800567c:	f000 f8e0 	bl	8005840 <__multadd>
 8005680:	4606      	mov	r6, r0
 8005682:	e7f0      	b.n	8005666 <_dtoa_r+0xb16>
 8005684:	f1b9 0f00 	cmp.w	r9, #0
 8005688:	bfcc      	ite	gt
 800568a:	464f      	movgt	r7, r9
 800568c:	2701      	movle	r7, #1
 800568e:	f04f 0800 	mov.w	r8, #0
 8005692:	9a03      	ldr	r2, [sp, #12]
 8005694:	4417      	add	r7, r2
 8005696:	4659      	mov	r1, fp
 8005698:	2201      	movs	r2, #1
 800569a:	4628      	mov	r0, r5
 800569c:	9308      	str	r3, [sp, #32]
 800569e:	f000 fa7b 	bl	8005b98 <__lshift>
 80056a2:	4621      	mov	r1, r4
 80056a4:	4683      	mov	fp, r0
 80056a6:	f000 fae7 	bl	8005c78 <__mcmp>
 80056aa:	2800      	cmp	r0, #0
 80056ac:	dcb2      	bgt.n	8005614 <_dtoa_r+0xac4>
 80056ae:	d102      	bne.n	80056b6 <_dtoa_r+0xb66>
 80056b0:	9b08      	ldr	r3, [sp, #32]
 80056b2:	07db      	lsls	r3, r3, #31
 80056b4:	d4ae      	bmi.n	8005614 <_dtoa_r+0xac4>
 80056b6:	463b      	mov	r3, r7
 80056b8:	461f      	mov	r7, r3
 80056ba:	f813 2d01 	ldrb.w	r2, [r3, #-1]!
 80056be:	2a30      	cmp	r2, #48	; 0x30
 80056c0:	d0fa      	beq.n	80056b8 <_dtoa_r+0xb68>
 80056c2:	e6f9      	b.n	80054b8 <_dtoa_r+0x968>
 80056c4:	9a03      	ldr	r2, [sp, #12]
 80056c6:	429a      	cmp	r2, r3
 80056c8:	d1a5      	bne.n	8005616 <_dtoa_r+0xac6>
 80056ca:	2331      	movs	r3, #49	; 0x31
 80056cc:	f10a 0a01 	add.w	sl, sl, #1
 80056d0:	e779      	b.n	80055c6 <_dtoa_r+0xa76>
 80056d2:	4b14      	ldr	r3, [pc, #80]	; (8005724 <_dtoa_r+0xbd4>)
 80056d4:	f7ff baa8 	b.w	8004c28 <_dtoa_r+0xd8>
 80056d8:	9b26      	ldr	r3, [sp, #152]	; 0x98
 80056da:	2b00      	cmp	r3, #0
 80056dc:	f47f aa81 	bne.w	8004be2 <_dtoa_r+0x92>
 80056e0:	4b11      	ldr	r3, [pc, #68]	; (8005728 <_dtoa_r+0xbd8>)
 80056e2:	f7ff baa1 	b.w	8004c28 <_dtoa_r+0xd8>
 80056e6:	f1b9 0f00 	cmp.w	r9, #0
 80056ea:	dc03      	bgt.n	80056f4 <_dtoa_r+0xba4>
 80056ec:	9b22      	ldr	r3, [sp, #136]	; 0x88
 80056ee:	2b02      	cmp	r3, #2
 80056f0:	f73f aecb 	bgt.w	800548a <_dtoa_r+0x93a>
 80056f4:	9f03      	ldr	r7, [sp, #12]
 80056f6:	4621      	mov	r1, r4
 80056f8:	4658      	mov	r0, fp
 80056fa:	f7ff f99b 	bl	8004a34 <quorem>
 80056fe:	9a03      	ldr	r2, [sp, #12]
 8005700:	f100 0330 	add.w	r3, r0, #48	; 0x30
 8005704:	f807 3b01 	strb.w	r3, [r7], #1
 8005708:	1aba      	subs	r2, r7, r2
 800570a:	4591      	cmp	r9, r2
 800570c:	ddba      	ble.n	8005684 <_dtoa_r+0xb34>
 800570e:	4659      	mov	r1, fp
 8005710:	2300      	movs	r3, #0
 8005712:	220a      	movs	r2, #10
 8005714:	4628      	mov	r0, r5
 8005716:	f000 f893 	bl	8005840 <__multadd>
 800571a:	4683      	mov	fp, r0
 800571c:	e7eb      	b.n	80056f6 <_dtoa_r+0xba6>
 800571e:	bf00      	nop
 8005720:	08008283 	.word	0x08008283
 8005724:	080081e0 	.word	0x080081e0
 8005728:	08008204 	.word	0x08008204

0800572c <_localeconv_r>:
 800572c:	4800      	ldr	r0, [pc, #0]	; (8005730 <_localeconv_r+0x4>)
 800572e:	4770      	bx	lr
 8005730:	2000019c 	.word	0x2000019c

08005734 <malloc>:
 8005734:	4b02      	ldr	r3, [pc, #8]	; (8005740 <malloc+0xc>)
 8005736:	4601      	mov	r1, r0
 8005738:	6818      	ldr	r0, [r3, #0]
 800573a:	f000 bc1d 	b.w	8005f78 <_malloc_r>
 800573e:	bf00      	nop
 8005740:	20000048 	.word	0x20000048

08005744 <memchr>:
 8005744:	4603      	mov	r3, r0
 8005746:	b510      	push	{r4, lr}
 8005748:	b2c9      	uxtb	r1, r1
 800574a:	4402      	add	r2, r0
 800574c:	4293      	cmp	r3, r2
 800574e:	4618      	mov	r0, r3
 8005750:	d101      	bne.n	8005756 <memchr+0x12>
 8005752:	2000      	movs	r0, #0
 8005754:	e003      	b.n	800575e <memchr+0x1a>
 8005756:	7804      	ldrb	r4, [r0, #0]
 8005758:	3301      	adds	r3, #1
 800575a:	428c      	cmp	r4, r1
 800575c:	d1f6      	bne.n	800574c <memchr+0x8>
 800575e:	bd10      	pop	{r4, pc}

08005760 <memcpy>:
 8005760:	440a      	add	r2, r1
 8005762:	4291      	cmp	r1, r2
 8005764:	f100 33ff 	add.w	r3, r0, #4294967295
 8005768:	d100      	bne.n	800576c <memcpy+0xc>
 800576a:	4770      	bx	lr
 800576c:	b510      	push	{r4, lr}
 800576e:	f811 4b01 	ldrb.w	r4, [r1], #1
 8005772:	4291      	cmp	r1, r2
 8005774:	f803 4f01 	strb.w	r4, [r3, #1]!
 8005778:	d1f9      	bne.n	800576e <memcpy+0xe>
 800577a:	bd10      	pop	{r4, pc}

0800577c <_Balloc>:
 800577c:	b570      	push	{r4, r5, r6, lr}
 800577e:	6a46      	ldr	r6, [r0, #36]	; 0x24
 8005780:	4604      	mov	r4, r0
 8005782:	460d      	mov	r5, r1
 8005784:	b976      	cbnz	r6, 80057a4 <_Balloc+0x28>
 8005786:	2010      	movs	r0, #16
 8005788:	f7ff ffd4 	bl	8005734 <malloc>
 800578c:	4602      	mov	r2, r0
 800578e:	6260      	str	r0, [r4, #36]	; 0x24
 8005790:	b920      	cbnz	r0, 800579c <_Balloc+0x20>
 8005792:	2166      	movs	r1, #102	; 0x66
 8005794:	4b17      	ldr	r3, [pc, #92]	; (80057f4 <_Balloc+0x78>)
 8005796:	4818      	ldr	r0, [pc, #96]	; (80057f8 <_Balloc+0x7c>)
 8005798:	f000 fc72 	bl	8006080 <__assert_func>
 800579c:	e9c0 6601 	strd	r6, r6, [r0, #4]
 80057a0:	6006      	str	r6, [r0, #0]
 80057a2:	60c6      	str	r6, [r0, #12]
 80057a4:	6a66      	ldr	r6, [r4, #36]	; 0x24
 80057a6:	68f3      	ldr	r3, [r6, #12]
 80057a8:	b183      	cbz	r3, 80057cc <_Balloc+0x50>
 80057aa:	6a63      	ldr	r3, [r4, #36]	; 0x24
 80057ac:	68db      	ldr	r3, [r3, #12]
 80057ae:	f853 0025 	ldr.w	r0, [r3, r5, lsl #2]
 80057b2:	b9b8      	cbnz	r0, 80057e4 <_Balloc+0x68>
 80057b4:	2101      	movs	r1, #1
 80057b6:	fa01 f605 	lsl.w	r6, r1, r5
 80057ba:	1d72      	adds	r2, r6, #5
 80057bc:	4620      	mov	r0, r4
 80057be:	0092      	lsls	r2, r2, #2
 80057c0:	f000 fb5e 	bl	8005e80 <_calloc_r>
 80057c4:	b160      	cbz	r0, 80057e0 <_Balloc+0x64>
 80057c6:	e9c0 5601 	strd	r5, r6, [r0, #4]
 80057ca:	e00e      	b.n	80057ea <_Balloc+0x6e>
 80057cc:	2221      	movs	r2, #33	; 0x21
 80057ce:	2104      	movs	r1, #4
 80057d0:	4620      	mov	r0, r4
 80057d2:	f000 fb55 	bl	8005e80 <_calloc_r>
 80057d6:	6a63      	ldr	r3, [r4, #36]	; 0x24
 80057d8:	60f0      	str	r0, [r6, #12]
 80057da:	68db      	ldr	r3, [r3, #12]
 80057dc:	2b00      	cmp	r3, #0
 80057de:	d1e4      	bne.n	80057aa <_Balloc+0x2e>
 80057e0:	2000      	movs	r0, #0
 80057e2:	bd70      	pop	{r4, r5, r6, pc}
 80057e4:	6802      	ldr	r2, [r0, #0]
 80057e6:	f843 2025 	str.w	r2, [r3, r5, lsl #2]
 80057ea:	2300      	movs	r3, #0
 80057ec:	e9c0 3303 	strd	r3, r3, [r0, #12]
 80057f0:	e7f7      	b.n	80057e2 <_Balloc+0x66>
 80057f2:	bf00      	nop
 80057f4:	08008211 	.word	0x08008211
 80057f8:	08008294 	.word	0x08008294

080057fc <_Bfree>:
 80057fc:	b570      	push	{r4, r5, r6, lr}
 80057fe:	6a46      	ldr	r6, [r0, #36]	; 0x24
 8005800:	4605      	mov	r5, r0
 8005802:	460c      	mov	r4, r1
 8005804:	b976      	cbnz	r6, 8005824 <_Bfree+0x28>
 8005806:	2010      	movs	r0, #16
 8005808:	f7ff ff94 	bl	8005734 <malloc>
 800580c:	4602      	mov	r2, r0
 800580e:	6268      	str	r0, [r5, #36]	; 0x24
 8005810:	b920      	cbnz	r0, 800581c <_Bfree+0x20>
 8005812:	218a      	movs	r1, #138	; 0x8a
 8005814:	4b08      	ldr	r3, [pc, #32]	; (8005838 <_Bfree+0x3c>)
 8005816:	4809      	ldr	r0, [pc, #36]	; (800583c <_Bfree+0x40>)
 8005818:	f000 fc32 	bl	8006080 <__assert_func>
 800581c:	e9c0 6601 	strd	r6, r6, [r0, #4]
 8005820:	6006      	str	r6, [r0, #0]
 8005822:	60c6      	str	r6, [r0, #12]
 8005824:	b13c      	cbz	r4, 8005836 <_Bfree+0x3a>
 8005826:	6a6b      	ldr	r3, [r5, #36]	; 0x24
 8005828:	6862      	ldr	r2, [r4, #4]
 800582a:	68db      	ldr	r3, [r3, #12]
 800582c:	f853 1022 	ldr.w	r1, [r3, r2, lsl #2]
 8005830:	6021      	str	r1, [r4, #0]
 8005832:	f843 4022 	str.w	r4, [r3, r2, lsl #2]
 8005836:	bd70      	pop	{r4, r5, r6, pc}
 8005838:	08008211 	.word	0x08008211
 800583c:	08008294 	.word	0x08008294

08005840 <__multadd>:
 8005840:	e92d 41f0 	stmdb	sp!, {r4, r5, r6, r7, r8, lr}
 8005844:	4607      	mov	r7, r0
 8005846:	460c      	mov	r4, r1
 8005848:	461e      	mov	r6, r3
 800584a:	2000      	movs	r0, #0
 800584c:	690d      	ldr	r5, [r1, #16]
 800584e:	f101 0c14 	add.w	ip, r1, #20
 8005852:	f8dc 3000 	ldr.w	r3, [ip]
 8005856:	3001      	adds	r0, #1
 8005858:	b299      	uxth	r1, r3
 800585a:	fb02 6101 	mla	r1, r2, r1, r6
 800585e:	0c1e      	lsrs	r6, r3, #16
 8005860:	0c0b      	lsrs	r3, r1, #16
 8005862:	fb02 3306 	mla	r3, r2, r6, r3
 8005866:	b289      	uxth	r1, r1
 8005868:	eb01 4103 	add.w	r1, r1, r3, lsl #16
 800586c:	4285      	cmp	r5, r0
 800586e:	ea4f 4613 	mov.w	r6, r3, lsr #16
 8005872:	f84c 1b04 	str.w	r1, [ip], #4
 8005876:	dcec      	bgt.n	8005852 <__multadd+0x12>
 8005878:	b30e      	cbz	r6, 80058be <__multadd+0x7e>
 800587a:	68a3      	ldr	r3, [r4, #8]
 800587c:	42ab      	cmp	r3, r5
 800587e:	dc19      	bgt.n	80058b4 <__multadd+0x74>
 8005880:	6861      	ldr	r1, [r4, #4]
 8005882:	4638      	mov	r0, r7
 8005884:	3101      	adds	r1, #1
 8005886:	f7ff ff79 	bl	800577c <_Balloc>
 800588a:	4680      	mov	r8, r0
 800588c:	b928      	cbnz	r0, 800589a <__multadd+0x5a>
 800588e:	4602      	mov	r2, r0
 8005890:	21b5      	movs	r1, #181	; 0xb5
 8005892:	4b0c      	ldr	r3, [pc, #48]	; (80058c4 <__multadd+0x84>)
 8005894:	480c      	ldr	r0, [pc, #48]	; (80058c8 <__multadd+0x88>)
 8005896:	f000 fbf3 	bl	8006080 <__assert_func>
 800589a:	6922      	ldr	r2, [r4, #16]
 800589c:	f104 010c 	add.w	r1, r4, #12
 80058a0:	3202      	adds	r2, #2
 80058a2:	0092      	lsls	r2, r2, #2
 80058a4:	300c      	adds	r0, #12
 80058a6:	f7ff ff5b 	bl	8005760 <memcpy>
 80058aa:	4621      	mov	r1, r4
 80058ac:	4638      	mov	r0, r7
 80058ae:	f7ff ffa5 	bl	80057fc <_Bfree>
 80058b2:	4644      	mov	r4, r8
 80058b4:	eb04 0385 	add.w	r3, r4, r5, lsl #2
 80058b8:	3501      	adds	r5, #1
 80058ba:	615e      	str	r6, [r3, #20]
 80058bc:	6125      	str	r5, [r4, #16]
 80058be:	4620      	mov	r0, r4
 80058c0:	e8bd 81f0 	ldmia.w	sp!, {r4, r5, r6, r7, r8, pc}
 80058c4:	08008283 	.word	0x08008283
 80058c8:	08008294 	.word	0x08008294

080058cc <__hi0bits>:
 80058cc:	0c02      	lsrs	r2, r0, #16
 80058ce:	0412      	lsls	r2, r2, #16
 80058d0:	4603      	mov	r3, r0
 80058d2:	b9ca      	cbnz	r2, 8005908 <__hi0bits+0x3c>
 80058d4:	0403      	lsls	r3, r0, #16
 80058d6:	2010      	movs	r0, #16
 80058d8:	f013 4f7f 	tst.w	r3, #4278190080	; 0xff000000
 80058dc:	bf04      	itt	eq
 80058de:	021b      	lsleq	r3, r3, #8
 80058e0:	3008      	addeq	r0, #8
 80058e2:	f013 4f70 	tst.w	r3, #4026531840	; 0xf0000000
 80058e6:	bf04      	itt	eq
 80058e8:	011b      	lsleq	r3, r3, #4
 80058ea:	3004      	addeq	r0, #4
 80058ec:	f013 4f40 	tst.w	r3, #3221225472	; 0xc0000000
 80058f0:	bf04      	itt	eq
 80058f2:	009b      	lsleq	r3, r3, #2
 80058f4:	3002      	addeq	r0, #2
 80058f6:	2b00      	cmp	r3, #0
 80058f8:	db05      	blt.n	8005906 <__hi0bits+0x3a>
 80058fa:	f013 4f80 	tst.w	r3, #1073741824	; 0x40000000
 80058fe:	f100 0001 	add.w	r0, r0, #1
 8005902:	bf08      	it	eq
 8005904:	2020      	moveq	r0, #32
 8005906:	4770      	bx	lr
 8005908:	2000      	movs	r0, #0
 800590a:	e7e5      	b.n	80058d8 <__hi0bits+0xc>

0800590c <__lo0bits>:
 800590c:	6803      	ldr	r3, [r0, #0]
 800590e:	4602      	mov	r2, r0
 8005910:	f013 0007 	ands.w	r0, r3, #7
 8005914:	d00b      	beq.n	800592e <__lo0bits+0x22>
 8005916:	07d9      	lsls	r1, r3, #31
 8005918:	d421      	bmi.n	800595e <__lo0bits+0x52>
 800591a:	0798      	lsls	r0, r3, #30
 800591c:	bf49      	itett	mi
 800591e:	085b      	lsrmi	r3, r3, #1
 8005920:	089b      	lsrpl	r3, r3, #2
 8005922:	2001      	movmi	r0, #1
 8005924:	6013      	strmi	r3, [r2, #0]
 8005926:	bf5c      	itt	pl
 8005928:	2002      	movpl	r0, #2
 800592a:	6013      	strpl	r3, [r2, #0]
 800592c:	4770      	bx	lr
 800592e:	b299      	uxth	r1, r3
 8005930:	b909      	cbnz	r1, 8005936 <__lo0bits+0x2a>
 8005932:	2010      	movs	r0, #16
 8005934:	0c1b      	lsrs	r3, r3, #16
 8005936:	b2d9      	uxtb	r1, r3
 8005938:	b909      	cbnz	r1, 800593e <__lo0bits+0x32>
 800593a:	3008      	adds	r0, #8
 800593c:	0a1b      	lsrs	r3, r3, #8
 800593e:	0719      	lsls	r1, r3, #28
 8005940:	bf04      	itt	eq
 8005942:	091b      	lsreq	r3, r3, #4
 8005944:	3004      	addeq	r0, #4
 8005946:	0799      	lsls	r1, r3, #30
 8005948:	bf04      	itt	eq
 800594a:	089b      	lsreq	r3, r3, #2
 800594c:	3002      	addeq	r0, #2
 800594e:	07d9      	lsls	r1, r3, #31
 8005950:	d403      	bmi.n	800595a <__lo0bits+0x4e>
 8005952:	085b      	lsrs	r3, r3, #1
 8005954:	f100 0001 	add.w	r0, r0, #1
 8005958:	d003      	beq.n	8005962 <__lo0bits+0x56>
 800595a:	6013      	str	r3, [r2, #0]
 800595c:	4770      	bx	lr
 800595e:	2000      	movs	r0, #0
 8005960:	4770      	bx	lr
 8005962:	2020      	movs	r0, #32
 8005964:	4770      	bx	lr
	...

08005968 <__i2b>:
 8005968:	b510      	push	{r4, lr}
 800596a:	460c      	mov	r4, r1
 800596c:	2101      	movs	r1, #1
 800596e:	f7ff ff05 	bl	800577c <_Balloc>
 8005972:	4602      	mov	r2, r0
 8005974:	b928      	cbnz	r0, 8005982 <__i2b+0x1a>
 8005976:	f44f 71a0 	mov.w	r1, #320	; 0x140
 800597a:	4b04      	ldr	r3, [pc, #16]	; (800598c <__i2b+0x24>)
 800597c:	4804      	ldr	r0, [pc, #16]	; (8005990 <__i2b+0x28>)
 800597e:	f000 fb7f 	bl	8006080 <__assert_func>
 8005982:	2301      	movs	r3, #1
 8005984:	6144      	str	r4, [r0, #20]
 8005986:	6103      	str	r3, [r0, #16]
 8005988:	bd10      	pop	{r4, pc}
 800598a:	bf00      	nop
 800598c:	08008283 	.word	0x08008283
 8005990:	08008294 	.word	0x08008294

08005994 <__multiply>:
 8005994:	e92d 4ff0 	stmdb	sp!, {r4, r5, r6, r7, r8, r9, sl, fp, lr}
 8005998:	4691      	mov	r9, r2
 800599a:	690a      	ldr	r2, [r1, #16]
 800599c:	f8d9 3010 	ldr.w	r3, [r9, #16]
 80059a0:	460c      	mov	r4, r1
 80059a2:	429a      	cmp	r2, r3
 80059a4:	bfbe      	ittt	lt
 80059a6:	460b      	movlt	r3, r1
 80059a8:	464c      	movlt	r4, r9
 80059aa:	4699      	movlt	r9, r3
 80059ac:	6927      	ldr	r7, [r4, #16]
 80059ae:	f8d9 a010 	ldr.w	sl, [r9, #16]
 80059b2:	68a3      	ldr	r3, [r4, #8]
 80059b4:	6861      	ldr	r1, [r4, #4]
 80059b6:	eb07 060a 	add.w	r6, r7, sl
 80059ba:	42b3      	cmp	r3, r6
 80059bc:	b085      	sub	sp, #20
 80059be:	bfb8      	it	lt
 80059c0:	3101      	addlt	r1, #1
 80059c2:	f7ff fedb 	bl	800577c <_Balloc>
 80059c6:	b930      	cbnz	r0, 80059d6 <__multiply+0x42>
 80059c8:	4602      	mov	r2, r0
 80059ca:	f240 115d 	movw	r1, #349	; 0x15d
 80059ce:	4b43      	ldr	r3, [pc, #268]	; (8005adc <__multiply+0x148>)
 80059d0:	4843      	ldr	r0, [pc, #268]	; (8005ae0 <__multiply+0x14c>)
 80059d2:	f000 fb55 	bl	8006080 <__assert_func>
 80059d6:	f100 0514 	add.w	r5, r0, #20
 80059da:	462b      	mov	r3, r5
 80059dc:	2200      	movs	r2, #0
 80059de:	eb05 0886 	add.w	r8, r5, r6, lsl #2
 80059e2:	4543      	cmp	r3, r8
 80059e4:	d321      	bcc.n	8005a2a <__multiply+0x96>
 80059e6:	f104 0314 	add.w	r3, r4, #20
 80059ea:	eb03 0787 	add.w	r7, r3, r7, lsl #2
 80059ee:	f109 0314 	add.w	r3, r9, #20
 80059f2:	eb03 028a 	add.w	r2, r3, sl, lsl #2
 80059f6:	9202      	str	r2, [sp, #8]
 80059f8:	1b3a      	subs	r2, r7, r4
 80059fa:	3a15      	subs	r2, #21
 80059fc:	f022 0203 	bic.w	r2, r2, #3
 8005a00:	3204      	adds	r2, #4
 8005a02:	f104 0115 	add.w	r1, r4, #21
 8005a06:	428f      	cmp	r7, r1
 8005a08:	bf38      	it	cc
 8005a0a:	2204      	movcc	r2, #4
 8005a0c:	9201      	str	r2, [sp, #4]
 8005a0e:	9a02      	ldr	r2, [sp, #8]
 8005a10:	9303      	str	r3, [sp, #12]
 8005a12:	429a      	cmp	r2, r3
 8005a14:	d80c      	bhi.n	8005a30 <__multiply+0x9c>
 8005a16:	2e00      	cmp	r6, #0
 8005a18:	dd03      	ble.n	8005a22 <__multiply+0x8e>
 8005a1a:	f858 3d04 	ldr.w	r3, [r8, #-4]!
 8005a1e:	2b00      	cmp	r3, #0
 8005a20:	d059      	beq.n	8005ad6 <__multiply+0x142>
 8005a22:	6106      	str	r6, [r0, #16]
 8005a24:	b005      	add	sp, #20
 8005a26:	e8bd 8ff0 	ldmia.w	sp!, {r4, r5, r6, r7, r8, r9, sl, fp, pc}
 8005a2a:	f843 2b04 	str.w	r2, [r3], #4
 8005a2e:	e7d8      	b.n	80059e2 <__multiply+0x4e>
 8005a30:	f8b3 a000 	ldrh.w	sl, [r3]
 8005a34:	f1ba 0f00 	cmp.w	sl, #0
 8005a38:	d023      	beq.n	8005a82 <__multiply+0xee>
 8005a3a:	46a9      	mov	r9, r5
 8005a3c:	f04f 0c00 	mov.w	ip, #0
 8005a40:	f104 0e14 	add.w	lr, r4, #20
 8005a44:	f85e 2b04 	ldr.w	r2, [lr], #4
 8005a48:	f8d9 1000 	ldr.w	r1, [r9]
 8005a4c:	fa1f fb82 	uxth.w	fp, r2
 8005a50:	b289      	uxth	r1, r1
 8005a52:	fb0a 110b 	mla	r1, sl, fp, r1
 8005a56:	4461      	add	r1, ip
 8005a58:	f8d9 c000 	ldr.w	ip, [r9]
 8005a5c:	0c12      	lsrs	r2, r2, #16
 8005a5e:	ea4f 4c1c 	mov.w	ip, ip, lsr #16
 8005a62:	fb0a c202 	mla	r2, sl, r2, ip
 8005a66:	eb02 4211 	add.w	r2, r2, r1, lsr #16
 8005a6a:	b289      	uxth	r1, r1
 8005a6c:	ea41 4102 	orr.w	r1, r1, r2, lsl #16
 8005a70:	4577      	cmp	r7, lr
 8005a72:	ea4f 4c12 	mov.w	ip, r2, lsr #16
 8005a76:	f849 1b04 	str.w	r1, [r9], #4
 8005a7a:	d8e3      	bhi.n	8005a44 <__multiply+0xb0>
 8005a7c:	9a01      	ldr	r2, [sp, #4]
 8005a7e:	f845 c002 	str.w	ip, [r5, r2]
 8005a82:	9a03      	ldr	r2, [sp, #12]
 8005a84:	3304      	adds	r3, #4
 8005a86:	f8b2 9002 	ldrh.w	r9, [r2, #2]
 8005a8a:	f1b9 0f00 	cmp.w	r9, #0
 8005a8e:	d020      	beq.n	8005ad2 <__multiply+0x13e>
 8005a90:	46ae      	mov	lr, r5
 8005a92:	f04f 0a00 	mov.w	sl, #0
 8005a96:	6829      	ldr	r1, [r5, #0]
 8005a98:	f104 0c14 	add.w	ip, r4, #20
 8005a9c:	f8bc b000 	ldrh.w	fp, [ip]
 8005aa0:	f8be 2002 	ldrh.w	r2, [lr, #2]
 8005aa4:	b289      	uxth	r1, r1
 8005aa6:	fb09 220b 	mla	r2, r9, fp, r2
 8005aaa:	4492      	add	sl, r2
 8005aac:	ea41 410a 	orr.w	r1, r1, sl, lsl #16
 8005ab0:	f84e 1b04 	str.w	r1, [lr], #4
 8005ab4:	f85c 2b04 	ldr.w	r2, [ip], #4
 8005ab8:	f8be 1000 	ldrh.w	r1, [lr]
 8005abc:	0c12      	lsrs	r2, r2, #16
 8005abe:	fb09 1102 	mla	r1, r9, r2, r1
 8005ac2:	4567      	cmp	r7, ip
 8005ac4:	eb01 411a 	add.w	r1, r1, sl, lsr #16
 8005ac8:	ea4f 4a11 	mov.w	sl, r1, lsr #16
 8005acc:	d8e6      	bhi.n	8005a9c <__multiply+0x108>
 8005ace:	9a01      	ldr	r2, [sp, #4]
 8005ad0:	50a9      	str	r1, [r5, r2]
 8005ad2:	3504      	adds	r5, #4
 8005ad4:	e79b      	b.n	8005a0e <__multiply+0x7a>
 8005ad6:	3e01      	subs	r6, #1
 8005ad8:	e79d      	b.n	8005a16 <__multiply+0x82>
 8005ada:	bf00      	nop
 8005adc:	08008283 	.word	0x08008283
 8005ae0:	08008294 	.word	0x08008294

08005ae4 <__pow5mult>:
 8005ae4:	e92d 43f8 	stmdb	sp!, {r3, r4, r5, r6, r7, r8, r9, lr}
 8005ae8:	4615      	mov	r5, r2
 8005aea:	f012 0203 	ands.w	r2, r2, #3
 8005aee:	4606      	mov	r6, r0
 8005af0:	460f      	mov	r7, r1
 8005af2:	d007      	beq.n	8005b04 <__pow5mult+0x20>
 8005af4:	4c25      	ldr	r4, [pc, #148]	; (8005b8c <__pow5mult+0xa8>)
 8005af6:	3a01      	subs	r2, #1
 8005af8:	2300      	movs	r3, #0
 8005afa:	f854 2022 	ldr.w	r2, [r4, r2, lsl #2]
 8005afe:	f7ff fe9f 	bl	8005840 <__multadd>
 8005b02:	4607      	mov	r7, r0
 8005b04:	10ad      	asrs	r5, r5, #2
 8005b06:	d03d      	beq.n	8005b84 <__pow5mult+0xa0>
 8005b08:	6a74      	ldr	r4, [r6, #36]	; 0x24
 8005b0a:	b97c      	cbnz	r4, 8005b2c <__pow5mult+0x48>
 8005b0c:	2010      	movs	r0, #16
 8005b0e:	f7ff fe11 	bl	8005734 <malloc>
 8005b12:	4602      	mov	r2, r0
 8005b14:	6270      	str	r0, [r6, #36]	; 0x24
 8005b16:	b928      	cbnz	r0, 8005b24 <__pow5mult+0x40>
 8005b18:	f44f 71d7 	mov.w	r1, #430	; 0x1ae
 8005b1c:	4b1c      	ldr	r3, [pc, #112]	; (8005b90 <__pow5mult+0xac>)
 8005b1e:	481d      	ldr	r0, [pc, #116]	; (8005b94 <__pow5mult+0xb0>)
 8005b20:	f000 faae 	bl	8006080 <__assert_func>
 8005b24:	e9c0 4401 	strd	r4, r4, [r0, #4]
 8005b28:	6004      	str	r4, [r0, #0]
 8005b2a:	60c4      	str	r4, [r0, #12]
 8005b2c:	f8d6 8024 	ldr.w	r8, [r6, #36]	; 0x24
 8005b30:	f8d8 4008 	ldr.w	r4, [r8, #8]
 8005b34:	b94c      	cbnz	r4, 8005b4a <__pow5mult+0x66>
 8005b36:	f240 2171 	movw	r1, #625	; 0x271
 8005b3a:	4630      	mov	r0, r6
 8005b3c:	f7ff ff14 	bl	8005968 <__i2b>
 8005b40:	2300      	movs	r3, #0
 8005b42:	4604      	mov	r4, r0
 8005b44:	f8c8 0008 	str.w	r0, [r8, #8]
 8005b48:	6003      	str	r3, [r0, #0]
 8005b4a:	f04f 0900 	mov.w	r9, #0
 8005b4e:	07eb      	lsls	r3, r5, #31
 8005b50:	d50a      	bpl.n	8005b68 <__pow5mult+0x84>
 8005b52:	4639      	mov	r1, r7
 8005b54:	4622      	mov	r2, r4
 8005b56:	4630      	mov	r0, r6
 8005b58:	f7ff ff1c 	bl	8005994 <__multiply>
 8005b5c:	4680      	mov	r8, r0
 8005b5e:	4639      	mov	r1, r7
 8005b60:	4630      	mov	r0, r6
 8005b62:	f7ff fe4b 	bl	80057fc <_Bfree>
 8005b66:	4647      	mov	r7, r8
 8005b68:	106d      	asrs	r5, r5, #1
 8005b6a:	d00b      	beq.n	8005b84 <__pow5mult+0xa0>
 8005b6c:	6820      	ldr	r0, [r4, #0]
 8005b6e:	b938      	cbnz	r0, 8005b80 <__pow5mult+0x9c>
 8005b70:	4622      	mov	r2, r4
 8005b72:	4621      	mov	r1, r4
 8005b74:	4630      	mov	r0, r6
 8005b76:	f7ff ff0d 	bl	8005994 <__multiply>
 8005b7a:	6020      	str	r0, [r4, #0]
 8005b7c:	f8c0 9000 	str.w	r9, [r0]
 8005b80:	4604      	mov	r4, r0
 8005b82:	e7e4      	b.n	8005b4e <__pow5mult+0x6a>
 8005b84:	4638      	mov	r0, r7
 8005b86:	e8bd 83f8 	ldmia.w	sp!, {r3, r4, r5, r6, r7, r8, r9, pc}
 8005b8a:	bf00      	nop
 8005b8c:	080083e0 	.word	0x080083e0
 8005b90:	08008211 	.word	0x08008211
 8005b94:	08008294 	.word	0x08008294

08005b98 <__lshift>:
 8005b98:	e92d 47f0 	stmdb	sp!, {r4, r5, r6, r7, r8, r9, sl, lr}
 8005b9c:	460c      	mov	r4, r1
 8005b9e:	4607      	mov	r7, r0
 8005ba0:	4691      	mov	r9, r2
 8005ba2:	6923      	ldr	r3, [r4, #16]
 8005ba4:	6849      	ldr	r1, [r1, #4]
 8005ba6:	eb03 1862 	add.w	r8, r3, r2, asr #5
 8005baa:	68a3      	ldr	r3, [r4, #8]
 8005bac:	ea4f 1a62 	mov.w	sl, r2, asr #5
 8005bb0:	f108 0601 	add.w	r6, r8, #1
 8005bb4:	42b3      	cmp	r3, r6
 8005bb6:	db0b      	blt.n	8005bd0 <__lshift+0x38>
 8005bb8:	4638      	mov	r0, r7
 8005bba:	f7ff fddf 	bl	800577c <_Balloc>
 8005bbe:	4605      	mov	r5, r0
 8005bc0:	b948      	cbnz	r0, 8005bd6 <__lshift+0x3e>
 8005bc2:	4602      	mov	r2, r0
 8005bc4:	f240 11d9 	movw	r1, #473	; 0x1d9
 8005bc8:	4b29      	ldr	r3, [pc, #164]	; (8005c70 <__lshift+0xd8>)
 8005bca:	482a      	ldr	r0, [pc, #168]	; (8005c74 <__lshift+0xdc>)
 8005bcc:	f000 fa58 	bl	8006080 <__assert_func>
 8005bd0:	3101      	adds	r1, #1
 8005bd2:	005b      	lsls	r3, r3, #1
 8005bd4:	e7ee      	b.n	8005bb4 <__lshift+0x1c>
 8005bd6:	2300      	movs	r3, #0
 8005bd8:	f100 0114 	add.w	r1, r0, #20
 8005bdc:	f100 0210 	add.w	r2, r0, #16
 8005be0:	4618      	mov	r0, r3
 8005be2:	4553      	cmp	r3, sl
 8005be4:	db37      	blt.n	8005c56 <__lshift+0xbe>
 8005be6:	6920      	ldr	r0, [r4, #16]
 8005be8:	ea2a 7aea 	bic.w	sl, sl, sl, asr #31
 8005bec:	f104 0314 	add.w	r3, r4, #20
 8005bf0:	f019 091f 	ands.w	r9, r9, #31
 8005bf4:	eb01 018a 	add.w	r1, r1, sl, lsl #2
 8005bf8:	eb03 0080 	add.w	r0, r3, r0, lsl #2
 8005bfc:	d02f      	beq.n	8005c5e <__lshift+0xc6>
 8005bfe:	468a      	mov	sl, r1
 8005c00:	f04f 0c00 	mov.w	ip, #0
 8005c04:	f1c9 0e20 	rsb	lr, r9, #32
 8005c08:	681a      	ldr	r2, [r3, #0]
 8005c0a:	fa02 f209 	lsl.w	r2, r2, r9
 8005c0e:	ea42 020c 	orr.w	r2, r2, ip
 8005c12:	f84a 2b04 	str.w	r2, [sl], #4
 8005c16:	f853 2b04 	ldr.w	r2, [r3], #4
 8005c1a:	4298      	cmp	r0, r3
 8005c1c:	fa22 fc0e 	lsr.w	ip, r2, lr
 8005c20:	d8f2      	bhi.n	8005c08 <__lshift+0x70>
 8005c22:	1b03      	subs	r3, r0, r4
 8005c24:	3b15      	subs	r3, #21
 8005c26:	f023 0303 	bic.w	r3, r3, #3
 8005c2a:	3304      	adds	r3, #4
 8005c2c:	f104 0215 	add.w	r2, r4, #21
 8005c30:	4290      	cmp	r0, r2
 8005c32:	bf38      	it	cc
 8005c34:	2304      	movcc	r3, #4
 8005c36:	f841 c003 	str.w	ip, [r1, r3]
 8005c3a:	f1bc 0f00 	cmp.w	ip, #0
 8005c3e:	d001      	beq.n	8005c44 <__lshift+0xac>
 8005c40:	f108 0602 	add.w	r6, r8, #2
 8005c44:	3e01      	subs	r6, #1
 8005c46:	4638      	mov	r0, r7
 8005c48:	4621      	mov	r1, r4
 8005c4a:	612e      	str	r6, [r5, #16]
 8005c4c:	f7ff fdd6 	bl	80057fc <_Bfree>
 8005c50:	4628      	mov	r0, r5
 8005c52:	e8bd 87f0 	ldmia.w	sp!, {r4, r5, r6, r7, r8, r9, sl, pc}
 8005c56:	f842 0f04 	str.w	r0, [r2, #4]!
 8005c5a:	3301      	adds	r3, #1
 8005c5c:	e7c1      	b.n	8005be2 <__lshift+0x4a>
 8005c5e:	3904      	subs	r1, #4
 8005c60:	f853 2b04 	ldr.w	r2, [r3], #4
 8005c64:	4298      	cmp	r0, r3
 8005c66:	f841 2f04 	str.w	r2, [r1, #4]!
 8005c6a:	d8f9      	bhi.n	8005c60 <__lshift+0xc8>
 8005c6c:	e7ea      	b.n	8005c44 <__lshift+0xac>
 8005c6e:	bf00      	nop
 8005c70:	08008283 	.word	0x08008283
 8005c74:	08008294 	.word	0x08008294

08005c78 <__mcmp>:
 8005c78:	4603      	mov	r3, r0
 8005c7a:	690a      	ldr	r2, [r1, #16]
 8005c7c:	6900      	ldr	r0, [r0, #16]
 8005c7e:	b530      	push	{r4, r5, lr}
 8005c80:	1a80      	subs	r0, r0, r2
 8005c82:	d10d      	bne.n	8005ca0 <__mcmp+0x28>
 8005c84:	3314      	adds	r3, #20
 8005c86:	3114      	adds	r1, #20
 8005c88:	eb03 0482 	add.w	r4, r3, r2, lsl #2
 8005c8c:	eb01 0182 	add.w	r1, r1, r2, lsl #2
 8005c90:	f854 5d04 	ldr.w	r5, [r4, #-4]!
 8005c94:	f851 2d04 	ldr.w	r2, [r1, #-4]!
 8005c98:	4295      	cmp	r5, r2
 8005c9a:	d002      	beq.n	8005ca2 <__mcmp+0x2a>
 8005c9c:	d304      	bcc.n	8005ca8 <__mcmp+0x30>
 8005c9e:	2001      	movs	r0, #1
 8005ca0:	bd30      	pop	{r4, r5, pc}
 8005ca2:	42a3      	cmp	r3, r4
 8005ca4:	d3f4      	bcc.n	8005c90 <__mcmp+0x18>
 8005ca6:	e7fb      	b.n	8005ca0 <__mcmp+0x28>
 8005ca8:	f04f 30ff 	mov.w	r0, #4294967295
 8005cac:	e7f8      	b.n	8005ca0 <__mcmp+0x28>
	...

08005cb0 <__mdiff>:
 8005cb0:	e92d 4ff8 	stmdb	sp!, {r3, r4, r5, r6, r7, r8, r9, sl, fp, lr}
 8005cb4:	460d      	mov	r5, r1
 8005cb6:	4607      	mov	r7, r0
 8005cb8:	4611      	mov	r1, r2
 8005cba:	4628      	mov	r0, r5
 8005cbc:	4614      	mov	r4, r2
 8005cbe:	f7ff ffdb 	bl	8005c78 <__mcmp>
 8005cc2:	1e06      	subs	r6, r0, #0
 8005cc4:	d111      	bne.n	8005cea <__mdiff+0x3a>
 8005cc6:	4631      	mov	r1, r6
 8005cc8:	4638      	mov	r0, r7
 8005cca:	f7ff fd57 	bl	800577c <_Balloc>
 8005cce:	4602      	mov	r2, r0
 8005cd0:	b928      	cbnz	r0, 8005cde <__mdiff+0x2e>
 8005cd2:	f240 2132 	movw	r1, #562	; 0x232
 8005cd6:	4b3a      	ldr	r3, [pc, #232]	; (8005dc0 <__mdiff+0x110>)
 8005cd8:	483a      	ldr	r0, [pc, #232]	; (8005dc4 <__mdiff+0x114>)
 8005cda:	f000 f9d1 	bl	8006080 <__assert_func>
 8005cde:	2301      	movs	r3, #1
 8005ce0:	e9c0 3604 	strd	r3, r6, [r0, #16]
 8005ce4:	4610      	mov	r0, r2
 8005ce6:	e8bd 8ff8 	ldmia.w	sp!, {r3, r4, r5, r6, r7, r8, r9, sl, fp, pc}
 8005cea:	bfa4      	itt	ge
 8005cec:	4623      	movge	r3, r4
 8005cee:	462c      	movge	r4, r5
 8005cf0:	4638      	mov	r0, r7
 8005cf2:	6861      	ldr	r1, [r4, #4]
 8005cf4:	bfa6      	itte	ge
 8005cf6:	461d      	movge	r5, r3
 8005cf8:	2600      	movge	r6, #0
 8005cfa:	2601      	movlt	r6, #1
 8005cfc:	f7ff fd3e 	bl	800577c <_Balloc>
 8005d00:	4602      	mov	r2, r0
 8005d02:	b918      	cbnz	r0, 8005d0c <__mdiff+0x5c>
 8005d04:	f44f 7110 	mov.w	r1, #576	; 0x240
 8005d08:	4b2d      	ldr	r3, [pc, #180]	; (8005dc0 <__mdiff+0x110>)
 8005d0a:	e7e5      	b.n	8005cd8 <__mdiff+0x28>
 8005d0c:	f102 0814 	add.w	r8, r2, #20
 8005d10:	46c2      	mov	sl, r8
 8005d12:	f04f 0c00 	mov.w	ip, #0
 8005d16:	6927      	ldr	r7, [r4, #16]
 8005d18:	60c6      	str	r6, [r0, #12]
 8005d1a:	692e      	ldr	r6, [r5, #16]
 8005d1c:	f104 0014 	add.w	r0, r4, #20
 8005d20:	f105 0914 	add.w	r9, r5, #20
 8005d24:	eb00 0e87 	add.w	lr, r0, r7, lsl #2
 8005d28:	eb09 0686 	add.w	r6, r9, r6, lsl #2
 8005d2c:	3410      	adds	r4, #16
 8005d2e:	f854 bf04 	ldr.w	fp, [r4, #4]!
 8005d32:	f859 3b04 	ldr.w	r3, [r9], #4
 8005d36:	fa1f f18b 	uxth.w	r1, fp
 8005d3a:	448c      	add	ip, r1
 8005d3c:	b299      	uxth	r1, r3
 8005d3e:	0c1b      	lsrs	r3, r3, #16
 8005d40:	ebac 0101 	sub.w	r1, ip, r1
 8005d44:	ebc3 431b 	rsb	r3, r3, fp, lsr #16
 8005d48:	eb03 4321 	add.w	r3, r3, r1, asr #16
 8005d4c:	b289      	uxth	r1, r1
 8005d4e:	ea4f 4c23 	mov.w	ip, r3, asr #16
 8005d52:	454e      	cmp	r6, r9
 8005d54:	ea41 4303 	orr.w	r3, r1, r3, lsl #16
 8005d58:	f84a 3b04 	str.w	r3, [sl], #4
 8005d5c:	d8e7      	bhi.n	8005d2e <__mdiff+0x7e>
 8005d5e:	1b73      	subs	r3, r6, r5
 8005d60:	3b15      	subs	r3, #21
 8005d62:	f023 0303 	bic.w	r3, r3, #3
 8005d66:	3515      	adds	r5, #21
 8005d68:	3304      	adds	r3, #4
 8005d6a:	42ae      	cmp	r6, r5
 8005d6c:	bf38      	it	cc
 8005d6e:	2304      	movcc	r3, #4
 8005d70:	4418      	add	r0, r3
 8005d72:	4443      	add	r3, r8
 8005d74:	461e      	mov	r6, r3
 8005d76:	4605      	mov	r5, r0
 8005d78:	4575      	cmp	r5, lr
 8005d7a:	d30e      	bcc.n	8005d9a <__mdiff+0xea>
 8005d7c:	f10e 0103 	add.w	r1, lr, #3
 8005d80:	1a09      	subs	r1, r1, r0
 8005d82:	f021 0103 	bic.w	r1, r1, #3
 8005d86:	3803      	subs	r0, #3
 8005d88:	4586      	cmp	lr, r0
 8005d8a:	bf38      	it	cc
 8005d8c:	2100      	movcc	r1, #0
 8005d8e:	4419      	add	r1, r3
 8005d90:	f851 3d04 	ldr.w	r3, [r1, #-4]!
 8005d94:	b18b      	cbz	r3, 8005dba <__mdiff+0x10a>
 8005d96:	6117      	str	r7, [r2, #16]
 8005d98:	e7a4      	b.n	8005ce4 <__mdiff+0x34>
 8005d9a:	f855 8b04 	ldr.w	r8, [r5], #4
 8005d9e:	fa1f f188 	uxth.w	r1, r8
 8005da2:	4461      	add	r1, ip
 8005da4:	140c      	asrs	r4, r1, #16
 8005da6:	eb04 4418 	add.w	r4, r4, r8, lsr #16
 8005daa:	b289      	uxth	r1, r1
 8005dac:	ea41 4104 	orr.w	r1, r1, r4, lsl #16
 8005db0:	ea4f 4c24 	mov.w	ip, r4, asr #16
 8005db4:	f846 1b04 	str.w	r1, [r6], #4
 8005db8:	e7de      	b.n	8005d78 <__mdiff+0xc8>
 8005dba:	3f01      	subs	r7, #1
 8005dbc:	e7e8      	b.n	8005d90 <__mdiff+0xe0>
 8005dbe:	bf00      	nop
 8005dc0:	08008283 	.word	0x08008283
 8005dc4:	08008294 	.word	0x08008294

08005dc8 <__d2b>:
 8005dc8:	e92d 41f3 	stmdb	sp!, {r0, r1, r4, r5, r6, r7, r8, lr}
 8005dcc:	2101      	movs	r1, #1
 8005dce:	e9dd 7608 	ldrd	r7, r6, [sp, #32]
 8005dd2:	4690      	mov	r8, r2
 8005dd4:	461d      	mov	r5, r3
 8005dd6:	f7ff fcd1 	bl	800577c <_Balloc>
 8005dda:	4604      	mov	r4, r0
 8005ddc:	b930      	cbnz	r0, 8005dec <__d2b+0x24>
 8005dde:	4602      	mov	r2, r0
 8005de0:	f240 310a 	movw	r1, #778	; 0x30a
 8005de4:	4b24      	ldr	r3, [pc, #144]	; (8005e78 <__d2b+0xb0>)
 8005de6:	4825      	ldr	r0, [pc, #148]	; (8005e7c <__d2b+0xb4>)
 8005de8:	f000 f94a 	bl	8006080 <__assert_func>
 8005dec:	f3c5 0313 	ubfx	r3, r5, #0, #20
 8005df0:	f3c5 550a 	ubfx	r5, r5, #20, #11
 8005df4:	bb2d      	cbnz	r5, 8005e42 <__d2b+0x7a>
 8005df6:	9301      	str	r3, [sp, #4]
 8005df8:	f1b8 0300 	subs.w	r3, r8, #0
 8005dfc:	d026      	beq.n	8005e4c <__d2b+0x84>
 8005dfe:	4668      	mov	r0, sp
 8005e00:	9300      	str	r3, [sp, #0]
 8005e02:	f7ff fd83 	bl	800590c <__lo0bits>
 8005e06:	9900      	ldr	r1, [sp, #0]
 8005e08:	b1f0      	cbz	r0, 8005e48 <__d2b+0x80>
 8005e0a:	9a01      	ldr	r2, [sp, #4]
 8005e0c:	f1c0 0320 	rsb	r3, r0, #32
 8005e10:	fa02 f303 	lsl.w	r3, r2, r3
 8005e14:	430b      	orrs	r3, r1
 8005e16:	40c2      	lsrs	r2, r0
 8005e18:	6163      	str	r3, [r4, #20]
 8005e1a:	9201      	str	r2, [sp, #4]
 8005e1c:	9b01      	ldr	r3, [sp, #4]
 8005e1e:	2b00      	cmp	r3, #0
 8005e20:	bf14      	ite	ne
 8005e22:	2102      	movne	r1, #2
 8005e24:	2101      	moveq	r1, #1
 8005e26:	61a3      	str	r3, [r4, #24]
 8005e28:	6121      	str	r1, [r4, #16]
 8005e2a:	b1c5      	cbz	r5, 8005e5e <__d2b+0x96>
 8005e2c:	f2a5 4533 	subw	r5, r5, #1075	; 0x433
 8005e30:	4405      	add	r5, r0
 8005e32:	f1c0 0035 	rsb	r0, r0, #53	; 0x35
 8005e36:	603d      	str	r5, [r7, #0]
 8005e38:	6030      	str	r0, [r6, #0]
 8005e3a:	4620      	mov	r0, r4
 8005e3c:	b002      	add	sp, #8
 8005e3e:	e8bd 81f0 	ldmia.w	sp!, {r4, r5, r6, r7, r8, pc}
 8005e42:	f443 1380 	orr.w	r3, r3, #1048576	; 0x100000
 8005e46:	e7d6      	b.n	8005df6 <__d2b+0x2e>
 8005e48:	6161      	str	r1, [r4, #20]
 8005e4a:	e7e7      	b.n	8005e1c <__d2b+0x54>
 8005e4c:	a801      	add	r0, sp, #4
 8005e4e:	f7ff fd5d 	bl	800590c <__lo0bits>
 8005e52:	2101      	movs	r1, #1
 8005e54:	9b01      	ldr	r3, [sp, #4]
 8005e56:	6121      	str	r1, [r4, #16]
 8005e58:	6163      	str	r3, [r4, #20]
 8005e5a:	3020      	adds	r0, #32
 8005e5c:	e7e5      	b.n	8005e2a <__d2b+0x62>
 8005e5e:	eb04 0381 	add.w	r3, r4, r1, lsl #2
 8005e62:	f2a0 4032 	subw	r0, r0, #1074	; 0x432
 8005e66:	6038      	str	r0, [r7, #0]
 8005e68:	6918      	ldr	r0, [r3, #16]
 8005e6a:	f7ff fd2f 	bl	80058cc <__hi0bits>
 8005e6e:	ebc0 1141 	rsb	r1, r0, r1, lsl #5
 8005e72:	6031      	str	r1, [r6, #0]
 8005e74:	e7e1      	b.n	8005e3a <__d2b+0x72>
 8005e76:	bf00      	nop
 8005e78:	08008283 	.word	0x08008283
 8005e7c:	08008294 	.word	0x08008294

08005e80 <_calloc_r>:
 8005e80:	b570      	push	{r4, r5, r6, lr}
 8005e82:	fba1 5402 	umull	r5, r4, r1, r2
 8005e86:	b934      	cbnz	r4, 8005e96 <_calloc_r+0x16>
 8005e88:	4629      	mov	r1, r5
 8005e8a:	f000 f875 	bl	8005f78 <_malloc_r>
 8005e8e:	4606      	mov	r6, r0
 8005e90:	b928      	cbnz	r0, 8005e9e <_calloc_r+0x1e>
 8005e92:	4630      	mov	r0, r6
 8005e94:	bd70      	pop	{r4, r5, r6, pc}
 8005e96:	220c      	movs	r2, #12
 8005e98:	2600      	movs	r6, #0
 8005e9a:	6002      	str	r2, [r0, #0]
 8005e9c:	e7f9      	b.n	8005e92 <_calloc_r+0x12>
 8005e9e:	462a      	mov	r2, r5
 8005ea0:	4621      	mov	r1, r4
 8005ea2:	f7fe f95f 	bl	8004164 <memset>
 8005ea6:	e7f4      	b.n	8005e92 <_calloc_r+0x12>

08005ea8 <_free_r>:
 8005ea8:	b538      	push	{r3, r4, r5, lr}
 8005eaa:	4605      	mov	r5, r0
 8005eac:	2900      	cmp	r1, #0
 8005eae:	d040      	beq.n	8005f32 <_free_r+0x8a>
 8005eb0:	f851 3c04 	ldr.w	r3, [r1, #-4]
 8005eb4:	1f0c      	subs	r4, r1, #4
 8005eb6:	2b00      	cmp	r3, #0
 8005eb8:	bfb8      	it	lt
 8005eba:	18e4      	addlt	r4, r4, r3
 8005ebc:	f000 f922 	bl	8006104 <__malloc_lock>
 8005ec0:	4a1c      	ldr	r2, [pc, #112]	; (8005f34 <_free_r+0x8c>)
 8005ec2:	6813      	ldr	r3, [r2, #0]
 8005ec4:	b933      	cbnz	r3, 8005ed4 <_free_r+0x2c>
 8005ec6:	6063      	str	r3, [r4, #4]
 8005ec8:	6014      	str	r4, [r2, #0]
 8005eca:	4628      	mov	r0, r5
 8005ecc:	e8bd 4038 	ldmia.w	sp!, {r3, r4, r5, lr}
 8005ed0:	f000 b91e 	b.w	8006110 <__malloc_unlock>
 8005ed4:	42a3      	cmp	r3, r4
 8005ed6:	d908      	bls.n	8005eea <_free_r+0x42>
 8005ed8:	6820      	ldr	r0, [r4, #0]
 8005eda:	1821      	adds	r1, r4, r0
 8005edc:	428b      	cmp	r3, r1
 8005ede:	bf01      	itttt	eq
 8005ee0:	6819      	ldreq	r1, [r3, #0]
 8005ee2:	685b      	ldreq	r3, [r3, #4]
 8005ee4:	1809      	addeq	r1, r1, r0
 8005ee6:	6021      	streq	r1, [r4, #0]
 8005ee8:	e7ed      	b.n	8005ec6 <_free_r+0x1e>
 8005eea:	461a      	mov	r2, r3
 8005eec:	685b      	ldr	r3, [r3, #4]
 8005eee:	b10b      	cbz	r3, 8005ef4 <_free_r+0x4c>
 8005ef0:	42a3      	cmp	r3, r4
 8005ef2:	d9fa      	bls.n	8005eea <_free_r+0x42>
 8005ef4:	6811      	ldr	r1, [r2, #0]
 8005ef6:	1850      	adds	r0, r2, r1
 8005ef8:	42a0      	cmp	r0, r4
 8005efa:	d10b      	bne.n	8005f14 <_free_r+0x6c>
 8005efc:	6820      	ldr	r0, [r4, #0]
 8005efe:	4401      	add	r1, r0
 8005f00:	1850      	adds	r0, r2, r1
 8005f02:	4283      	cmp	r3, r0
 8005f04:	6011      	str	r1, [r2, #0]
 8005f06:	d1e0      	bne.n	8005eca <_free_r+0x22>
 8005f08:	6818      	ldr	r0, [r3, #0]
 8005f0a:	685b      	ldr	r3, [r3, #4]
 8005f0c:	4401      	add	r1, r0
 8005f0e:	6011      	str	r1, [r2, #0]
 8005f10:	6053      	str	r3, [r2, #4]
 8005f12:	e7da      	b.n	8005eca <_free_r+0x22>
 8005f14:	d902      	bls.n	8005f1c <_free_r+0x74>
 8005f16:	230c      	movs	r3, #12
 8005f18:	602b      	str	r3, [r5, #0]
 8005f1a:	e7d6      	b.n	8005eca <_free_r+0x22>
 8005f1c:	6820      	ldr	r0, [r4, #0]
 8005f1e:	1821      	adds	r1, r4, r0
 8005f20:	428b      	cmp	r3, r1
 8005f22:	bf01      	itttt	eq
 8005f24:	6819      	ldreq	r1, [r3, #0]
 8005f26:	685b      	ldreq	r3, [r3, #4]
 8005f28:	1809      	addeq	r1, r1, r0
 8005f2a:	6021      	streq	r1, [r4, #0]
 8005f2c:	6063      	str	r3, [r4, #4]
 8005f2e:	6054      	str	r4, [r2, #4]
 8005f30:	e7cb      	b.n	8005eca <_free_r+0x22>
 8005f32:	bd38      	pop	{r3, r4, r5, pc}
 8005f34:	2000044c 	.word	0x2000044c

08005f38 <sbrk_aligned>:
 8005f38:	b570      	push	{r4, r5, r6, lr}
 8005f3a:	4e0e      	ldr	r6, [pc, #56]	; (8005f74 <sbrk_aligned+0x3c>)
 8005f3c:	460c      	mov	r4, r1
 8005f3e:	6831      	ldr	r1, [r6, #0]
 8005f40:	4605      	mov	r5, r0
 8005f42:	b911      	cbnz	r1, 8005f4a <sbrk_aligned+0x12>
 8005f44:	f000 f88c 	bl	8006060 <_sbrk_r>
 8005f48:	6030      	str	r0, [r6, #0]
 8005f4a:	4621      	mov	r1, r4
 8005f4c:	4628      	mov	r0, r5
 8005f4e:	f000 f887 	bl	8006060 <_sbrk_r>
 8005f52:	1c43      	adds	r3, r0, #1
 8005f54:	d00a      	beq.n	8005f6c <sbrk_aligned+0x34>
 8005f56:	1cc4      	adds	r4, r0, #3
 8005f58:	f024 0403 	bic.w	r4, r4, #3
 8005f5c:	42a0      	cmp	r0, r4
 8005f5e:	d007      	beq.n	8005f70 <sbrk_aligned+0x38>
 8005f60:	1a21      	subs	r1, r4, r0
 8005f62:	4628      	mov	r0, r5
 8005f64:	f000 f87c 	bl	8006060 <_sbrk_r>
 8005f68:	3001      	adds	r0, #1
 8005f6a:	d101      	bne.n	8005f70 <sbrk_aligned+0x38>
 8005f6c:	f04f 34ff 	mov.w	r4, #4294967295
 8005f70:	4620      	mov	r0, r4
 8005f72:	bd70      	pop	{r4, r5, r6, pc}
 8005f74:	20000450 	.word	0x20000450

08005f78 <_malloc_r>:
 8005f78:	e92d 41f0 	stmdb	sp!, {r4, r5, r6, r7, r8, lr}
 8005f7c:	1ccd      	adds	r5, r1, #3
 8005f7e:	f025 0503 	bic.w	r5, r5, #3
 8005f82:	3508      	adds	r5, #8
 8005f84:	2d0c      	cmp	r5, #12
 8005f86:	bf38      	it	cc
 8005f88:	250c      	movcc	r5, #12
 8005f8a:	2d00      	cmp	r5, #0
 8005f8c:	4607      	mov	r7, r0
 8005f8e:	db01      	blt.n	8005f94 <_malloc_r+0x1c>
 8005f90:	42a9      	cmp	r1, r5
 8005f92:	d905      	bls.n	8005fa0 <_malloc_r+0x28>
 8005f94:	230c      	movs	r3, #12
 8005f96:	2600      	movs	r6, #0
 8005f98:	603b      	str	r3, [r7, #0]
 8005f9a:	4630      	mov	r0, r6
 8005f9c:	e8bd 81f0 	ldmia.w	sp!, {r4, r5, r6, r7, r8, pc}
 8005fa0:	4e2e      	ldr	r6, [pc, #184]	; (800605c <_malloc_r+0xe4>)
 8005fa2:	f000 f8af 	bl	8006104 <__malloc_lock>
 8005fa6:	6833      	ldr	r3, [r6, #0]
 8005fa8:	461c      	mov	r4, r3
 8005faa:	bb34      	cbnz	r4, 8005ffa <_malloc_r+0x82>
 8005fac:	4629      	mov	r1, r5
 8005fae:	4638      	mov	r0, r7
 8005fb0:	f7ff ffc2 	bl	8005f38 <sbrk_aligned>
 8005fb4:	1c43      	adds	r3, r0, #1
 8005fb6:	4604      	mov	r4, r0
 8005fb8:	d14d      	bne.n	8006056 <_malloc_r+0xde>
 8005fba:	6834      	ldr	r4, [r6, #0]
 8005fbc:	4626      	mov	r6, r4
 8005fbe:	2e00      	cmp	r6, #0
 8005fc0:	d140      	bne.n	8006044 <_malloc_r+0xcc>
 8005fc2:	6823      	ldr	r3, [r4, #0]
 8005fc4:	4631      	mov	r1, r6
 8005fc6:	4638      	mov	r0, r7
 8005fc8:	eb04 0803 	add.w	r8, r4, r3
 8005fcc:	f000 f848 	bl	8006060 <_sbrk_r>
 8005fd0:	4580      	cmp	r8, r0
 8005fd2:	d13a      	bne.n	800604a <_malloc_r+0xd2>
 8005fd4:	6821      	ldr	r1, [r4, #0]
 8005fd6:	3503      	adds	r5, #3
 8005fd8:	1a6d      	subs	r5, r5, r1
 8005fda:	f025 0503 	bic.w	r5, r5, #3
 8005fde:	3508      	adds	r5, #8
 8005fe0:	2d0c      	cmp	r5, #12
 8005fe2:	bf38      	it	cc
 8005fe4:	250c      	movcc	r5, #12
 8005fe6:	4638      	mov	r0, r7
 8005fe8:	4629      	mov	r1, r5
 8005fea:	f7ff ffa5 	bl	8005f38 <sbrk_aligned>
 8005fee:	3001      	adds	r0, #1
 8005ff0:	d02b      	beq.n	800604a <_malloc_r+0xd2>
 8005ff2:	6823      	ldr	r3, [r4, #0]
 8005ff4:	442b      	add	r3, r5
 8005ff6:	6023      	str	r3, [r4, #0]
 8005ff8:	e00e      	b.n	8006018 <_malloc_r+0xa0>
 8005ffa:	6822      	ldr	r2, [r4, #0]
 8005ffc:	1b52      	subs	r2, r2, r5
 8005ffe:	d41e      	bmi.n	800603e <_malloc_r+0xc6>
 8006000:	2a0b      	cmp	r2, #11
 8006002:	d916      	bls.n	8006032 <_malloc_r+0xba>
 8006004:	1961      	adds	r1, r4, r5
 8006006:	42a3      	cmp	r3, r4
 8006008:	6025      	str	r5, [r4, #0]
 800600a:	bf18      	it	ne
 800600c:	6059      	strne	r1, [r3, #4]
 800600e:	6863      	ldr	r3, [r4, #4]
 8006010:	bf08      	it	eq
 8006012:	6031      	streq	r1, [r6, #0]
 8006014:	5162      	str	r2, [r4, r5]
 8006016:	604b      	str	r3, [r1, #4]
 8006018:	4638      	mov	r0, r7
 800601a:	f104 060b 	add.w	r6, r4, #11
 800601e:	f000 f877 	bl	8006110 <__malloc_unlock>
 8006022:	f026 0607 	bic.w	r6, r6, #7
 8006026:	1d23      	adds	r3, r4, #4
 8006028:	1af2      	subs	r2, r6, r3
 800602a:	d0b6      	beq.n	8005f9a <_malloc_r+0x22>
 800602c:	1b9b      	subs	r3, r3, r6
 800602e:	50a3      	str	r3, [r4, r2]
 8006030:	e7b3      	b.n	8005f9a <_malloc_r+0x22>
 8006032:	6862      	ldr	r2, [r4, #4]
 8006034:	42a3      	cmp	r3, r4
 8006036:	bf0c      	ite	eq
 8006038:	6032      	streq	r2, [r6, #0]
 800603a:	605a      	strne	r2, [r3, #4]
 800603c:	e7ec      	b.n	8006018 <_malloc_r+0xa0>
 800603e:	4623      	mov	r3, r4
 8006040:	6864      	ldr	r4, [r4, #4]
 8006042:	e7b2      	b.n	8005faa <_malloc_r+0x32>
 8006044:	4634      	mov	r4, r6
 8006046:	6876      	ldr	r6, [r6, #4]
 8006048:	e7b9      	b.n	8005fbe <_malloc_r+0x46>
 800604a:	230c      	movs	r3, #12
 800604c:	4638      	mov	r0, r7
 800604e:	603b      	str	r3, [r7, #0]
 8006050:	f000 f85e 	bl	8006110 <__malloc_unlock>
 8006054:	e7a1      	b.n	8005f9a <_malloc_r+0x22>
 8006056:	6025      	str	r5, [r4, #0]
 8006058:	e7de      	b.n	8006018 <_malloc_r+0xa0>
 800605a:	bf00      	nop
 800605c:	2000044c 	.word	0x2000044c

08006060 <_sbrk_r>:
 8006060:	b538      	push	{r3, r4, r5, lr}
 8006062:	2300      	movs	r3, #0
 8006064:	4d05      	ldr	r5, [pc, #20]	; (800607c <_sbrk_r+0x1c>)
 8006066:	4604      	mov	r4, r0
 8006068:	4608      	mov	r0, r1
 800606a:	602b      	str	r3, [r5, #0]
 800606c:	f7fc faca 	bl	8002604 <_sbrk>
 8006070:	1c43      	adds	r3, r0, #1
 8006072:	d102      	bne.n	800607a <_sbrk_r+0x1a>
 8006074:	682b      	ldr	r3, [r5, #0]
 8006076:	b103      	cbz	r3, 800607a <_sbrk_r+0x1a>
 8006078:	6023      	str	r3, [r4, #0]
 800607a:	bd38      	pop	{r3, r4, r5, pc}
 800607c:	20000454 	.word	0x20000454

08006080 <__assert_func>:
 8006080:	b51f      	push	{r0, r1, r2, r3, r4, lr}
 8006082:	4614      	mov	r4, r2
 8006084:	461a      	mov	r2, r3
 8006086:	4b09      	ldr	r3, [pc, #36]	; (80060ac <__assert_func+0x2c>)
 8006088:	4605      	mov	r5, r0
 800608a:	681b      	ldr	r3, [r3, #0]
 800608c:	68d8      	ldr	r0, [r3, #12]
 800608e:	b14c      	cbz	r4, 80060a4 <__assert_func+0x24>
 8006090:	4b07      	ldr	r3, [pc, #28]	; (80060b0 <__assert_func+0x30>)
 8006092:	e9cd 3401 	strd	r3, r4, [sp, #4]
 8006096:	9100      	str	r1, [sp, #0]
 8006098:	462b      	mov	r3, r5
 800609a:	4906      	ldr	r1, [pc, #24]	; (80060b4 <__assert_func+0x34>)
 800609c:	f000 f80e 	bl	80060bc <fiprintf>
 80060a0:	f000 fa62 	bl	8006568 <abort>
 80060a4:	4b04      	ldr	r3, [pc, #16]	; (80060b8 <__assert_func+0x38>)
 80060a6:	461c      	mov	r4, r3
 80060a8:	e7f3      	b.n	8006092 <__assert_func+0x12>
 80060aa:	bf00      	nop
 80060ac:	20000048 	.word	0x20000048
 80060b0:	080083ec 	.word	0x080083ec
 80060b4:	080083f9 	.word	0x080083f9
 80060b8:	08008427 	.word	0x08008427

080060bc <fiprintf>:
 80060bc:	b40e      	push	{r1, r2, r3}
 80060be:	b503      	push	{r0, r1, lr}
 80060c0:	4601      	mov	r1, r0
 80060c2:	ab03      	add	r3, sp, #12
 80060c4:	4805      	ldr	r0, [pc, #20]	; (80060dc <fiprintf+0x20>)
 80060c6:	f853 2b04 	ldr.w	r2, [r3], #4
 80060ca:	6800      	ldr	r0, [r0, #0]
 80060cc:	9301      	str	r3, [sp, #4]
 80060ce:	f000 f84d 	bl	800616c <_vfiprintf_r>
 80060d2:	b002      	add	sp, #8
 80060d4:	f85d eb04 	ldr.w	lr, [sp], #4
 80060d8:	b003      	add	sp, #12
 80060da:	4770      	bx	lr
 80060dc:	20000048 	.word	0x20000048

080060e0 <__ascii_mbtowc>:
 80060e0:	b082      	sub	sp, #8
 80060e2:	b901      	cbnz	r1, 80060e6 <__ascii_mbtowc+0x6>
 80060e4:	a901      	add	r1, sp, #4
 80060e6:	b142      	cbz	r2, 80060fa <__ascii_mbtowc+0x1a>
 80060e8:	b14b      	cbz	r3, 80060fe <__ascii_mbtowc+0x1e>
 80060ea:	7813      	ldrb	r3, [r2, #0]
 80060ec:	600b      	str	r3, [r1, #0]
 80060ee:	7812      	ldrb	r2, [r2, #0]
 80060f0:	1e10      	subs	r0, r2, #0
 80060f2:	bf18      	it	ne
 80060f4:	2001      	movne	r0, #1
 80060f6:	b002      	add	sp, #8
 80060f8:	4770      	bx	lr
 80060fa:	4610      	mov	r0, r2
 80060fc:	e7fb      	b.n	80060f6 <__ascii_mbtowc+0x16>
 80060fe:	f06f 0001 	mvn.w	r0, #1
 8006102:	e7f8      	b.n	80060f6 <__ascii_mbtowc+0x16>

08006104 <__malloc_lock>:
 8006104:	4801      	ldr	r0, [pc, #4]	; (800610c <__malloc_lock+0x8>)
 8006106:	f000 bbeb 	b.w	80068e0 <__retarget_lock_acquire_recursive>
 800610a:	bf00      	nop
 800610c:	20000458 	.word	0x20000458

08006110 <__malloc_unlock>:
 8006110:	4801      	ldr	r0, [pc, #4]	; (8006118 <__malloc_unlock+0x8>)
 8006112:	f000 bbe6 	b.w	80068e2 <__retarget_lock_release_recursive>
 8006116:	bf00      	nop
 8006118:	20000458 	.word	0x20000458

0800611c <__sfputc_r>:
 800611c:	6893      	ldr	r3, [r2, #8]
 800611e:	b410      	push	{r4}
 8006120:	3b01      	subs	r3, #1
 8006122:	2b00      	cmp	r3, #0
 8006124:	6093      	str	r3, [r2, #8]
 8006126:	da07      	bge.n	8006138 <__sfputc_r+0x1c>
 8006128:	6994      	ldr	r4, [r2, #24]
 800612a:	42a3      	cmp	r3, r4
 800612c:	db01      	blt.n	8006132 <__sfputc_r+0x16>
 800612e:	290a      	cmp	r1, #10
 8006130:	d102      	bne.n	8006138 <__sfputc_r+0x1c>
 8006132:	bc10      	pop	{r4}
 8006134:	f000 b94a 	b.w	80063cc <__swbuf_r>
 8006138:	6813      	ldr	r3, [r2, #0]
 800613a:	1c58      	adds	r0, r3, #1
 800613c:	6010      	str	r0, [r2, #0]
 800613e:	7019      	strb	r1, [r3, #0]
 8006140:	4608      	mov	r0, r1
 8006142:	bc10      	pop	{r4}
 8006144:	4770      	bx	lr

08006146 <__sfputs_r>:
 8006146:	b5f8      	push	{r3, r4, r5, r6, r7, lr}
 8006148:	4606      	mov	r6, r0
 800614a:	460f      	mov	r7, r1
 800614c:	4614      	mov	r4, r2
 800614e:	18d5      	adds	r5, r2, r3
 8006150:	42ac      	cmp	r4, r5
 8006152:	d101      	bne.n	8006158 <__sfputs_r+0x12>
 8006154:	2000      	movs	r0, #0
 8006156:	e007      	b.n	8006168 <__sfputs_r+0x22>
 8006158:	463a      	mov	r2, r7
 800615a:	4630      	mov	r0, r6
 800615c:	f814 1b01 	ldrb.w	r1, [r4], #1
 8006160:	f7ff ffdc 	bl	800611c <__sfputc_r>
 8006164:	1c43      	adds	r3, r0, #1
 8006166:	d1f3      	bne.n	8006150 <__sfputs_r+0xa>
 8006168:	bdf8      	pop	{r3, r4, r5, r6, r7, pc}
	...

0800616c <_vfiprintf_r>:
 800616c:	e92d 4ff0 	stmdb	sp!, {r4, r5, r6, r7, r8, r9, sl, fp, lr}
 8006170:	460d      	mov	r5, r1
 8006172:	4614      	mov	r4, r2
 8006174:	4698      	mov	r8, r3
 8006176:	4606      	mov	r6, r0
 8006178:	b09d      	sub	sp, #116	; 0x74
 800617a:	b118      	cbz	r0, 8006184 <_vfiprintf_r+0x18>
 800617c:	6983      	ldr	r3, [r0, #24]
 800617e:	b90b      	cbnz	r3, 8006184 <_vfiprintf_r+0x18>
 8006180:	f000 fb10 	bl	80067a4 <__sinit>
 8006184:	4b89      	ldr	r3, [pc, #548]	; (80063ac <_vfiprintf_r+0x240>)
 8006186:	429d      	cmp	r5, r3
 8006188:	d11b      	bne.n	80061c2 <_vfiprintf_r+0x56>
 800618a:	6875      	ldr	r5, [r6, #4]
 800618c:	6e6b      	ldr	r3, [r5, #100]	; 0x64
 800618e:	07d9      	lsls	r1, r3, #31
 8006190:	d405      	bmi.n	800619e <_vfiprintf_r+0x32>
 8006192:	89ab      	ldrh	r3, [r5, #12]
 8006194:	059a      	lsls	r2, r3, #22
 8006196:	d402      	bmi.n	800619e <_vfiprintf_r+0x32>
 8006198:	6da8      	ldr	r0, [r5, #88]	; 0x58
 800619a:	f000 fba1 	bl	80068e0 <__retarget_lock_acquire_recursive>
 800619e:	89ab      	ldrh	r3, [r5, #12]
 80061a0:	071b      	lsls	r3, r3, #28
 80061a2:	d501      	bpl.n	80061a8 <_vfiprintf_r+0x3c>
 80061a4:	692b      	ldr	r3, [r5, #16]
 80061a6:	b9eb      	cbnz	r3, 80061e4 <_vfiprintf_r+0x78>
 80061a8:	4629      	mov	r1, r5
 80061aa:	4630      	mov	r0, r6
 80061ac:	f000 f96e 	bl	800648c <__swsetup_r>
 80061b0:	b1c0      	cbz	r0, 80061e4 <_vfiprintf_r+0x78>
 80061b2:	6e6b      	ldr	r3, [r5, #100]	; 0x64
 80061b4:	07dc      	lsls	r4, r3, #31
 80061b6:	d50e      	bpl.n	80061d6 <_vfiprintf_r+0x6a>
 80061b8:	f04f 30ff 	mov.w	r0, #4294967295
 80061bc:	b01d      	add	sp, #116	; 0x74
 80061be:	e8bd 8ff0 	ldmia.w	sp!, {r4, r5, r6, r7, r8, r9, sl, fp, pc}
 80061c2:	4b7b      	ldr	r3, [pc, #492]	; (80063b0 <_vfiprintf_r+0x244>)
 80061c4:	429d      	cmp	r5, r3
 80061c6:	d101      	bne.n	80061cc <_vfiprintf_r+0x60>
 80061c8:	68b5      	ldr	r5, [r6, #8]
 80061ca:	e7df      	b.n	800618c <_vfiprintf_r+0x20>
 80061cc:	4b79      	ldr	r3, [pc, #484]	; (80063b4 <_vfiprintf_r+0x248>)
 80061ce:	429d      	cmp	r5, r3
 80061d0:	bf08      	it	eq
 80061d2:	68f5      	ldreq	r5, [r6, #12]
 80061d4:	e7da      	b.n	800618c <_vfiprintf_r+0x20>
 80061d6:	89ab      	ldrh	r3, [r5, #12]
 80061d8:	0598      	lsls	r0, r3, #22
 80061da:	d4ed      	bmi.n	80061b8 <_vfiprintf_r+0x4c>
 80061dc:	6da8      	ldr	r0, [r5, #88]	; 0x58
 80061de:	f000 fb80 	bl	80068e2 <__retarget_lock_release_recursive>
 80061e2:	e7e9      	b.n	80061b8 <_vfiprintf_r+0x4c>
 80061e4:	2300      	movs	r3, #0
 80061e6:	9309      	str	r3, [sp, #36]	; 0x24
 80061e8:	2320      	movs	r3, #32
 80061ea:	f88d 3029 	strb.w	r3, [sp, #41]	; 0x29
 80061ee:	2330      	movs	r3, #48	; 0x30
 80061f0:	f04f 0901 	mov.w	r9, #1
 80061f4:	f8cd 800c 	str.w	r8, [sp, #12]
 80061f8:	f8df 81bc 	ldr.w	r8, [pc, #444]	; 80063b8 <_vfiprintf_r+0x24c>
 80061fc:	f88d 302a 	strb.w	r3, [sp, #42]	; 0x2a
 8006200:	4623      	mov	r3, r4
 8006202:	469a      	mov	sl, r3
 8006204:	f813 2b01 	ldrb.w	r2, [r3], #1
 8006208:	b10a      	cbz	r2, 800620e <_vfiprintf_r+0xa2>
 800620a:	2a25      	cmp	r2, #37	; 0x25
 800620c:	d1f9      	bne.n	8006202 <_vfiprintf_r+0x96>
 800620e:	ebba 0b04 	subs.w	fp, sl, r4
 8006212:	d00b      	beq.n	800622c <_vfiprintf_r+0xc0>
 8006214:	465b      	mov	r3, fp
 8006216:	4622      	mov	r2, r4
 8006218:	4629      	mov	r1, r5
 800621a:	4630      	mov	r0, r6
 800621c:	f7ff ff93 	bl	8006146 <__sfputs_r>
 8006220:	3001      	adds	r0, #1
 8006222:	f000 80aa 	beq.w	800637a <_vfiprintf_r+0x20e>
 8006226:	9a09      	ldr	r2, [sp, #36]	; 0x24
 8006228:	445a      	add	r2, fp
 800622a:	9209      	str	r2, [sp, #36]	; 0x24
 800622c:	f89a 3000 	ldrb.w	r3, [sl]
 8006230:	2b00      	cmp	r3, #0
 8006232:	f000 80a2 	beq.w	800637a <_vfiprintf_r+0x20e>
 8006236:	2300      	movs	r3, #0
 8006238:	f04f 32ff 	mov.w	r2, #4294967295
 800623c:	e9cd 2305 	strd	r2, r3, [sp, #20]
 8006240:	f10a 0a01 	add.w	sl, sl, #1
 8006244:	9304      	str	r3, [sp, #16]
 8006246:	9307      	str	r3, [sp, #28]
 8006248:	f88d 3053 	strb.w	r3, [sp, #83]	; 0x53
 800624c:	931a      	str	r3, [sp, #104]	; 0x68
 800624e:	4654      	mov	r4, sl
 8006250:	2205      	movs	r2, #5
 8006252:	f814 1b01 	ldrb.w	r1, [r4], #1
 8006256:	4858      	ldr	r0, [pc, #352]	; (80063b8 <_vfiprintf_r+0x24c>)
 8006258:	f7ff fa74 	bl	8005744 <memchr>
 800625c:	9a04      	ldr	r2, [sp, #16]
 800625e:	b9d8      	cbnz	r0, 8006298 <_vfiprintf_r+0x12c>
 8006260:	06d1      	lsls	r1, r2, #27
 8006262:	bf44      	itt	mi
 8006264:	2320      	movmi	r3, #32
 8006266:	f88d 3053 	strbmi.w	r3, [sp, #83]	; 0x53
 800626a:	0713      	lsls	r3, r2, #28
 800626c:	bf44      	itt	mi
 800626e:	232b      	movmi	r3, #43	; 0x2b
 8006270:	f88d 3053 	strbmi.w	r3, [sp, #83]	; 0x53
 8006274:	f89a 3000 	ldrb.w	r3, [sl]
 8006278:	2b2a      	cmp	r3, #42	; 0x2a
 800627a:	d015      	beq.n	80062a8 <_vfiprintf_r+0x13c>
 800627c:	4654      	mov	r4, sl
 800627e:	2000      	movs	r0, #0
 8006280:	f04f 0c0a 	mov.w	ip, #10
 8006284:	9a07      	ldr	r2, [sp, #28]
 8006286:	4621      	mov	r1, r4
 8006288:	f811 3b01 	ldrb.w	r3, [r1], #1
 800628c:	3b30      	subs	r3, #48	; 0x30
 800628e:	2b09      	cmp	r3, #9
 8006290:	d94e      	bls.n	8006330 <_vfiprintf_r+0x1c4>
 8006292:	b1b0      	cbz	r0, 80062c2 <_vfiprintf_r+0x156>
 8006294:	9207      	str	r2, [sp, #28]
 8006296:	e014      	b.n	80062c2 <_vfiprintf_r+0x156>
 8006298:	eba0 0308 	sub.w	r3, r0, r8
 800629c:	fa09 f303 	lsl.w	r3, r9, r3
 80062a0:	4313      	orrs	r3, r2
 80062a2:	46a2      	mov	sl, r4
 80062a4:	9304      	str	r3, [sp, #16]
 80062a6:	e7d2      	b.n	800624e <_vfiprintf_r+0xe2>
 80062a8:	9b03      	ldr	r3, [sp, #12]
 80062aa:	1d19      	adds	r1, r3, #4
 80062ac:	681b      	ldr	r3, [r3, #0]
 80062ae:	9103      	str	r1, [sp, #12]
 80062b0:	2b00      	cmp	r3, #0
 80062b2:	bfbb      	ittet	lt
 80062b4:	425b      	neglt	r3, r3
 80062b6:	f042 0202 	orrlt.w	r2, r2, #2
 80062ba:	9307      	strge	r3, [sp, #28]
 80062bc:	9307      	strlt	r3, [sp, #28]
 80062be:	bfb8      	it	lt
 80062c0:	9204      	strlt	r2, [sp, #16]
 80062c2:	7823      	ldrb	r3, [r4, #0]
 80062c4:	2b2e      	cmp	r3, #46	; 0x2e
 80062c6:	d10c      	bne.n	80062e2 <_vfiprintf_r+0x176>
 80062c8:	7863      	ldrb	r3, [r4, #1]
 80062ca:	2b2a      	cmp	r3, #42	; 0x2a
 80062cc:	d135      	bne.n	800633a <_vfiprintf_r+0x1ce>
 80062ce:	9b03      	ldr	r3, [sp, #12]
 80062d0:	3402      	adds	r4, #2
 80062d2:	1d1a      	adds	r2, r3, #4
 80062d4:	681b      	ldr	r3, [r3, #0]
 80062d6:	9203      	str	r2, [sp, #12]
 80062d8:	2b00      	cmp	r3, #0
 80062da:	bfb8      	it	lt
 80062dc:	f04f 33ff 	movlt.w	r3, #4294967295
 80062e0:	9305      	str	r3, [sp, #20]
 80062e2:	f8df a0d8 	ldr.w	sl, [pc, #216]	; 80063bc <_vfiprintf_r+0x250>
 80062e6:	2203      	movs	r2, #3
 80062e8:	4650      	mov	r0, sl
 80062ea:	7821      	ldrb	r1, [r4, #0]
 80062ec:	f7ff fa2a 	bl	8005744 <memchr>
 80062f0:	b140      	cbz	r0, 8006304 <_vfiprintf_r+0x198>
 80062f2:	2340      	movs	r3, #64	; 0x40
 80062f4:	eba0 000a 	sub.w	r0, r0, sl
 80062f8:	fa03 f000 	lsl.w	r0, r3, r0
 80062fc:	9b04      	ldr	r3, [sp, #16]
 80062fe:	3401      	adds	r4, #1
 8006300:	4303      	orrs	r3, r0
 8006302:	9304      	str	r3, [sp, #16]
 8006304:	f814 1b01 	ldrb.w	r1, [r4], #1
 8006308:	2206      	movs	r2, #6
 800630a:	482d      	ldr	r0, [pc, #180]	; (80063c0 <_vfiprintf_r+0x254>)
 800630c:	f88d 1028 	strb.w	r1, [sp, #40]	; 0x28
 8006310:	f7ff fa18 	bl	8005744 <memchr>
 8006314:	2800      	cmp	r0, #0
 8006316:	d03f      	beq.n	8006398 <_vfiprintf_r+0x22c>
 8006318:	4b2a      	ldr	r3, [pc, #168]	; (80063c4 <_vfiprintf_r+0x258>)
 800631a:	bb1b      	cbnz	r3, 8006364 <_vfiprintf_r+0x1f8>
 800631c:	9b03      	ldr	r3, [sp, #12]
 800631e:	3307      	adds	r3, #7
 8006320:	f023 0307 	bic.w	r3, r3, #7
 8006324:	3308      	adds	r3, #8
 8006326:	9303      	str	r3, [sp, #12]
 8006328:	9b09      	ldr	r3, [sp, #36]	; 0x24
 800632a:	443b      	add	r3, r7
 800632c:	9309      	str	r3, [sp, #36]	; 0x24
 800632e:	e767      	b.n	8006200 <_vfiprintf_r+0x94>
 8006330:	460c      	mov	r4, r1
 8006332:	2001      	movs	r0, #1
 8006334:	fb0c 3202 	mla	r2, ip, r2, r3
 8006338:	e7a5      	b.n	8006286 <_vfiprintf_r+0x11a>
 800633a:	2300      	movs	r3, #0
 800633c:	f04f 0c0a 	mov.w	ip, #10
 8006340:	4619      	mov	r1, r3
 8006342:	3401      	adds	r4, #1
 8006344:	9305      	str	r3, [sp, #20]
 8006346:	4620      	mov	r0, r4
 8006348:	f810 2b01 	ldrb.w	r2, [r0], #1
 800634c:	3a30      	subs	r2, #48	; 0x30
 800634e:	2a09      	cmp	r2, #9
 8006350:	d903      	bls.n	800635a <_vfiprintf_r+0x1ee>
 8006352:	2b00      	cmp	r3, #0
 8006354:	d0c5      	beq.n	80062e2 <_vfiprintf_r+0x176>
 8006356:	9105      	str	r1, [sp, #20]
 8006358:	e7c3      	b.n	80062e2 <_vfiprintf_r+0x176>
 800635a:	4604      	mov	r4, r0
 800635c:	2301      	movs	r3, #1
 800635e:	fb0c 2101 	mla	r1, ip, r1, r2
 8006362:	e7f0      	b.n	8006346 <_vfiprintf_r+0x1da>
 8006364:	ab03      	add	r3, sp, #12
 8006366:	9300      	str	r3, [sp, #0]
 8006368:	462a      	mov	r2, r5
 800636a:	4630      	mov	r0, r6
 800636c:	4b16      	ldr	r3, [pc, #88]	; (80063c8 <_vfiprintf_r+0x25c>)
 800636e:	a904      	add	r1, sp, #16
 8006370:	f7fd ff9e 	bl	80042b0 <_printf_float>
 8006374:	4607      	mov	r7, r0
 8006376:	1c78      	adds	r0, r7, #1
 8006378:	d1d6      	bne.n	8006328 <_vfiprintf_r+0x1bc>
 800637a:	6e6b      	ldr	r3, [r5, #100]	; 0x64
 800637c:	07d9      	lsls	r1, r3, #31
 800637e:	d405      	bmi.n	800638c <_vfiprintf_r+0x220>
 8006380:	89ab      	ldrh	r3, [r5, #12]
 8006382:	059a      	lsls	r2, r3, #22
 8006384:	d402      	bmi.n	800638c <_vfiprintf_r+0x220>
 8006386:	6da8      	ldr	r0, [r5, #88]	; 0x58
 8006388:	f000 faab 	bl	80068e2 <__retarget_lock_release_recursive>
 800638c:	89ab      	ldrh	r3, [r5, #12]
 800638e:	065b      	lsls	r3, r3, #25
 8006390:	f53f af12 	bmi.w	80061b8 <_vfiprintf_r+0x4c>
 8006394:	9809      	ldr	r0, [sp, #36]	; 0x24
 8006396:	e711      	b.n	80061bc <_vfiprintf_r+0x50>
 8006398:	ab03      	add	r3, sp, #12
 800639a:	9300      	str	r3, [sp, #0]
 800639c:	462a      	mov	r2, r5
 800639e:	4630      	mov	r0, r6
 80063a0:	4b09      	ldr	r3, [pc, #36]	; (80063c8 <_vfiprintf_r+0x25c>)
 80063a2:	a904      	add	r1, sp, #16
 80063a4:	f7fe fa20 	bl	80047e8 <_printf_i>
 80063a8:	e7e4      	b.n	8006374 <_vfiprintf_r+0x208>
 80063aa:	bf00      	nop
 80063ac:	08008564 	.word	0x08008564
 80063b0:	08008584 	.word	0x08008584
 80063b4:	08008544 	.word	0x08008544
 80063b8:	08008432 	.word	0x08008432
 80063bc:	08008438 	.word	0x08008438
 80063c0:	0800843c 	.word	0x0800843c
 80063c4:	080042b1 	.word	0x080042b1
 80063c8:	08006147 	.word	0x08006147

080063cc <__swbuf_r>:
 80063cc:	b5f8      	push	{r3, r4, r5, r6, r7, lr}
 80063ce:	460e      	mov	r6, r1
 80063d0:	4614      	mov	r4, r2
 80063d2:	4605      	mov	r5, r0
 80063d4:	b118      	cbz	r0, 80063de <__swbuf_r+0x12>
 80063d6:	6983      	ldr	r3, [r0, #24]
 80063d8:	b90b      	cbnz	r3, 80063de <__swbuf_r+0x12>
 80063da:	f000 f9e3 	bl	80067a4 <__sinit>
 80063de:	4b21      	ldr	r3, [pc, #132]	; (8006464 <__swbuf_r+0x98>)
 80063e0:	429c      	cmp	r4, r3
 80063e2:	d12b      	bne.n	800643c <__swbuf_r+0x70>
 80063e4:	686c      	ldr	r4, [r5, #4]
 80063e6:	69a3      	ldr	r3, [r4, #24]
 80063e8:	60a3      	str	r3, [r4, #8]
 80063ea:	89a3      	ldrh	r3, [r4, #12]
 80063ec:	071a      	lsls	r2, r3, #28
 80063ee:	d52f      	bpl.n	8006450 <__swbuf_r+0x84>
 80063f0:	6923      	ldr	r3, [r4, #16]
 80063f2:	b36b      	cbz	r3, 8006450 <__swbuf_r+0x84>
 80063f4:	6923      	ldr	r3, [r4, #16]
 80063f6:	6820      	ldr	r0, [r4, #0]
 80063f8:	b2f6      	uxtb	r6, r6
 80063fa:	1ac0      	subs	r0, r0, r3
 80063fc:	6963      	ldr	r3, [r4, #20]
 80063fe:	4637      	mov	r7, r6
 8006400:	4283      	cmp	r3, r0
 8006402:	dc04      	bgt.n	800640e <__swbuf_r+0x42>
 8006404:	4621      	mov	r1, r4
 8006406:	4628      	mov	r0, r5
 8006408:	f000 f938 	bl	800667c <_fflush_r>
 800640c:	bb30      	cbnz	r0, 800645c <__swbuf_r+0x90>
 800640e:	68a3      	ldr	r3, [r4, #8]
 8006410:	3001      	adds	r0, #1
 8006412:	3b01      	subs	r3, #1
 8006414:	60a3      	str	r3, [r4, #8]
 8006416:	6823      	ldr	r3, [r4, #0]
 8006418:	1c5a      	adds	r2, r3, #1
 800641a:	6022      	str	r2, [r4, #0]
 800641c:	701e      	strb	r6, [r3, #0]
 800641e:	6963      	ldr	r3, [r4, #20]
 8006420:	4283      	cmp	r3, r0
 8006422:	d004      	beq.n	800642e <__swbuf_r+0x62>
 8006424:	89a3      	ldrh	r3, [r4, #12]
 8006426:	07db      	lsls	r3, r3, #31
 8006428:	d506      	bpl.n	8006438 <__swbuf_r+0x6c>
 800642a:	2e0a      	cmp	r6, #10
 800642c:	d104      	bne.n	8006438 <__swbuf_r+0x6c>
 800642e:	4621      	mov	r1, r4
 8006430:	4628      	mov	r0, r5
 8006432:	f000 f923 	bl	800667c <_fflush_r>
 8006436:	b988      	cbnz	r0, 800645c <__swbuf_r+0x90>
 8006438:	4638      	mov	r0, r7
 800643a:	bdf8      	pop	{r3, r4, r5, r6, r7, pc}
 800643c:	4b0a      	ldr	r3, [pc, #40]	; (8006468 <__swbuf_r+0x9c>)
 800643e:	429c      	cmp	r4, r3
 8006440:	d101      	bne.n	8006446 <__swbuf_r+0x7a>
 8006442:	68ac      	ldr	r4, [r5, #8]
 8006444:	e7cf      	b.n	80063e6 <__swbuf_r+0x1a>
 8006446:	4b09      	ldr	r3, [pc, #36]	; (800646c <__swbuf_r+0xa0>)
 8006448:	429c      	cmp	r4, r3
 800644a:	bf08      	it	eq
 800644c:	68ec      	ldreq	r4, [r5, #12]
 800644e:	e7ca      	b.n	80063e6 <__swbuf_r+0x1a>
 8006450:	4621      	mov	r1, r4
 8006452:	4628      	mov	r0, r5
 8006454:	f000 f81a 	bl	800648c <__swsetup_r>
 8006458:	2800      	cmp	r0, #0
 800645a:	d0cb      	beq.n	80063f4 <__swbuf_r+0x28>
 800645c:	f04f 37ff 	mov.w	r7, #4294967295
 8006460:	e7ea      	b.n	8006438 <__swbuf_r+0x6c>
 8006462:	bf00      	nop
 8006464:	08008564 	.word	0x08008564
 8006468:	08008584 	.word	0x08008584
 800646c:	08008544 	.word	0x08008544

08006470 <__ascii_wctomb>:
 8006470:	4603      	mov	r3, r0
 8006472:	4608      	mov	r0, r1
 8006474:	b141      	cbz	r1, 8006488 <__ascii_wctomb+0x18>
 8006476:	2aff      	cmp	r2, #255	; 0xff
 8006478:	d904      	bls.n	8006484 <__ascii_wctomb+0x14>
 800647a:	228a      	movs	r2, #138	; 0x8a
 800647c:	f04f 30ff 	mov.w	r0, #4294967295
 8006480:	601a      	str	r2, [r3, #0]
 8006482:	4770      	bx	lr
 8006484:	2001      	movs	r0, #1
 8006486:	700a      	strb	r2, [r1, #0]
 8006488:	4770      	bx	lr
	...

0800648c <__swsetup_r>:
 800648c:	4b32      	ldr	r3, [pc, #200]	; (8006558 <__swsetup_r+0xcc>)
 800648e:	b570      	push	{r4, r5, r6, lr}
 8006490:	681d      	ldr	r5, [r3, #0]
 8006492:	4606      	mov	r6, r0
 8006494:	460c      	mov	r4, r1
 8006496:	b125      	cbz	r5, 80064a2 <__swsetup_r+0x16>
 8006498:	69ab      	ldr	r3, [r5, #24]
 800649a:	b913      	cbnz	r3, 80064a2 <__swsetup_r+0x16>
 800649c:	4628      	mov	r0, r5
 800649e:	f000 f981 	bl	80067a4 <__sinit>
 80064a2:	4b2e      	ldr	r3, [pc, #184]	; (800655c <__swsetup_r+0xd0>)
 80064a4:	429c      	cmp	r4, r3
 80064a6:	d10f      	bne.n	80064c8 <__swsetup_r+0x3c>
 80064a8:	686c      	ldr	r4, [r5, #4]
 80064aa:	89a3      	ldrh	r3, [r4, #12]
 80064ac:	f9b4 200c 	ldrsh.w	r2, [r4, #12]
 80064b0:	0719      	lsls	r1, r3, #28
 80064b2:	d42c      	bmi.n	800650e <__swsetup_r+0x82>
 80064b4:	06dd      	lsls	r5, r3, #27
 80064b6:	d411      	bmi.n	80064dc <__swsetup_r+0x50>
 80064b8:	2309      	movs	r3, #9
 80064ba:	6033      	str	r3, [r6, #0]
 80064bc:	f042 0340 	orr.w	r3, r2, #64	; 0x40
 80064c0:	f04f 30ff 	mov.w	r0, #4294967295
 80064c4:	81a3      	strh	r3, [r4, #12]
 80064c6:	e03e      	b.n	8006546 <__swsetup_r+0xba>
 80064c8:	4b25      	ldr	r3, [pc, #148]	; (8006560 <__swsetup_r+0xd4>)
 80064ca:	429c      	cmp	r4, r3
 80064cc:	d101      	bne.n	80064d2 <__swsetup_r+0x46>
 80064ce:	68ac      	ldr	r4, [r5, #8]
 80064d0:	e7eb      	b.n	80064aa <__swsetup_r+0x1e>
 80064d2:	4b24      	ldr	r3, [pc, #144]	; (8006564 <__swsetup_r+0xd8>)
 80064d4:	429c      	cmp	r4, r3
 80064d6:	bf08      	it	eq
 80064d8:	68ec      	ldreq	r4, [r5, #12]
 80064da:	e7e6      	b.n	80064aa <__swsetup_r+0x1e>
 80064dc:	0758      	lsls	r0, r3, #29
 80064de:	d512      	bpl.n	8006506 <__swsetup_r+0x7a>
 80064e0:	6b61      	ldr	r1, [r4, #52]	; 0x34
 80064e2:	b141      	cbz	r1, 80064f6 <__swsetup_r+0x6a>
 80064e4:	f104 0344 	add.w	r3, r4, #68	; 0x44
 80064e8:	4299      	cmp	r1, r3
 80064ea:	d002      	beq.n	80064f2 <__swsetup_r+0x66>
 80064ec:	4630      	mov	r0, r6
 80064ee:	f7ff fcdb 	bl	8005ea8 <_free_r>
 80064f2:	2300      	movs	r3, #0
 80064f4:	6363      	str	r3, [r4, #52]	; 0x34
 80064f6:	89a3      	ldrh	r3, [r4, #12]
 80064f8:	f023 0324 	bic.w	r3, r3, #36	; 0x24
 80064fc:	81a3      	strh	r3, [r4, #12]
 80064fe:	2300      	movs	r3, #0
 8006500:	6063      	str	r3, [r4, #4]
 8006502:	6923      	ldr	r3, [r4, #16]
 8006504:	6023      	str	r3, [r4, #0]
 8006506:	89a3      	ldrh	r3, [r4, #12]
 8006508:	f043 0308 	orr.w	r3, r3, #8
 800650c:	81a3      	strh	r3, [r4, #12]
 800650e:	6923      	ldr	r3, [r4, #16]
 8006510:	b94b      	cbnz	r3, 8006526 <__swsetup_r+0x9a>
 8006512:	89a3      	ldrh	r3, [r4, #12]
 8006514:	f403 7320 	and.w	r3, r3, #640	; 0x280
 8006518:	f5b3 7f00 	cmp.w	r3, #512	; 0x200
 800651c:	d003      	beq.n	8006526 <__swsetup_r+0x9a>
 800651e:	4621      	mov	r1, r4
 8006520:	4630      	mov	r0, r6
 8006522:	f000 fa05 	bl	8006930 <__smakebuf_r>
 8006526:	89a0      	ldrh	r0, [r4, #12]
 8006528:	f9b4 200c 	ldrsh.w	r2, [r4, #12]
 800652c:	f010 0301 	ands.w	r3, r0, #1
 8006530:	d00a      	beq.n	8006548 <__swsetup_r+0xbc>
 8006532:	2300      	movs	r3, #0
 8006534:	60a3      	str	r3, [r4, #8]
 8006536:	6963      	ldr	r3, [r4, #20]
 8006538:	425b      	negs	r3, r3
 800653a:	61a3      	str	r3, [r4, #24]
 800653c:	6923      	ldr	r3, [r4, #16]
 800653e:	b943      	cbnz	r3, 8006552 <__swsetup_r+0xc6>
 8006540:	f010 0080 	ands.w	r0, r0, #128	; 0x80
 8006544:	d1ba      	bne.n	80064bc <__swsetup_r+0x30>
 8006546:	bd70      	pop	{r4, r5, r6, pc}
 8006548:	0781      	lsls	r1, r0, #30
 800654a:	bf58      	it	pl
 800654c:	6963      	ldrpl	r3, [r4, #20]
 800654e:	60a3      	str	r3, [r4, #8]
 8006550:	e7f4      	b.n	800653c <__swsetup_r+0xb0>
 8006552:	2000      	movs	r0, #0
 8006554:	e7f7      	b.n	8006546 <__swsetup_r+0xba>
 8006556:	bf00      	nop
 8006558:	20000048 	.word	0x20000048
 800655c:	08008564 	.word	0x08008564
 8006560:	08008584 	.word	0x08008584
 8006564:	08008544 	.word	0x08008544

08006568 <abort>:
 8006568:	2006      	movs	r0, #6
 800656a:	b508      	push	{r3, lr}
 800656c:	f000 fa48 	bl	8006a00 <raise>
 8006570:	2001      	movs	r0, #1
 8006572:	f7fc f819 	bl	80025a8 <_exit>
	...

08006578 <__sflush_r>:
 8006578:	898a      	ldrh	r2, [r1, #12]
 800657a:	b5f8      	push	{r3, r4, r5, r6, r7, lr}
 800657c:	4605      	mov	r5, r0
 800657e:	0710      	lsls	r0, r2, #28
 8006580:	460c      	mov	r4, r1
 8006582:	d457      	bmi.n	8006634 <__sflush_r+0xbc>
 8006584:	684b      	ldr	r3, [r1, #4]
 8006586:	2b00      	cmp	r3, #0
 8006588:	dc04      	bgt.n	8006594 <__sflush_r+0x1c>
 800658a:	6c0b      	ldr	r3, [r1, #64]	; 0x40
 800658c:	2b00      	cmp	r3, #0
 800658e:	dc01      	bgt.n	8006594 <__sflush_r+0x1c>
 8006590:	2000      	movs	r0, #0
 8006592:	bdf8      	pop	{r3, r4, r5, r6, r7, pc}
 8006594:	6ae6      	ldr	r6, [r4, #44]	; 0x2c
 8006596:	2e00      	cmp	r6, #0
 8006598:	d0fa      	beq.n	8006590 <__sflush_r+0x18>
 800659a:	2300      	movs	r3, #0
 800659c:	f412 5280 	ands.w	r2, r2, #4096	; 0x1000
 80065a0:	682f      	ldr	r7, [r5, #0]
 80065a2:	602b      	str	r3, [r5, #0]
 80065a4:	d032      	beq.n	800660c <__sflush_r+0x94>
 80065a6:	6d60      	ldr	r0, [r4, #84]	; 0x54
 80065a8:	89a3      	ldrh	r3, [r4, #12]
 80065aa:	075a      	lsls	r2, r3, #29
 80065ac:	d505      	bpl.n	80065ba <__sflush_r+0x42>
 80065ae:	6863      	ldr	r3, [r4, #4]
 80065b0:	1ac0      	subs	r0, r0, r3
 80065b2:	6b63      	ldr	r3, [r4, #52]	; 0x34
 80065b4:	b10b      	cbz	r3, 80065ba <__sflush_r+0x42>
 80065b6:	6c23      	ldr	r3, [r4, #64]	; 0x40
 80065b8:	1ac0      	subs	r0, r0, r3
 80065ba:	2300      	movs	r3, #0
 80065bc:	4602      	mov	r2, r0
 80065be:	6ae6      	ldr	r6, [r4, #44]	; 0x2c
 80065c0:	4628      	mov	r0, r5
 80065c2:	6a21      	ldr	r1, [r4, #32]
 80065c4:	47b0      	blx	r6
 80065c6:	1c43      	adds	r3, r0, #1
 80065c8:	89a3      	ldrh	r3, [r4, #12]
 80065ca:	d106      	bne.n	80065da <__sflush_r+0x62>
 80065cc:	6829      	ldr	r1, [r5, #0]
 80065ce:	291d      	cmp	r1, #29
 80065d0:	d82c      	bhi.n	800662c <__sflush_r+0xb4>
 80065d2:	4a29      	ldr	r2, [pc, #164]	; (8006678 <__sflush_r+0x100>)
 80065d4:	40ca      	lsrs	r2, r1
 80065d6:	07d6      	lsls	r6, r2, #31
 80065d8:	d528      	bpl.n	800662c <__sflush_r+0xb4>
 80065da:	2200      	movs	r2, #0
 80065dc:	6062      	str	r2, [r4, #4]
 80065de:	6922      	ldr	r2, [r4, #16]
 80065e0:	04d9      	lsls	r1, r3, #19
 80065e2:	6022      	str	r2, [r4, #0]
 80065e4:	d504      	bpl.n	80065f0 <__sflush_r+0x78>
 80065e6:	1c42      	adds	r2, r0, #1
 80065e8:	d101      	bne.n	80065ee <__sflush_r+0x76>
 80065ea:	682b      	ldr	r3, [r5, #0]
 80065ec:	b903      	cbnz	r3, 80065f0 <__sflush_r+0x78>
 80065ee:	6560      	str	r0, [r4, #84]	; 0x54
 80065f0:	6b61      	ldr	r1, [r4, #52]	; 0x34
 80065f2:	602f      	str	r7, [r5, #0]
 80065f4:	2900      	cmp	r1, #0
 80065f6:	d0cb      	beq.n	8006590 <__sflush_r+0x18>
 80065f8:	f104 0344 	add.w	r3, r4, #68	; 0x44
 80065fc:	4299      	cmp	r1, r3
 80065fe:	d002      	beq.n	8006606 <__sflush_r+0x8e>
 8006600:	4628      	mov	r0, r5
 8006602:	f7ff fc51 	bl	8005ea8 <_free_r>
 8006606:	2000      	movs	r0, #0
 8006608:	6360      	str	r0, [r4, #52]	; 0x34
 800660a:	e7c2      	b.n	8006592 <__sflush_r+0x1a>
 800660c:	6a21      	ldr	r1, [r4, #32]
 800660e:	2301      	movs	r3, #1
 8006610:	4628      	mov	r0, r5
 8006612:	47b0      	blx	r6
 8006614:	1c41      	adds	r1, r0, #1
 8006616:	d1c7      	bne.n	80065a8 <__sflush_r+0x30>
 8006618:	682b      	ldr	r3, [r5, #0]
 800661a:	2b00      	cmp	r3, #0
 800661c:	d0c4      	beq.n	80065a8 <__sflush_r+0x30>
 800661e:	2b1d      	cmp	r3, #29
 8006620:	d001      	beq.n	8006626 <__sflush_r+0xae>
 8006622:	2b16      	cmp	r3, #22
 8006624:	d101      	bne.n	800662a <__sflush_r+0xb2>
 8006626:	602f      	str	r7, [r5, #0]
 8006628:	e7b2      	b.n	8006590 <__sflush_r+0x18>
 800662a:	89a3      	ldrh	r3, [r4, #12]
 800662c:	f043 0340 	orr.w	r3, r3, #64	; 0x40
 8006630:	81a3      	strh	r3, [r4, #12]
 8006632:	e7ae      	b.n	8006592 <__sflush_r+0x1a>
 8006634:	690f      	ldr	r7, [r1, #16]
 8006636:	2f00      	cmp	r7, #0
 8006638:	d0aa      	beq.n	8006590 <__sflush_r+0x18>
 800663a:	0793      	lsls	r3, r2, #30
 800663c:	bf18      	it	ne
 800663e:	2300      	movne	r3, #0
 8006640:	680e      	ldr	r6, [r1, #0]
 8006642:	bf08      	it	eq
 8006644:	694b      	ldreq	r3, [r1, #20]
 8006646:	1bf6      	subs	r6, r6, r7
 8006648:	600f      	str	r7, [r1, #0]
 800664a:	608b      	str	r3, [r1, #8]
 800664c:	2e00      	cmp	r6, #0
 800664e:	dd9f      	ble.n	8006590 <__sflush_r+0x18>
 8006650:	4633      	mov	r3, r6
 8006652:	463a      	mov	r2, r7
 8006654:	4628      	mov	r0, r5
 8006656:	6a21      	ldr	r1, [r4, #32]
 8006658:	f8d4 c028 	ldr.w	ip, [r4, #40]	; 0x28
 800665c:	47e0      	blx	ip
 800665e:	2800      	cmp	r0, #0
 8006660:	dc06      	bgt.n	8006670 <__sflush_r+0xf8>
 8006662:	89a3      	ldrh	r3, [r4, #12]
 8006664:	f04f 30ff 	mov.w	r0, #4294967295
 8006668:	f043 0340 	orr.w	r3, r3, #64	; 0x40
 800666c:	81a3      	strh	r3, [r4, #12]
 800666e:	e790      	b.n	8006592 <__sflush_r+0x1a>
 8006670:	4407      	add	r7, r0
 8006672:	1a36      	subs	r6, r6, r0
 8006674:	e7ea      	b.n	800664c <__sflush_r+0xd4>
 8006676:	bf00      	nop
 8006678:	20400001 	.word	0x20400001

0800667c <_fflush_r>:
 800667c:	b538      	push	{r3, r4, r5, lr}
 800667e:	690b      	ldr	r3, [r1, #16]
 8006680:	4605      	mov	r5, r0
 8006682:	460c      	mov	r4, r1
 8006684:	b913      	cbnz	r3, 800668c <_fflush_r+0x10>
 8006686:	2500      	movs	r5, #0
 8006688:	4628      	mov	r0, r5
 800668a:	bd38      	pop	{r3, r4, r5, pc}
 800668c:	b118      	cbz	r0, 8006696 <_fflush_r+0x1a>
 800668e:	6983      	ldr	r3, [r0, #24]
 8006690:	b90b      	cbnz	r3, 8006696 <_fflush_r+0x1a>
 8006692:	f000 f887 	bl	80067a4 <__sinit>
 8006696:	4b14      	ldr	r3, [pc, #80]	; (80066e8 <_fflush_r+0x6c>)
 8006698:	429c      	cmp	r4, r3
 800669a:	d11b      	bne.n	80066d4 <_fflush_r+0x58>
 800669c:	686c      	ldr	r4, [r5, #4]
 800669e:	f9b4 300c 	ldrsh.w	r3, [r4, #12]
 80066a2:	2b00      	cmp	r3, #0
 80066a4:	d0ef      	beq.n	8006686 <_fflush_r+0xa>
 80066a6:	6e62      	ldr	r2, [r4, #100]	; 0x64
 80066a8:	07d0      	lsls	r0, r2, #31
 80066aa:	d404      	bmi.n	80066b6 <_fflush_r+0x3a>
 80066ac:	0599      	lsls	r1, r3, #22
 80066ae:	d402      	bmi.n	80066b6 <_fflush_r+0x3a>
 80066b0:	6da0      	ldr	r0, [r4, #88]	; 0x58
 80066b2:	f000 f915 	bl	80068e0 <__retarget_lock_acquire_recursive>
 80066b6:	4628      	mov	r0, r5
 80066b8:	4621      	mov	r1, r4
 80066ba:	f7ff ff5d 	bl	8006578 <__sflush_r>
 80066be:	6e63      	ldr	r3, [r4, #100]	; 0x64
 80066c0:	4605      	mov	r5, r0
 80066c2:	07da      	lsls	r2, r3, #31
 80066c4:	d4e0      	bmi.n	8006688 <_fflush_r+0xc>
 80066c6:	89a3      	ldrh	r3, [r4, #12]
 80066c8:	059b      	lsls	r3, r3, #22
 80066ca:	d4dd      	bmi.n	8006688 <_fflush_r+0xc>
 80066cc:	6da0      	ldr	r0, [r4, #88]	; 0x58
 80066ce:	f000 f908 	bl	80068e2 <__retarget_lock_release_recursive>
 80066d2:	e7d9      	b.n	8006688 <_fflush_r+0xc>
 80066d4:	4b05      	ldr	r3, [pc, #20]	; (80066ec <_fflush_r+0x70>)
 80066d6:	429c      	cmp	r4, r3
 80066d8:	d101      	bne.n	80066de <_fflush_r+0x62>
 80066da:	68ac      	ldr	r4, [r5, #8]
 80066dc:	e7df      	b.n	800669e <_fflush_r+0x22>
 80066de:	4b04      	ldr	r3, [pc, #16]	; (80066f0 <_fflush_r+0x74>)
 80066e0:	429c      	cmp	r4, r3
 80066e2:	bf08      	it	eq
 80066e4:	68ec      	ldreq	r4, [r5, #12]
 80066e6:	e7da      	b.n	800669e <_fflush_r+0x22>
 80066e8:	08008564 	.word	0x08008564
 80066ec:	08008584 	.word	0x08008584
 80066f0:	08008544 	.word	0x08008544

080066f4 <std>:
 80066f4:	2300      	movs	r3, #0
 80066f6:	b510      	push	{r4, lr}
 80066f8:	4604      	mov	r4, r0
 80066fa:	e9c0 3300 	strd	r3, r3, [r0]
 80066fe:	e9c0 3304 	strd	r3, r3, [r0, #16]
 8006702:	6083      	str	r3, [r0, #8]
 8006704:	8181      	strh	r1, [r0, #12]
 8006706:	6643      	str	r3, [r0, #100]	; 0x64
 8006708:	81c2      	strh	r2, [r0, #14]
 800670a:	6183      	str	r3, [r0, #24]
 800670c:	4619      	mov	r1, r3
 800670e:	2208      	movs	r2, #8
 8006710:	305c      	adds	r0, #92	; 0x5c
 8006712:	f7fd fd27 	bl	8004164 <memset>
 8006716:	4b05      	ldr	r3, [pc, #20]	; (800672c <std+0x38>)
 8006718:	6224      	str	r4, [r4, #32]
 800671a:	6263      	str	r3, [r4, #36]	; 0x24
 800671c:	4b04      	ldr	r3, [pc, #16]	; (8006730 <std+0x3c>)
 800671e:	62a3      	str	r3, [r4, #40]	; 0x28
 8006720:	4b04      	ldr	r3, [pc, #16]	; (8006734 <std+0x40>)
 8006722:	62e3      	str	r3, [r4, #44]	; 0x2c
 8006724:	4b04      	ldr	r3, [pc, #16]	; (8006738 <std+0x44>)
 8006726:	6323      	str	r3, [r4, #48]	; 0x30
 8006728:	bd10      	pop	{r4, pc}
 800672a:	bf00      	nop
 800672c:	08006a39 	.word	0x08006a39
 8006730:	08006a5b 	.word	0x08006a5b
 8006734:	08006a93 	.word	0x08006a93
 8006738:	08006ab7 	.word	0x08006ab7

0800673c <_cleanup_r>:
 800673c:	4901      	ldr	r1, [pc, #4]	; (8006744 <_cleanup_r+0x8>)
 800673e:	f000 b8af 	b.w	80068a0 <_fwalk_reent>
 8006742:	bf00      	nop
 8006744:	0800667d 	.word	0x0800667d

08006748 <__sfmoreglue>:
 8006748:	2268      	movs	r2, #104	; 0x68
 800674a:	b570      	push	{r4, r5, r6, lr}
 800674c:	1e4d      	subs	r5, r1, #1
 800674e:	4355      	muls	r5, r2
 8006750:	460e      	mov	r6, r1
 8006752:	f105 0174 	add.w	r1, r5, #116	; 0x74
 8006756:	f7ff fc0f 	bl	8005f78 <_malloc_r>
 800675a:	4604      	mov	r4, r0
 800675c:	b140      	cbz	r0, 8006770 <__sfmoreglue+0x28>
 800675e:	2100      	movs	r1, #0
 8006760:	e9c0 1600 	strd	r1, r6, [r0]
 8006764:	300c      	adds	r0, #12
 8006766:	60a0      	str	r0, [r4, #8]
 8006768:	f105 0268 	add.w	r2, r5, #104	; 0x68
 800676c:	f7fd fcfa 	bl	8004164 <memset>
 8006770:	4620      	mov	r0, r4
 8006772:	bd70      	pop	{r4, r5, r6, pc}

08006774 <__sfp_lock_acquire>:
 8006774:	4801      	ldr	r0, [pc, #4]	; (800677c <__sfp_lock_acquire+0x8>)
 8006776:	f000 b8b3 	b.w	80068e0 <__retarget_lock_acquire_recursive>
 800677a:	bf00      	nop
 800677c:	20000459 	.word	0x20000459

08006780 <__sfp_lock_release>:
 8006780:	4801      	ldr	r0, [pc, #4]	; (8006788 <__sfp_lock_release+0x8>)
 8006782:	f000 b8ae 	b.w	80068e2 <__retarget_lock_release_recursive>
 8006786:	bf00      	nop
 8006788:	20000459 	.word	0x20000459

0800678c <__sinit_lock_acquire>:
 800678c:	4801      	ldr	r0, [pc, #4]	; (8006794 <__sinit_lock_acquire+0x8>)
 800678e:	f000 b8a7 	b.w	80068e0 <__retarget_lock_acquire_recursive>
 8006792:	bf00      	nop
 8006794:	2000045a 	.word	0x2000045a

08006798 <__sinit_lock_release>:
 8006798:	4801      	ldr	r0, [pc, #4]	; (80067a0 <__sinit_lock_release+0x8>)
 800679a:	f000 b8a2 	b.w	80068e2 <__retarget_lock_release_recursive>
 800679e:	bf00      	nop
 80067a0:	2000045a 	.word	0x2000045a

080067a4 <__sinit>:
 80067a4:	b510      	push	{r4, lr}
 80067a6:	4604      	mov	r4, r0
 80067a8:	f7ff fff0 	bl	800678c <__sinit_lock_acquire>
 80067ac:	69a3      	ldr	r3, [r4, #24]
 80067ae:	b11b      	cbz	r3, 80067b8 <__sinit+0x14>
 80067b0:	e8bd 4010 	ldmia.w	sp!, {r4, lr}
 80067b4:	f7ff bff0 	b.w	8006798 <__sinit_lock_release>
 80067b8:	e9c4 3312 	strd	r3, r3, [r4, #72]	; 0x48
 80067bc:	6523      	str	r3, [r4, #80]	; 0x50
 80067be:	4b13      	ldr	r3, [pc, #76]	; (800680c <__sinit+0x68>)
 80067c0:	4a13      	ldr	r2, [pc, #76]	; (8006810 <__sinit+0x6c>)
 80067c2:	681b      	ldr	r3, [r3, #0]
 80067c4:	62a2      	str	r2, [r4, #40]	; 0x28
 80067c6:	42a3      	cmp	r3, r4
 80067c8:	bf08      	it	eq
 80067ca:	2301      	moveq	r3, #1
 80067cc:	4620      	mov	r0, r4
 80067ce:	bf08      	it	eq
 80067d0:	61a3      	streq	r3, [r4, #24]
 80067d2:	f000 f81f 	bl	8006814 <__sfp>
 80067d6:	6060      	str	r0, [r4, #4]
 80067d8:	4620      	mov	r0, r4
 80067da:	f000 f81b 	bl	8006814 <__sfp>
 80067de:	60a0      	str	r0, [r4, #8]
 80067e0:	4620      	mov	r0, r4
 80067e2:	f000 f817 	bl	8006814 <__sfp>
 80067e6:	2200      	movs	r2, #0
 80067e8:	2104      	movs	r1, #4
 80067ea:	60e0      	str	r0, [r4, #12]
 80067ec:	6860      	ldr	r0, [r4, #4]
 80067ee:	f7ff ff81 	bl	80066f4 <std>
 80067f2:	2201      	movs	r2, #1
 80067f4:	2109      	movs	r1, #9
 80067f6:	68a0      	ldr	r0, [r4, #8]
 80067f8:	f7ff ff7c 	bl	80066f4 <std>
 80067fc:	2202      	movs	r2, #2
 80067fe:	2112      	movs	r1, #18
 8006800:	68e0      	ldr	r0, [r4, #12]
 8006802:	f7ff ff77 	bl	80066f4 <std>
 8006806:	2301      	movs	r3, #1
 8006808:	61a3      	str	r3, [r4, #24]
 800680a:	e7d1      	b.n	80067b0 <__sinit+0xc>
 800680c:	080081cc 	.word	0x080081cc
 8006810:	0800673d 	.word	0x0800673d

08006814 <__sfp>:
 8006814:	b5f8      	push	{r3, r4, r5, r6, r7, lr}
 8006816:	4607      	mov	r7, r0
 8006818:	f7ff ffac 	bl	8006774 <__sfp_lock_acquire>
 800681c:	4b1e      	ldr	r3, [pc, #120]	; (8006898 <__sfp+0x84>)
 800681e:	681e      	ldr	r6, [r3, #0]
 8006820:	69b3      	ldr	r3, [r6, #24]
 8006822:	b913      	cbnz	r3, 800682a <__sfp+0x16>
 8006824:	4630      	mov	r0, r6
 8006826:	f7ff ffbd 	bl	80067a4 <__sinit>
 800682a:	3648      	adds	r6, #72	; 0x48
 800682c:	e9d6 3401 	ldrd	r3, r4, [r6, #4]
 8006830:	3b01      	subs	r3, #1
 8006832:	d503      	bpl.n	800683c <__sfp+0x28>
 8006834:	6833      	ldr	r3, [r6, #0]
 8006836:	b30b      	cbz	r3, 800687c <__sfp+0x68>
 8006838:	6836      	ldr	r6, [r6, #0]
 800683a:	e7f7      	b.n	800682c <__sfp+0x18>
 800683c:	f9b4 500c 	ldrsh.w	r5, [r4, #12]
 8006840:	b9d5      	cbnz	r5, 8006878 <__sfp+0x64>
 8006842:	4b16      	ldr	r3, [pc, #88]	; (800689c <__sfp+0x88>)
 8006844:	f104 0058 	add.w	r0, r4, #88	; 0x58
 8006848:	60e3      	str	r3, [r4, #12]
 800684a:	6665      	str	r5, [r4, #100]	; 0x64
 800684c:	f000 f847 	bl	80068de <__retarget_lock_init_recursive>
 8006850:	f7ff ff96 	bl	8006780 <__sfp_lock_release>
 8006854:	2208      	movs	r2, #8
 8006856:	4629      	mov	r1, r5
 8006858:	e9c4 5501 	strd	r5, r5, [r4, #4]
 800685c:	e9c4 5504 	strd	r5, r5, [r4, #16]
 8006860:	6025      	str	r5, [r4, #0]
 8006862:	61a5      	str	r5, [r4, #24]
 8006864:	f104 005c 	add.w	r0, r4, #92	; 0x5c
 8006868:	f7fd fc7c 	bl	8004164 <memset>
 800686c:	e9c4 550d 	strd	r5, r5, [r4, #52]	; 0x34
 8006870:	e9c4 5512 	strd	r5, r5, [r4, #72]	; 0x48
 8006874:	4620      	mov	r0, r4
 8006876:	bdf8      	pop	{r3, r4, r5, r6, r7, pc}
 8006878:	3468      	adds	r4, #104	; 0x68
 800687a:	e7d9      	b.n	8006830 <__sfp+0x1c>
 800687c:	2104      	movs	r1, #4
 800687e:	4638      	mov	r0, r7
 8006880:	f7ff ff62 	bl	8006748 <__sfmoreglue>
 8006884:	4604      	mov	r4, r0
 8006886:	6030      	str	r0, [r6, #0]
 8006888:	2800      	cmp	r0, #0
 800688a:	d1d5      	bne.n	8006838 <__sfp+0x24>
 800688c:	f7ff ff78 	bl	8006780 <__sfp_lock_release>
 8006890:	230c      	movs	r3, #12
 8006892:	603b      	str	r3, [r7, #0]
 8006894:	e7ee      	b.n	8006874 <__sfp+0x60>
 8006896:	bf00      	nop
 8006898:	080081cc 	.word	0x080081cc
 800689c:	ffff0001 	.word	0xffff0001

080068a0 <_fwalk_reent>:
 80068a0:	e92d 43f8 	stmdb	sp!, {r3, r4, r5, r6, r7, r8, r9, lr}
 80068a4:	4606      	mov	r6, r0
 80068a6:	4688      	mov	r8, r1
 80068a8:	2700      	movs	r7, #0
 80068aa:	f100 0448 	add.w	r4, r0, #72	; 0x48
 80068ae:	e9d4 9501 	ldrd	r9, r5, [r4, #4]
 80068b2:	f1b9 0901 	subs.w	r9, r9, #1
 80068b6:	d505      	bpl.n	80068c4 <_fwalk_reent+0x24>
 80068b8:	6824      	ldr	r4, [r4, #0]
 80068ba:	2c00      	cmp	r4, #0
 80068bc:	d1f7      	bne.n	80068ae <_fwalk_reent+0xe>
 80068be:	4638      	mov	r0, r7
 80068c0:	e8bd 83f8 	ldmia.w	sp!, {r3, r4, r5, r6, r7, r8, r9, pc}
 80068c4:	89ab      	ldrh	r3, [r5, #12]
 80068c6:	2b01      	cmp	r3, #1
 80068c8:	d907      	bls.n	80068da <_fwalk_reent+0x3a>
 80068ca:	f9b5 300e 	ldrsh.w	r3, [r5, #14]
 80068ce:	3301      	adds	r3, #1
 80068d0:	d003      	beq.n	80068da <_fwalk_reent+0x3a>
 80068d2:	4629      	mov	r1, r5
 80068d4:	4630      	mov	r0, r6
 80068d6:	47c0      	blx	r8
 80068d8:	4307      	orrs	r7, r0
 80068da:	3568      	adds	r5, #104	; 0x68
 80068dc:	e7e9      	b.n	80068b2 <_fwalk_reent+0x12>

080068de <__retarget_lock_init_recursive>:
 80068de:	4770      	bx	lr

080068e0 <__retarget_lock_acquire_recursive>:
 80068e0:	4770      	bx	lr

080068e2 <__retarget_lock_release_recursive>:
 80068e2:	4770      	bx	lr

080068e4 <__swhatbuf_r>:
 80068e4:	b570      	push	{r4, r5, r6, lr}
 80068e6:	460e      	mov	r6, r1
 80068e8:	f9b1 100e 	ldrsh.w	r1, [r1, #14]
 80068ec:	4614      	mov	r4, r2
 80068ee:	2900      	cmp	r1, #0
 80068f0:	461d      	mov	r5, r3
 80068f2:	b096      	sub	sp, #88	; 0x58
 80068f4:	da08      	bge.n	8006908 <__swhatbuf_r+0x24>
 80068f6:	2200      	movs	r2, #0
 80068f8:	f9b6 300c 	ldrsh.w	r3, [r6, #12]
 80068fc:	602a      	str	r2, [r5, #0]
 80068fe:	061a      	lsls	r2, r3, #24
 8006900:	d410      	bmi.n	8006924 <__swhatbuf_r+0x40>
 8006902:	f44f 6380 	mov.w	r3, #1024	; 0x400
 8006906:	e00e      	b.n	8006926 <__swhatbuf_r+0x42>
 8006908:	466a      	mov	r2, sp
 800690a:	f000 f8fb 	bl	8006b04 <_fstat_r>
 800690e:	2800      	cmp	r0, #0
 8006910:	dbf1      	blt.n	80068f6 <__swhatbuf_r+0x12>
 8006912:	9a01      	ldr	r2, [sp, #4]
 8006914:	f402 4270 	and.w	r2, r2, #61440	; 0xf000
 8006918:	f5a2 5300 	sub.w	r3, r2, #8192	; 0x2000
 800691c:	425a      	negs	r2, r3
 800691e:	415a      	adcs	r2, r3
 8006920:	602a      	str	r2, [r5, #0]
 8006922:	e7ee      	b.n	8006902 <__swhatbuf_r+0x1e>
 8006924:	2340      	movs	r3, #64	; 0x40
 8006926:	2000      	movs	r0, #0
 8006928:	6023      	str	r3, [r4, #0]
 800692a:	b016      	add	sp, #88	; 0x58
 800692c:	bd70      	pop	{r4, r5, r6, pc}
	...

08006930 <__smakebuf_r>:
 8006930:	898b      	ldrh	r3, [r1, #12]
 8006932:	b573      	push	{r0, r1, r4, r5, r6, lr}
 8006934:	079d      	lsls	r5, r3, #30
 8006936:	4606      	mov	r6, r0
 8006938:	460c      	mov	r4, r1
 800693a:	d507      	bpl.n	800694c <__smakebuf_r+0x1c>
 800693c:	f104 0347 	add.w	r3, r4, #71	; 0x47
 8006940:	6023      	str	r3, [r4, #0]
 8006942:	6123      	str	r3, [r4, #16]
 8006944:	2301      	movs	r3, #1
 8006946:	6163      	str	r3, [r4, #20]
 8006948:	b002      	add	sp, #8
 800694a:	bd70      	pop	{r4, r5, r6, pc}
 800694c:	466a      	mov	r2, sp
 800694e:	ab01      	add	r3, sp, #4
 8006950:	f7ff ffc8 	bl	80068e4 <__swhatbuf_r>
 8006954:	9900      	ldr	r1, [sp, #0]
 8006956:	4605      	mov	r5, r0
 8006958:	4630      	mov	r0, r6
 800695a:	f7ff fb0d 	bl	8005f78 <_malloc_r>
 800695e:	b948      	cbnz	r0, 8006974 <__smakebuf_r+0x44>
 8006960:	f9b4 300c 	ldrsh.w	r3, [r4, #12]
 8006964:	059a      	lsls	r2, r3, #22
 8006966:	d4ef      	bmi.n	8006948 <__smakebuf_r+0x18>
 8006968:	f023 0303 	bic.w	r3, r3, #3
 800696c:	f043 0302 	orr.w	r3, r3, #2
 8006970:	81a3      	strh	r3, [r4, #12]
 8006972:	e7e3      	b.n	800693c <__smakebuf_r+0xc>
 8006974:	4b0d      	ldr	r3, [pc, #52]	; (80069ac <__smakebuf_r+0x7c>)
 8006976:	62b3      	str	r3, [r6, #40]	; 0x28
 8006978:	89a3      	ldrh	r3, [r4, #12]
 800697a:	6020      	str	r0, [r4, #0]
 800697c:	f043 0380 	orr.w	r3, r3, #128	; 0x80
 8006980:	81a3      	strh	r3, [r4, #12]
 8006982:	9b00      	ldr	r3, [sp, #0]
 8006984:	6120      	str	r0, [r4, #16]
 8006986:	6163      	str	r3, [r4, #20]
 8006988:	9b01      	ldr	r3, [sp, #4]
 800698a:	b15b      	cbz	r3, 80069a4 <__smakebuf_r+0x74>
 800698c:	4630      	mov	r0, r6
 800698e:	f9b4 100e 	ldrsh.w	r1, [r4, #14]
 8006992:	f000 f8c9 	bl	8006b28 <_isatty_r>
 8006996:	b128      	cbz	r0, 80069a4 <__smakebuf_r+0x74>
 8006998:	89a3      	ldrh	r3, [r4, #12]
 800699a:	f023 0303 	bic.w	r3, r3, #3
 800699e:	f043 0301 	orr.w	r3, r3, #1
 80069a2:	81a3      	strh	r3, [r4, #12]
 80069a4:	89a0      	ldrh	r0, [r4, #12]
 80069a6:	4305      	orrs	r5, r0
 80069a8:	81a5      	strh	r5, [r4, #12]
 80069aa:	e7cd      	b.n	8006948 <__smakebuf_r+0x18>
 80069ac:	0800673d 	.word	0x0800673d

080069b0 <_raise_r>:
 80069b0:	291f      	cmp	r1, #31
 80069b2:	b538      	push	{r3, r4, r5, lr}
 80069b4:	4604      	mov	r4, r0
 80069b6:	460d      	mov	r5, r1
 80069b8:	d904      	bls.n	80069c4 <_raise_r+0x14>
 80069ba:	2316      	movs	r3, #22
 80069bc:	6003      	str	r3, [r0, #0]
 80069be:	f04f 30ff 	mov.w	r0, #4294967295
 80069c2:	bd38      	pop	{r3, r4, r5, pc}
 80069c4:	6c42      	ldr	r2, [r0, #68]	; 0x44
 80069c6:	b112      	cbz	r2, 80069ce <_raise_r+0x1e>
 80069c8:	f852 3021 	ldr.w	r3, [r2, r1, lsl #2]
 80069cc:	b94b      	cbnz	r3, 80069e2 <_raise_r+0x32>
 80069ce:	4620      	mov	r0, r4
 80069d0:	f000 f830 	bl	8006a34 <_getpid_r>
 80069d4:	462a      	mov	r2, r5
 80069d6:	4601      	mov	r1, r0
 80069d8:	4620      	mov	r0, r4
 80069da:	e8bd 4038 	ldmia.w	sp!, {r3, r4, r5, lr}
 80069de:	f000 b817 	b.w	8006a10 <_kill_r>
 80069e2:	2b01      	cmp	r3, #1
 80069e4:	d00a      	beq.n	80069fc <_raise_r+0x4c>
 80069e6:	1c59      	adds	r1, r3, #1
 80069e8:	d103      	bne.n	80069f2 <_raise_r+0x42>
 80069ea:	2316      	movs	r3, #22
 80069ec:	6003      	str	r3, [r0, #0]
 80069ee:	2001      	movs	r0, #1
 80069f0:	e7e7      	b.n	80069c2 <_raise_r+0x12>
 80069f2:	2400      	movs	r4, #0
 80069f4:	4628      	mov	r0, r5
 80069f6:	f842 4025 	str.w	r4, [r2, r5, lsl #2]
 80069fa:	4798      	blx	r3
 80069fc:	2000      	movs	r0, #0
 80069fe:	e7e0      	b.n	80069c2 <_raise_r+0x12>

08006a00 <raise>:
 8006a00:	4b02      	ldr	r3, [pc, #8]	; (8006a0c <raise+0xc>)
 8006a02:	4601      	mov	r1, r0
 8006a04:	6818      	ldr	r0, [r3, #0]
 8006a06:	f7ff bfd3 	b.w	80069b0 <_raise_r>
 8006a0a:	bf00      	nop
 8006a0c:	20000048 	.word	0x20000048

08006a10 <_kill_r>:
 8006a10:	b538      	push	{r3, r4, r5, lr}
 8006a12:	2300      	movs	r3, #0
 8006a14:	4d06      	ldr	r5, [pc, #24]	; (8006a30 <_kill_r+0x20>)
 8006a16:	4604      	mov	r4, r0
 8006a18:	4608      	mov	r0, r1
 8006a1a:	4611      	mov	r1, r2
 8006a1c:	602b      	str	r3, [r5, #0]
 8006a1e:	f7fb fdbb 	bl	8002598 <_kill>
 8006a22:	1c43      	adds	r3, r0, #1
 8006a24:	d102      	bne.n	8006a2c <_kill_r+0x1c>
 8006a26:	682b      	ldr	r3, [r5, #0]
 8006a28:	b103      	cbz	r3, 8006a2c <_kill_r+0x1c>
 8006a2a:	6023      	str	r3, [r4, #0]
 8006a2c:	bd38      	pop	{r3, r4, r5, pc}
 8006a2e:	bf00      	nop
 8006a30:	20000454 	.word	0x20000454

08006a34 <_getpid_r>:
 8006a34:	f7fb bdae 	b.w	8002594 <_getpid>

08006a38 <__sread>:
 8006a38:	b510      	push	{r4, lr}
 8006a3a:	460c      	mov	r4, r1
 8006a3c:	f9b1 100e 	ldrsh.w	r1, [r1, #14]
 8006a40:	f000 f894 	bl	8006b6c <_read_r>
 8006a44:	2800      	cmp	r0, #0
 8006a46:	bfab      	itete	ge
 8006a48:	6d63      	ldrge	r3, [r4, #84]	; 0x54
 8006a4a:	89a3      	ldrhlt	r3, [r4, #12]
 8006a4c:	181b      	addge	r3, r3, r0
 8006a4e:	f423 5380 	biclt.w	r3, r3, #4096	; 0x1000
 8006a52:	bfac      	ite	ge
 8006a54:	6563      	strge	r3, [r4, #84]	; 0x54
 8006a56:	81a3      	strhlt	r3, [r4, #12]
 8006a58:	bd10      	pop	{r4, pc}

08006a5a <__swrite>:
 8006a5a:	e92d 41f0 	stmdb	sp!, {r4, r5, r6, r7, r8, lr}
 8006a5e:	461f      	mov	r7, r3
 8006a60:	898b      	ldrh	r3, [r1, #12]
 8006a62:	4605      	mov	r5, r0
 8006a64:	05db      	lsls	r3, r3, #23
 8006a66:	460c      	mov	r4, r1
 8006a68:	4616      	mov	r6, r2
 8006a6a:	d505      	bpl.n	8006a78 <__swrite+0x1e>
 8006a6c:	2302      	movs	r3, #2
 8006a6e:	2200      	movs	r2, #0
 8006a70:	f9b1 100e 	ldrsh.w	r1, [r1, #14]
 8006a74:	f000 f868 	bl	8006b48 <_lseek_r>
 8006a78:	89a3      	ldrh	r3, [r4, #12]
 8006a7a:	4632      	mov	r2, r6
 8006a7c:	f423 5380 	bic.w	r3, r3, #4096	; 0x1000
 8006a80:	81a3      	strh	r3, [r4, #12]
 8006a82:	4628      	mov	r0, r5
 8006a84:	463b      	mov	r3, r7
 8006a86:	f9b4 100e 	ldrsh.w	r1, [r4, #14]
 8006a8a:	e8bd 41f0 	ldmia.w	sp!, {r4, r5, r6, r7, r8, lr}
 8006a8e:	f000 b817 	b.w	8006ac0 <_write_r>

08006a92 <__sseek>:
 8006a92:	b510      	push	{r4, lr}
 8006a94:	460c      	mov	r4, r1
 8006a96:	f9b1 100e 	ldrsh.w	r1, [r1, #14]
 8006a9a:	f000 f855 	bl	8006b48 <_lseek_r>
 8006a9e:	1c43      	adds	r3, r0, #1
 8006aa0:	89a3      	ldrh	r3, [r4, #12]
 8006aa2:	bf15      	itete	ne
 8006aa4:	6560      	strne	r0, [r4, #84]	; 0x54
 8006aa6:	f423 5380 	biceq.w	r3, r3, #4096	; 0x1000
 8006aaa:	f443 5380 	orrne.w	r3, r3, #4096	; 0x1000
 8006aae:	81a3      	strheq	r3, [r4, #12]
 8006ab0:	bf18      	it	ne
 8006ab2:	81a3      	strhne	r3, [r4, #12]
 8006ab4:	bd10      	pop	{r4, pc}

08006ab6 <__sclose>:
 8006ab6:	f9b1 100e 	ldrsh.w	r1, [r1, #14]
 8006aba:	f000 b813 	b.w	8006ae4 <_close_r>
	...

08006ac0 <_write_r>:
 8006ac0:	b538      	push	{r3, r4, r5, lr}
 8006ac2:	4604      	mov	r4, r0
 8006ac4:	4608      	mov	r0, r1
 8006ac6:	4611      	mov	r1, r2
 8006ac8:	2200      	movs	r2, #0
 8006aca:	4d05      	ldr	r5, [pc, #20]	; (8006ae0 <_write_r+0x20>)
 8006acc:	602a      	str	r2, [r5, #0]
 8006ace:	461a      	mov	r2, r3
 8006ad0:	f7fb fd7e 	bl	80025d0 <_write>
 8006ad4:	1c43      	adds	r3, r0, #1
 8006ad6:	d102      	bne.n	8006ade <_write_r+0x1e>
 8006ad8:	682b      	ldr	r3, [r5, #0]
 8006ada:	b103      	cbz	r3, 8006ade <_write_r+0x1e>
 8006adc:	6023      	str	r3, [r4, #0]
 8006ade:	bd38      	pop	{r3, r4, r5, pc}
 8006ae0:	20000454 	.word	0x20000454

08006ae4 <_close_r>:
 8006ae4:	b538      	push	{r3, r4, r5, lr}
 8006ae6:	2300      	movs	r3, #0
 8006ae8:	4d05      	ldr	r5, [pc, #20]	; (8006b00 <_close_r+0x1c>)
 8006aea:	4604      	mov	r4, r0
 8006aec:	4608      	mov	r0, r1
 8006aee:	602b      	str	r3, [r5, #0]
 8006af0:	f7fb fd7c 	bl	80025ec <_close>
 8006af4:	1c43      	adds	r3, r0, #1
 8006af6:	d102      	bne.n	8006afe <_close_r+0x1a>
 8006af8:	682b      	ldr	r3, [r5, #0]
 8006afa:	b103      	cbz	r3, 8006afe <_close_r+0x1a>
 8006afc:	6023      	str	r3, [r4, #0]
 8006afe:	bd38      	pop	{r3, r4, r5, pc}
 8006b00:	20000454 	.word	0x20000454

08006b04 <_fstat_r>:
 8006b04:	b538      	push	{r3, r4, r5, lr}
 8006b06:	2300      	movs	r3, #0
 8006b08:	4d06      	ldr	r5, [pc, #24]	; (8006b24 <_fstat_r+0x20>)
 8006b0a:	4604      	mov	r4, r0
 8006b0c:	4608      	mov	r0, r1
 8006b0e:	4611      	mov	r1, r2
 8006b10:	602b      	str	r3, [r5, #0]
 8006b12:	f7fb fd6e 	bl	80025f2 <_fstat>
 8006b16:	1c43      	adds	r3, r0, #1
 8006b18:	d102      	bne.n	8006b20 <_fstat_r+0x1c>
 8006b1a:	682b      	ldr	r3, [r5, #0]
 8006b1c:	b103      	cbz	r3, 8006b20 <_fstat_r+0x1c>
 8006b1e:	6023      	str	r3, [r4, #0]
 8006b20:	bd38      	pop	{r3, r4, r5, pc}
 8006b22:	bf00      	nop
 8006b24:	20000454 	.word	0x20000454

08006b28 <_isatty_r>:
 8006b28:	b538      	push	{r3, r4, r5, lr}
 8006b2a:	2300      	movs	r3, #0
 8006b2c:	4d05      	ldr	r5, [pc, #20]	; (8006b44 <_isatty_r+0x1c>)
 8006b2e:	4604      	mov	r4, r0
 8006b30:	4608      	mov	r0, r1
 8006b32:	602b      	str	r3, [r5, #0]
 8006b34:	f7fb fd62 	bl	80025fc <_isatty>
 8006b38:	1c43      	adds	r3, r0, #1
 8006b3a:	d102      	bne.n	8006b42 <_isatty_r+0x1a>
 8006b3c:	682b      	ldr	r3, [r5, #0]
 8006b3e:	b103      	cbz	r3, 8006b42 <_isatty_r+0x1a>
 8006b40:	6023      	str	r3, [r4, #0]
 8006b42:	bd38      	pop	{r3, r4, r5, pc}
 8006b44:	20000454 	.word	0x20000454

08006b48 <_lseek_r>:
 8006b48:	b538      	push	{r3, r4, r5, lr}
 8006b4a:	4604      	mov	r4, r0
 8006b4c:	4608      	mov	r0, r1
 8006b4e:	4611      	mov	r1, r2
 8006b50:	2200      	movs	r2, #0
 8006b52:	4d05      	ldr	r5, [pc, #20]	; (8006b68 <_lseek_r+0x20>)
 8006b54:	602a      	str	r2, [r5, #0]
 8006b56:	461a      	mov	r2, r3
 8006b58:	f7fb fd52 	bl	8002600 <_lseek>
 8006b5c:	1c43      	adds	r3, r0, #1
 8006b5e:	d102      	bne.n	8006b66 <_lseek_r+0x1e>
 8006b60:	682b      	ldr	r3, [r5, #0]
 8006b62:	b103      	cbz	r3, 8006b66 <_lseek_r+0x1e>
 8006b64:	6023      	str	r3, [r4, #0]
 8006b66:	bd38      	pop	{r3, r4, r5, pc}
 8006b68:	20000454 	.word	0x20000454

08006b6c <_read_r>:
 8006b6c:	b538      	push	{r3, r4, r5, lr}
 8006b6e:	4604      	mov	r4, r0
 8006b70:	4608      	mov	r0, r1
 8006b72:	4611      	mov	r1, r2
 8006b74:	2200      	movs	r2, #0
 8006b76:	4d05      	ldr	r5, [pc, #20]	; (8006b8c <_read_r+0x20>)
 8006b78:	602a      	str	r2, [r5, #0]
 8006b7a:	461a      	mov	r2, r3
 8006b7c:	f7fb fd1a 	bl	80025b4 <_read>
 8006b80:	1c43      	adds	r3, r0, #1
 8006b82:	d102      	bne.n	8006b8a <_read_r+0x1e>
 8006b84:	682b      	ldr	r3, [r5, #0]
 8006b86:	b103      	cbz	r3, 8006b8a <_read_r+0x1e>
 8006b88:	6023      	str	r3, [r4, #0]
 8006b8a:	bd38      	pop	{r3, r4, r5, pc}
 8006b8c:	20000454 	.word	0x20000454

08006b90 <sin>:
 8006b90:	b530      	push	{r4, r5, lr}
 8006b92:	4a20      	ldr	r2, [pc, #128]	; (8006c14 <sin+0x84>)
 8006b94:	f021 4300 	bic.w	r3, r1, #2147483648	; 0x80000000
 8006b98:	4293      	cmp	r3, r2
 8006b9a:	b087      	sub	sp, #28
 8006b9c:	dc06      	bgt.n	8006bac <sin+0x1c>
 8006b9e:	2300      	movs	r3, #0
 8006ba0:	2200      	movs	r2, #0
 8006ba2:	9300      	str	r3, [sp, #0]
 8006ba4:	2300      	movs	r3, #0
 8006ba6:	f001 f92b 	bl	8007e00 <__kernel_sin>
 8006baa:	e006      	b.n	8006bba <sin+0x2a>
 8006bac:	4a1a      	ldr	r2, [pc, #104]	; (8006c18 <sin+0x88>)
 8006bae:	4293      	cmp	r3, r2
 8006bb0:	dd05      	ble.n	8006bbe <sin+0x2e>
 8006bb2:	4602      	mov	r2, r0
 8006bb4:	460b      	mov	r3, r1
 8006bb6:	f7f9 fad7 	bl	8000168 <__aeabi_dsub>
 8006bba:	b007      	add	sp, #28
 8006bbc:	bd30      	pop	{r4, r5, pc}
 8006bbe:	aa02      	add	r2, sp, #8
 8006bc0:	f000 fa76 	bl	80070b0 <__ieee754_rem_pio2>
 8006bc4:	f000 0003 	and.w	r0, r0, #3
 8006bc8:	2801      	cmp	r0, #1
 8006bca:	d009      	beq.n	8006be0 <sin+0x50>
 8006bcc:	2802      	cmp	r0, #2
 8006bce:	d00e      	beq.n	8006bee <sin+0x5e>
 8006bd0:	b9c0      	cbnz	r0, 8006c04 <sin+0x74>
 8006bd2:	e9dd 0102 	ldrd	r0, r1, [sp, #8]
 8006bd6:	2301      	movs	r3, #1
 8006bd8:	9300      	str	r3, [sp, #0]
 8006bda:	e9dd 2304 	ldrd	r2, r3, [sp, #16]
 8006bde:	e7e2      	b.n	8006ba6 <sin+0x16>
 8006be0:	e9dd 2304 	ldrd	r2, r3, [sp, #16]
 8006be4:	e9dd 0102 	ldrd	r0, r1, [sp, #8]
 8006be8:	f000 fd0a 	bl	8007600 <__kernel_cos>
 8006bec:	e7e5      	b.n	8006bba <sin+0x2a>
 8006bee:	2301      	movs	r3, #1
 8006bf0:	e9dd 0102 	ldrd	r0, r1, [sp, #8]
 8006bf4:	9300      	str	r3, [sp, #0]
 8006bf6:	e9dd 2304 	ldrd	r2, r3, [sp, #16]
 8006bfa:	f001 f901 	bl	8007e00 <__kernel_sin>
 8006bfe:	f101 4100 	add.w	r1, r1, #2147483648	; 0x80000000
 8006c02:	e7da      	b.n	8006bba <sin+0x2a>
 8006c04:	e9dd 2304 	ldrd	r2, r3, [sp, #16]
 8006c08:	e9dd 0102 	ldrd	r0, r1, [sp, #8]
 8006c0c:	f000 fcf8 	bl	8007600 <__kernel_cos>
 8006c10:	e7f5      	b.n	8006bfe <sin+0x6e>
 8006c12:	bf00      	nop
 8006c14:	3fe921fb 	.word	0x3fe921fb
 8006c18:	7fefffff 	.word	0x7fefffff

08006c1c <asin>:
 8006c1c:	b5f8      	push	{r3, r4, r5, r6, r7, lr}
 8006c1e:	4604      	mov	r4, r0
 8006c20:	460d      	mov	r5, r1
 8006c22:	f000 f849 	bl	8006cb8 <__ieee754_asin>
 8006c26:	4622      	mov	r2, r4
 8006c28:	4606      	mov	r6, r0
 8006c2a:	460f      	mov	r7, r1
 8006c2c:	462b      	mov	r3, r5
 8006c2e:	4620      	mov	r0, r4
 8006c30:	4629      	mov	r1, r5
 8006c32:	f7f9 feeb 	bl	8000a0c <__aeabi_dcmpun>
 8006c36:	b988      	cbnz	r0, 8006c5c <asin+0x40>
 8006c38:	4620      	mov	r0, r4
 8006c3a:	4629      	mov	r1, r5
 8006c3c:	f001 f996 	bl	8007f6c <fabs>
 8006c40:	2200      	movs	r2, #0
 8006c42:	4b08      	ldr	r3, [pc, #32]	; (8006c64 <asin+0x48>)
 8006c44:	f7f9 fed8 	bl	80009f8 <__aeabi_dcmpgt>
 8006c48:	b140      	cbz	r0, 8006c5c <asin+0x40>
 8006c4a:	f7fd fa61 	bl	8004110 <__errno>
 8006c4e:	2321      	movs	r3, #33	; 0x21
 8006c50:	6003      	str	r3, [r0, #0]
 8006c52:	4805      	ldr	r0, [pc, #20]	; (8006c68 <asin+0x4c>)
 8006c54:	e8bd 40f8 	ldmia.w	sp!, {r3, r4, r5, r6, r7, lr}
 8006c58:	f001 ba0e 	b.w	8008078 <nan>
 8006c5c:	4630      	mov	r0, r6
 8006c5e:	4639      	mov	r1, r7
 8006c60:	bdf8      	pop	{r3, r4, r5, r6, r7, pc}
 8006c62:	bf00      	nop
 8006c64:	3ff00000 	.word	0x3ff00000
 8006c68:	08008427 	.word	0x08008427

08006c6c <sqrt>:
 8006c6c:	b5f8      	push	{r3, r4, r5, r6, r7, lr}
 8006c6e:	4606      	mov	r6, r0
 8006c70:	460f      	mov	r7, r1
 8006c72:	f000 fc15 	bl	80074a0 <__ieee754_sqrt>
 8006c76:	4632      	mov	r2, r6
 8006c78:	4604      	mov	r4, r0
 8006c7a:	460d      	mov	r5, r1
 8006c7c:	463b      	mov	r3, r7
 8006c7e:	4630      	mov	r0, r6
 8006c80:	4639      	mov	r1, r7
 8006c82:	f7f9 fec3 	bl	8000a0c <__aeabi_dcmpun>
 8006c86:	b990      	cbnz	r0, 8006cae <sqrt+0x42>
 8006c88:	2200      	movs	r2, #0
 8006c8a:	2300      	movs	r3, #0
 8006c8c:	4630      	mov	r0, r6
 8006c8e:	4639      	mov	r1, r7
 8006c90:	f7f9 fe94 	bl	80009bc <__aeabi_dcmplt>
 8006c94:	b158      	cbz	r0, 8006cae <sqrt+0x42>
 8006c96:	f7fd fa3b 	bl	8004110 <__errno>
 8006c9a:	2321      	movs	r3, #33	; 0x21
 8006c9c:	2200      	movs	r2, #0
 8006c9e:	6003      	str	r3, [r0, #0]
 8006ca0:	2300      	movs	r3, #0
 8006ca2:	4610      	mov	r0, r2
 8006ca4:	4619      	mov	r1, r3
 8006ca6:	f7f9 fd41 	bl	800072c <__aeabi_ddiv>
 8006caa:	4604      	mov	r4, r0
 8006cac:	460d      	mov	r5, r1
 8006cae:	4620      	mov	r0, r4
 8006cb0:	4629      	mov	r1, r5
 8006cb2:	bdf8      	pop	{r3, r4, r5, r6, r7, pc}
 8006cb4:	0000      	movs	r0, r0
	...

08006cb8 <__ieee754_asin>:
 8006cb8:	e92d 4ff0 	stmdb	sp!, {r4, r5, r6, r7, r8, r9, sl, fp, lr}
 8006cbc:	4bc4      	ldr	r3, [pc, #784]	; (8006fd0 <__ieee754_asin+0x318>)
 8006cbe:	f021 4600 	bic.w	r6, r1, #2147483648	; 0x80000000
 8006cc2:	b087      	sub	sp, #28
 8006cc4:	429e      	cmp	r6, r3
 8006cc6:	4602      	mov	r2, r0
 8006cc8:	4604      	mov	r4, r0
 8006cca:	460d      	mov	r5, r1
 8006ccc:	9105      	str	r1, [sp, #20]
 8006cce:	dd29      	ble.n	8006d24 <__ieee754_asin+0x6c>
 8006cd0:	4603      	mov	r3, r0
 8006cd2:	f106 4640 	add.w	r6, r6, #3221225472	; 0xc0000000
 8006cd6:	f506 1680 	add.w	r6, r6, #1048576	; 0x100000
 8006cda:	4333      	orrs	r3, r6
 8006cdc:	d114      	bne.n	8006d08 <__ieee754_asin+0x50>
 8006cde:	a3a2      	add	r3, pc, #648	; (adr r3, 8006f68 <__ieee754_asin+0x2b0>)
 8006ce0:	e9d3 2300 	ldrd	r2, r3, [r3]
 8006ce4:	f7f9 fbf8 	bl	80004d8 <__aeabi_dmul>
 8006ce8:	a3a1      	add	r3, pc, #644	; (adr r3, 8006f70 <__ieee754_asin+0x2b8>)
 8006cea:	e9d3 2300 	ldrd	r2, r3, [r3]
 8006cee:	4606      	mov	r6, r0
 8006cf0:	460f      	mov	r7, r1
 8006cf2:	4620      	mov	r0, r4
 8006cf4:	4629      	mov	r1, r5
 8006cf6:	f7f9 fbef 	bl	80004d8 <__aeabi_dmul>
 8006cfa:	4602      	mov	r2, r0
 8006cfc:	460b      	mov	r3, r1
 8006cfe:	4630      	mov	r0, r6
 8006d00:	4639      	mov	r1, r7
 8006d02:	f7f9 fa33 	bl	800016c <__adddf3>
 8006d06:	e006      	b.n	8006d16 <__ieee754_asin+0x5e>
 8006d08:	460b      	mov	r3, r1
 8006d0a:	f7f9 fa2d 	bl	8000168 <__aeabi_dsub>
 8006d0e:	4602      	mov	r2, r0
 8006d10:	460b      	mov	r3, r1
 8006d12:	f7f9 fd0b 	bl	800072c <__aeabi_ddiv>
 8006d16:	4604      	mov	r4, r0
 8006d18:	460d      	mov	r5, r1
 8006d1a:	4620      	mov	r0, r4
 8006d1c:	4629      	mov	r1, r5
 8006d1e:	b007      	add	sp, #28
 8006d20:	e8bd 8ff0 	ldmia.w	sp!, {r4, r5, r6, r7, r8, r9, sl, fp, pc}
 8006d24:	4bab      	ldr	r3, [pc, #684]	; (8006fd4 <__ieee754_asin+0x31c>)
 8006d26:	429e      	cmp	r6, r3
 8006d28:	dc0e      	bgt.n	8006d48 <__ieee754_asin+0x90>
 8006d2a:	f1b6 5f79 	cmp.w	r6, #1044381696	; 0x3e400000
 8006d2e:	f280 80ab 	bge.w	8006e88 <__ieee754_asin+0x1d0>
 8006d32:	a391      	add	r3, pc, #580	; (adr r3, 8006f78 <__ieee754_asin+0x2c0>)
 8006d34:	e9d3 2300 	ldrd	r2, r3, [r3]
 8006d38:	f7f9 fa18 	bl	800016c <__adddf3>
 8006d3c:	2200      	movs	r2, #0
 8006d3e:	4ba6      	ldr	r3, [pc, #664]	; (8006fd8 <__ieee754_asin+0x320>)
 8006d40:	f7f9 fe5a 	bl	80009f8 <__aeabi_dcmpgt>
 8006d44:	2800      	cmp	r0, #0
 8006d46:	d1e8      	bne.n	8006d1a <__ieee754_asin+0x62>
 8006d48:	4620      	mov	r0, r4
 8006d4a:	4629      	mov	r1, r5
 8006d4c:	f001 f90e 	bl	8007f6c <fabs>
 8006d50:	4602      	mov	r2, r0
 8006d52:	460b      	mov	r3, r1
 8006d54:	2000      	movs	r0, #0
 8006d56:	49a0      	ldr	r1, [pc, #640]	; (8006fd8 <__ieee754_asin+0x320>)
 8006d58:	f7f9 fa06 	bl	8000168 <__aeabi_dsub>
 8006d5c:	2200      	movs	r2, #0
 8006d5e:	4b9f      	ldr	r3, [pc, #636]	; (8006fdc <__ieee754_asin+0x324>)
 8006d60:	f7f9 fbba 	bl	80004d8 <__aeabi_dmul>
 8006d64:	a386      	add	r3, pc, #536	; (adr r3, 8006f80 <__ieee754_asin+0x2c8>)
 8006d66:	e9d3 2300 	ldrd	r2, r3, [r3]
 8006d6a:	4604      	mov	r4, r0
 8006d6c:	460d      	mov	r5, r1
 8006d6e:	f7f9 fbb3 	bl	80004d8 <__aeabi_dmul>
 8006d72:	a385      	add	r3, pc, #532	; (adr r3, 8006f88 <__ieee754_asin+0x2d0>)
 8006d74:	e9d3 2300 	ldrd	r2, r3, [r3]
 8006d78:	f7f9 f9f8 	bl	800016c <__adddf3>
 8006d7c:	4622      	mov	r2, r4
 8006d7e:	462b      	mov	r3, r5
 8006d80:	f7f9 fbaa 	bl	80004d8 <__aeabi_dmul>
 8006d84:	a382      	add	r3, pc, #520	; (adr r3, 8006f90 <__ieee754_asin+0x2d8>)
 8006d86:	e9d3 2300 	ldrd	r2, r3, [r3]
 8006d8a:	f7f9 f9ed 	bl	8000168 <__aeabi_dsub>
 8006d8e:	4622      	mov	r2, r4
 8006d90:	462b      	mov	r3, r5
 8006d92:	f7f9 fba1 	bl	80004d8 <__aeabi_dmul>
 8006d96:	a380      	add	r3, pc, #512	; (adr r3, 8006f98 <__ieee754_asin+0x2e0>)
 8006d98:	e9d3 2300 	ldrd	r2, r3, [r3]
 8006d9c:	f7f9 f9e6 	bl	800016c <__adddf3>
 8006da0:	4622      	mov	r2, r4
 8006da2:	462b      	mov	r3, r5
 8006da4:	f7f9 fb98 	bl	80004d8 <__aeabi_dmul>
 8006da8:	a37d      	add	r3, pc, #500	; (adr r3, 8006fa0 <__ieee754_asin+0x2e8>)
 8006daa:	e9d3 2300 	ldrd	r2, r3, [r3]
 8006dae:	f7f9 f9db 	bl	8000168 <__aeabi_dsub>
 8006db2:	4622      	mov	r2, r4
 8006db4:	462b      	mov	r3, r5
 8006db6:	f7f9 fb8f 	bl	80004d8 <__aeabi_dmul>
 8006dba:	a37b      	add	r3, pc, #492	; (adr r3, 8006fa8 <__ieee754_asin+0x2f0>)
 8006dbc:	e9d3 2300 	ldrd	r2, r3, [r3]
 8006dc0:	f7f9 f9d4 	bl	800016c <__adddf3>
 8006dc4:	4622      	mov	r2, r4
 8006dc6:	462b      	mov	r3, r5
 8006dc8:	f7f9 fb86 	bl	80004d8 <__aeabi_dmul>
 8006dcc:	a378      	add	r3, pc, #480	; (adr r3, 8006fb0 <__ieee754_asin+0x2f8>)
 8006dce:	e9d3 2300 	ldrd	r2, r3, [r3]
 8006dd2:	e9cd 0100 	strd	r0, r1, [sp]
 8006dd6:	4620      	mov	r0, r4
 8006dd8:	4629      	mov	r1, r5
 8006dda:	f7f9 fb7d 	bl	80004d8 <__aeabi_dmul>
 8006dde:	a376      	add	r3, pc, #472	; (adr r3, 8006fb8 <__ieee754_asin+0x300>)
 8006de0:	e9d3 2300 	ldrd	r2, r3, [r3]
 8006de4:	f7f9 f9c0 	bl	8000168 <__aeabi_dsub>
 8006de8:	4622      	mov	r2, r4
 8006dea:	462b      	mov	r3, r5
 8006dec:	f7f9 fb74 	bl	80004d8 <__aeabi_dmul>
 8006df0:	a373      	add	r3, pc, #460	; (adr r3, 8006fc0 <__ieee754_asin+0x308>)
 8006df2:	e9d3 2300 	ldrd	r2, r3, [r3]
 8006df6:	f7f9 f9b9 	bl	800016c <__adddf3>
 8006dfa:	4622      	mov	r2, r4
 8006dfc:	462b      	mov	r3, r5
 8006dfe:	f7f9 fb6b 	bl	80004d8 <__aeabi_dmul>
 8006e02:	a371      	add	r3, pc, #452	; (adr r3, 8006fc8 <__ieee754_asin+0x310>)
 8006e04:	e9d3 2300 	ldrd	r2, r3, [r3]
 8006e08:	f7f9 f9ae 	bl	8000168 <__aeabi_dsub>
 8006e0c:	4622      	mov	r2, r4
 8006e0e:	462b      	mov	r3, r5
 8006e10:	f7f9 fb62 	bl	80004d8 <__aeabi_dmul>
 8006e14:	4b70      	ldr	r3, [pc, #448]	; (8006fd8 <__ieee754_asin+0x320>)
 8006e16:	2200      	movs	r2, #0
 8006e18:	f7f9 f9a8 	bl	800016c <__adddf3>
 8006e1c:	e9cd 0102 	strd	r0, r1, [sp, #8]
 8006e20:	4620      	mov	r0, r4
 8006e22:	4629      	mov	r1, r5
 8006e24:	f000 fb3c 	bl	80074a0 <__ieee754_sqrt>
 8006e28:	4b6d      	ldr	r3, [pc, #436]	; (8006fe0 <__ieee754_asin+0x328>)
 8006e2a:	4682      	mov	sl, r0
 8006e2c:	429e      	cmp	r6, r3
 8006e2e:	468b      	mov	fp, r1
 8006e30:	f340 80d8 	ble.w	8006fe4 <__ieee754_asin+0x32c>
 8006e34:	e9dd 2302 	ldrd	r2, r3, [sp, #8]
 8006e38:	e9dd 0100 	ldrd	r0, r1, [sp]
 8006e3c:	f7f9 fc76 	bl	800072c <__aeabi_ddiv>
 8006e40:	4652      	mov	r2, sl
 8006e42:	465b      	mov	r3, fp
 8006e44:	f7f9 fb48 	bl	80004d8 <__aeabi_dmul>
 8006e48:	4652      	mov	r2, sl
 8006e4a:	465b      	mov	r3, fp
 8006e4c:	f7f9 f98e 	bl	800016c <__adddf3>
 8006e50:	4602      	mov	r2, r0
 8006e52:	460b      	mov	r3, r1
 8006e54:	f7f9 f98a 	bl	800016c <__adddf3>
 8006e58:	a345      	add	r3, pc, #276	; (adr r3, 8006f70 <__ieee754_asin+0x2b8>)
 8006e5a:	e9d3 2300 	ldrd	r2, r3, [r3]
 8006e5e:	f7f9 f983 	bl	8000168 <__aeabi_dsub>
 8006e62:	4602      	mov	r2, r0
 8006e64:	460b      	mov	r3, r1
 8006e66:	a140      	add	r1, pc, #256	; (adr r1, 8006f68 <__ieee754_asin+0x2b0>)
 8006e68:	e9d1 0100 	ldrd	r0, r1, [r1]
 8006e6c:	f7f9 f97c 	bl	8000168 <__aeabi_dsub>
 8006e70:	9b05      	ldr	r3, [sp, #20]
 8006e72:	4604      	mov	r4, r0
 8006e74:	2b00      	cmp	r3, #0
 8006e76:	bfdc      	itt	le
 8006e78:	4602      	movle	r2, r0
 8006e7a:	f101 4300 	addle.w	r3, r1, #2147483648	; 0x80000000
 8006e7e:	460d      	mov	r5, r1
 8006e80:	bfdc      	itt	le
 8006e82:	4614      	movle	r4, r2
 8006e84:	461d      	movle	r5, r3
 8006e86:	e748      	b.n	8006d1a <__ieee754_asin+0x62>
 8006e88:	460b      	mov	r3, r1
 8006e8a:	f7f9 fb25 	bl	80004d8 <__aeabi_dmul>
 8006e8e:	a33c      	add	r3, pc, #240	; (adr r3, 8006f80 <__ieee754_asin+0x2c8>)
 8006e90:	e9d3 2300 	ldrd	r2, r3, [r3]
 8006e94:	4606      	mov	r6, r0
 8006e96:	460f      	mov	r7, r1
 8006e98:	f7f9 fb1e 	bl	80004d8 <__aeabi_dmul>
 8006e9c:	a33a      	add	r3, pc, #232	; (adr r3, 8006f88 <__ieee754_asin+0x2d0>)
 8006e9e:	e9d3 2300 	ldrd	r2, r3, [r3]
 8006ea2:	f7f9 f963 	bl	800016c <__adddf3>
 8006ea6:	4632      	mov	r2, r6
 8006ea8:	463b      	mov	r3, r7
 8006eaa:	f7f9 fb15 	bl	80004d8 <__aeabi_dmul>
 8006eae:	a338      	add	r3, pc, #224	; (adr r3, 8006f90 <__ieee754_asin+0x2d8>)
 8006eb0:	e9d3 2300 	ldrd	r2, r3, [r3]
 8006eb4:	f7f9 f958 	bl	8000168 <__aeabi_dsub>
 8006eb8:	4632      	mov	r2, r6
 8006eba:	463b      	mov	r3, r7
 8006ebc:	f7f9 fb0c 	bl	80004d8 <__aeabi_dmul>
 8006ec0:	a335      	add	r3, pc, #212	; (adr r3, 8006f98 <__ieee754_asin+0x2e0>)
 8006ec2:	e9d3 2300 	ldrd	r2, r3, [r3]
 8006ec6:	f7f9 f951 	bl	800016c <__adddf3>
 8006eca:	4632      	mov	r2, r6
 8006ecc:	463b      	mov	r3, r7
 8006ece:	f7f9 fb03 	bl	80004d8 <__aeabi_dmul>
 8006ed2:	a333      	add	r3, pc, #204	; (adr r3, 8006fa0 <__ieee754_asin+0x2e8>)
 8006ed4:	e9d3 2300 	ldrd	r2, r3, [r3]
 8006ed8:	f7f9 f946 	bl	8000168 <__aeabi_dsub>
 8006edc:	4632      	mov	r2, r6
 8006ede:	463b      	mov	r3, r7
 8006ee0:	f7f9 fafa 	bl	80004d8 <__aeabi_dmul>
 8006ee4:	a330      	add	r3, pc, #192	; (adr r3, 8006fa8 <__ieee754_asin+0x2f0>)
 8006ee6:	e9d3 2300 	ldrd	r2, r3, [r3]
 8006eea:	f7f9 f93f 	bl	800016c <__adddf3>
 8006eee:	4632      	mov	r2, r6
 8006ef0:	463b      	mov	r3, r7
 8006ef2:	f7f9 faf1 	bl	80004d8 <__aeabi_dmul>
 8006ef6:	a32e      	add	r3, pc, #184	; (adr r3, 8006fb0 <__ieee754_asin+0x2f8>)
 8006ef8:	e9d3 2300 	ldrd	r2, r3, [r3]
 8006efc:	4680      	mov	r8, r0
 8006efe:	4689      	mov	r9, r1
 8006f00:	4630      	mov	r0, r6
 8006f02:	4639      	mov	r1, r7
 8006f04:	f7f9 fae8 	bl	80004d8 <__aeabi_dmul>
 8006f08:	a32b      	add	r3, pc, #172	; (adr r3, 8006fb8 <__ieee754_asin+0x300>)
 8006f0a:	e9d3 2300 	ldrd	r2, r3, [r3]
 8006f0e:	f7f9 f92b 	bl	8000168 <__aeabi_dsub>
 8006f12:	4632      	mov	r2, r6
 8006f14:	463b      	mov	r3, r7
 8006f16:	f7f9 fadf 	bl	80004d8 <__aeabi_dmul>
 8006f1a:	a329      	add	r3, pc, #164	; (adr r3, 8006fc0 <__ieee754_asin+0x308>)
 8006f1c:	e9d3 2300 	ldrd	r2, r3, [r3]
 8006f20:	f7f9 f924 	bl	800016c <__adddf3>
 8006f24:	4632      	mov	r2, r6
 8006f26:	463b      	mov	r3, r7
 8006f28:	f7f9 fad6 	bl	80004d8 <__aeabi_dmul>
 8006f2c:	a326      	add	r3, pc, #152	; (adr r3, 8006fc8 <__ieee754_asin+0x310>)
 8006f2e:	e9d3 2300 	ldrd	r2, r3, [r3]
 8006f32:	f7f9 f919 	bl	8000168 <__aeabi_dsub>
 8006f36:	4632      	mov	r2, r6
 8006f38:	463b      	mov	r3, r7
 8006f3a:	f7f9 facd 	bl	80004d8 <__aeabi_dmul>
 8006f3e:	2200      	movs	r2, #0
 8006f40:	4b25      	ldr	r3, [pc, #148]	; (8006fd8 <__ieee754_asin+0x320>)
 8006f42:	f7f9 f913 	bl	800016c <__adddf3>
 8006f46:	4602      	mov	r2, r0
 8006f48:	460b      	mov	r3, r1
 8006f4a:	4640      	mov	r0, r8
 8006f4c:	4649      	mov	r1, r9
 8006f4e:	f7f9 fbed 	bl	800072c <__aeabi_ddiv>
 8006f52:	4622      	mov	r2, r4
 8006f54:	462b      	mov	r3, r5
 8006f56:	f7f9 fabf 	bl	80004d8 <__aeabi_dmul>
 8006f5a:	4602      	mov	r2, r0
 8006f5c:	460b      	mov	r3, r1
 8006f5e:	4620      	mov	r0, r4
 8006f60:	4629      	mov	r1, r5
 8006f62:	e6ce      	b.n	8006d02 <__ieee754_asin+0x4a>
 8006f64:	f3af 8000 	nop.w
 8006f68:	54442d18 	.word	0x54442d18
 8006f6c:	3ff921fb 	.word	0x3ff921fb
 8006f70:	33145c07 	.word	0x33145c07
 8006f74:	3c91a626 	.word	0x3c91a626
 8006f78:	8800759c 	.word	0x8800759c
 8006f7c:	7e37e43c 	.word	0x7e37e43c
 8006f80:	0dfdf709 	.word	0x0dfdf709
 8006f84:	3f023de1 	.word	0x3f023de1
 8006f88:	7501b288 	.word	0x7501b288
 8006f8c:	3f49efe0 	.word	0x3f49efe0
 8006f90:	b5688f3b 	.word	0xb5688f3b
 8006f94:	3fa48228 	.word	0x3fa48228
 8006f98:	0e884455 	.word	0x0e884455
 8006f9c:	3fc9c155 	.word	0x3fc9c155
 8006fa0:	03eb6f7d 	.word	0x03eb6f7d
 8006fa4:	3fd4d612 	.word	0x3fd4d612
 8006fa8:	55555555 	.word	0x55555555
 8006fac:	3fc55555 	.word	0x3fc55555
 8006fb0:	b12e9282 	.word	0xb12e9282
 8006fb4:	3fb3b8c5 	.word	0x3fb3b8c5
 8006fb8:	1b8d0159 	.word	0x1b8d0159
 8006fbc:	3fe6066c 	.word	0x3fe6066c
 8006fc0:	9c598ac8 	.word	0x9c598ac8
 8006fc4:	40002ae5 	.word	0x40002ae5
 8006fc8:	1c8a2d4b 	.word	0x1c8a2d4b
 8006fcc:	40033a27 	.word	0x40033a27
 8006fd0:	3fefffff 	.word	0x3fefffff
 8006fd4:	3fdfffff 	.word	0x3fdfffff
 8006fd8:	3ff00000 	.word	0x3ff00000
 8006fdc:	3fe00000 	.word	0x3fe00000
 8006fe0:	3fef3332 	.word	0x3fef3332
 8006fe4:	4602      	mov	r2, r0
 8006fe6:	460b      	mov	r3, r1
 8006fe8:	f7f9 f8c0 	bl	800016c <__adddf3>
 8006fec:	e9dd 2302 	ldrd	r2, r3, [sp, #8]
 8006ff0:	4606      	mov	r6, r0
 8006ff2:	460f      	mov	r7, r1
 8006ff4:	e9dd 0100 	ldrd	r0, r1, [sp]
 8006ff8:	f7f9 fb98 	bl	800072c <__aeabi_ddiv>
 8006ffc:	4602      	mov	r2, r0
 8006ffe:	460b      	mov	r3, r1
 8007000:	4630      	mov	r0, r6
 8007002:	4639      	mov	r1, r7
 8007004:	f7f9 fa68 	bl	80004d8 <__aeabi_dmul>
 8007008:	f04f 0800 	mov.w	r8, #0
 800700c:	4606      	mov	r6, r0
 800700e:	460f      	mov	r7, r1
 8007010:	4642      	mov	r2, r8
 8007012:	465b      	mov	r3, fp
 8007014:	4640      	mov	r0, r8
 8007016:	4659      	mov	r1, fp
 8007018:	f7f9 fa5e 	bl	80004d8 <__aeabi_dmul>
 800701c:	4602      	mov	r2, r0
 800701e:	460b      	mov	r3, r1
 8007020:	4620      	mov	r0, r4
 8007022:	4629      	mov	r1, r5
 8007024:	f7f9 f8a0 	bl	8000168 <__aeabi_dsub>
 8007028:	4642      	mov	r2, r8
 800702a:	4604      	mov	r4, r0
 800702c:	460d      	mov	r5, r1
 800702e:	465b      	mov	r3, fp
 8007030:	4650      	mov	r0, sl
 8007032:	4659      	mov	r1, fp
 8007034:	f7f9 f89a 	bl	800016c <__adddf3>
 8007038:	4602      	mov	r2, r0
 800703a:	460b      	mov	r3, r1
 800703c:	4620      	mov	r0, r4
 800703e:	4629      	mov	r1, r5
 8007040:	f7f9 fb74 	bl	800072c <__aeabi_ddiv>
 8007044:	4602      	mov	r2, r0
 8007046:	460b      	mov	r3, r1
 8007048:	f7f9 f890 	bl	800016c <__adddf3>
 800704c:	4602      	mov	r2, r0
 800704e:	460b      	mov	r3, r1
 8007050:	a113      	add	r1, pc, #76	; (adr r1, 80070a0 <__ieee754_asin+0x3e8>)
 8007052:	e9d1 0100 	ldrd	r0, r1, [r1]
 8007056:	f7f9 f887 	bl	8000168 <__aeabi_dsub>
 800705a:	4602      	mov	r2, r0
 800705c:	460b      	mov	r3, r1
 800705e:	4630      	mov	r0, r6
 8007060:	4639      	mov	r1, r7
 8007062:	f7f9 f881 	bl	8000168 <__aeabi_dsub>
 8007066:	4642      	mov	r2, r8
 8007068:	4604      	mov	r4, r0
 800706a:	460d      	mov	r5, r1
 800706c:	465b      	mov	r3, fp
 800706e:	4640      	mov	r0, r8
 8007070:	4659      	mov	r1, fp
 8007072:	f7f9 f87b 	bl	800016c <__adddf3>
 8007076:	4602      	mov	r2, r0
 8007078:	460b      	mov	r3, r1
 800707a:	a10b      	add	r1, pc, #44	; (adr r1, 80070a8 <__ieee754_asin+0x3f0>)
 800707c:	e9d1 0100 	ldrd	r0, r1, [r1]
 8007080:	f7f9 f872 	bl	8000168 <__aeabi_dsub>
 8007084:	4602      	mov	r2, r0
 8007086:	460b      	mov	r3, r1
 8007088:	4620      	mov	r0, r4
 800708a:	4629      	mov	r1, r5
 800708c:	f7f9 f86c 	bl	8000168 <__aeabi_dsub>
 8007090:	4602      	mov	r2, r0
 8007092:	460b      	mov	r3, r1
 8007094:	a104      	add	r1, pc, #16	; (adr r1, 80070a8 <__ieee754_asin+0x3f0>)
 8007096:	e9d1 0100 	ldrd	r0, r1, [r1]
 800709a:	e6e7      	b.n	8006e6c <__ieee754_asin+0x1b4>
 800709c:	f3af 8000 	nop.w
 80070a0:	33145c07 	.word	0x33145c07
 80070a4:	3c91a626 	.word	0x3c91a626
 80070a8:	54442d18 	.word	0x54442d18
 80070ac:	3fe921fb 	.word	0x3fe921fb

080070b0 <__ieee754_rem_pio2>:
 80070b0:	e92d 4ff0 	stmdb	sp!, {r4, r5, r6, r7, r8, r9, sl, fp, lr}
 80070b4:	4614      	mov	r4, r2
 80070b6:	4ac4      	ldr	r2, [pc, #784]	; (80073c8 <__ieee754_rem_pio2+0x318>)
 80070b8:	f021 4a00 	bic.w	sl, r1, #2147483648	; 0x80000000
 80070bc:	b08d      	sub	sp, #52	; 0x34
 80070be:	4592      	cmp	sl, r2
 80070c0:	9104      	str	r1, [sp, #16]
 80070c2:	dc07      	bgt.n	80070d4 <__ieee754_rem_pio2+0x24>
 80070c4:	2200      	movs	r2, #0
 80070c6:	2300      	movs	r3, #0
 80070c8:	e9c4 0100 	strd	r0, r1, [r4]
 80070cc:	e9c4 2302 	strd	r2, r3, [r4, #8]
 80070d0:	2500      	movs	r5, #0
 80070d2:	e024      	b.n	800711e <__ieee754_rem_pio2+0x6e>
 80070d4:	4abd      	ldr	r2, [pc, #756]	; (80073cc <__ieee754_rem_pio2+0x31c>)
 80070d6:	4592      	cmp	sl, r2
 80070d8:	dc72      	bgt.n	80071c0 <__ieee754_rem_pio2+0x110>
 80070da:	9b04      	ldr	r3, [sp, #16]
 80070dc:	4dbc      	ldr	r5, [pc, #752]	; (80073d0 <__ieee754_rem_pio2+0x320>)
 80070de:	2b00      	cmp	r3, #0
 80070e0:	a3ab      	add	r3, pc, #684	; (adr r3, 8007390 <__ieee754_rem_pio2+0x2e0>)
 80070e2:	e9d3 2300 	ldrd	r2, r3, [r3]
 80070e6:	dd36      	ble.n	8007156 <__ieee754_rem_pio2+0xa6>
 80070e8:	f7f9 f83e 	bl	8000168 <__aeabi_dsub>
 80070ec:	45aa      	cmp	sl, r5
 80070ee:	4606      	mov	r6, r0
 80070f0:	460f      	mov	r7, r1
 80070f2:	d018      	beq.n	8007126 <__ieee754_rem_pio2+0x76>
 80070f4:	a3a8      	add	r3, pc, #672	; (adr r3, 8007398 <__ieee754_rem_pio2+0x2e8>)
 80070f6:	e9d3 2300 	ldrd	r2, r3, [r3]
 80070fa:	f7f9 f835 	bl	8000168 <__aeabi_dsub>
 80070fe:	4602      	mov	r2, r0
 8007100:	460b      	mov	r3, r1
 8007102:	4630      	mov	r0, r6
 8007104:	e9c4 2300 	strd	r2, r3, [r4]
 8007108:	4639      	mov	r1, r7
 800710a:	f7f9 f82d 	bl	8000168 <__aeabi_dsub>
 800710e:	a3a2      	add	r3, pc, #648	; (adr r3, 8007398 <__ieee754_rem_pio2+0x2e8>)
 8007110:	e9d3 2300 	ldrd	r2, r3, [r3]
 8007114:	f7f9 f828 	bl	8000168 <__aeabi_dsub>
 8007118:	2501      	movs	r5, #1
 800711a:	e9c4 0102 	strd	r0, r1, [r4, #8]
 800711e:	4628      	mov	r0, r5
 8007120:	b00d      	add	sp, #52	; 0x34
 8007122:	e8bd 8ff0 	ldmia.w	sp!, {r4, r5, r6, r7, r8, r9, sl, fp, pc}
 8007126:	a39e      	add	r3, pc, #632	; (adr r3, 80073a0 <__ieee754_rem_pio2+0x2f0>)
 8007128:	e9d3 2300 	ldrd	r2, r3, [r3]
 800712c:	f7f9 f81c 	bl	8000168 <__aeabi_dsub>
 8007130:	a39d      	add	r3, pc, #628	; (adr r3, 80073a8 <__ieee754_rem_pio2+0x2f8>)
 8007132:	e9d3 2300 	ldrd	r2, r3, [r3]
 8007136:	4606      	mov	r6, r0
 8007138:	460f      	mov	r7, r1
 800713a:	f7f9 f815 	bl	8000168 <__aeabi_dsub>
 800713e:	4602      	mov	r2, r0
 8007140:	460b      	mov	r3, r1
 8007142:	4630      	mov	r0, r6
 8007144:	e9c4 2300 	strd	r2, r3, [r4]
 8007148:	4639      	mov	r1, r7
 800714a:	f7f9 f80d 	bl	8000168 <__aeabi_dsub>
 800714e:	a396      	add	r3, pc, #600	; (adr r3, 80073a8 <__ieee754_rem_pio2+0x2f8>)
 8007150:	e9d3 2300 	ldrd	r2, r3, [r3]
 8007154:	e7de      	b.n	8007114 <__ieee754_rem_pio2+0x64>
 8007156:	f7f9 f809 	bl	800016c <__adddf3>
 800715a:	45aa      	cmp	sl, r5
 800715c:	4606      	mov	r6, r0
 800715e:	460f      	mov	r7, r1
 8007160:	d016      	beq.n	8007190 <__ieee754_rem_pio2+0xe0>
 8007162:	a38d      	add	r3, pc, #564	; (adr r3, 8007398 <__ieee754_rem_pio2+0x2e8>)
 8007164:	e9d3 2300 	ldrd	r2, r3, [r3]
 8007168:	f7f9 f800 	bl	800016c <__adddf3>
 800716c:	4602      	mov	r2, r0
 800716e:	460b      	mov	r3, r1
 8007170:	4630      	mov	r0, r6
 8007172:	e9c4 2300 	strd	r2, r3, [r4]
 8007176:	4639      	mov	r1, r7
 8007178:	f7f8 fff6 	bl	8000168 <__aeabi_dsub>
 800717c:	a386      	add	r3, pc, #536	; (adr r3, 8007398 <__ieee754_rem_pio2+0x2e8>)
 800717e:	e9d3 2300 	ldrd	r2, r3, [r3]
 8007182:	f7f8 fff3 	bl	800016c <__adddf3>
 8007186:	f04f 35ff 	mov.w	r5, #4294967295
 800718a:	e9c4 0102 	strd	r0, r1, [r4, #8]
 800718e:	e7c6      	b.n	800711e <__ieee754_rem_pio2+0x6e>
 8007190:	a383      	add	r3, pc, #524	; (adr r3, 80073a0 <__ieee754_rem_pio2+0x2f0>)
 8007192:	e9d3 2300 	ldrd	r2, r3, [r3]
 8007196:	f7f8 ffe9 	bl	800016c <__adddf3>
 800719a:	a383      	add	r3, pc, #524	; (adr r3, 80073a8 <__ieee754_rem_pio2+0x2f8>)
 800719c:	e9d3 2300 	ldrd	r2, r3, [r3]
 80071a0:	4606      	mov	r6, r0
 80071a2:	460f      	mov	r7, r1
 80071a4:	f7f8 ffe2 	bl	800016c <__adddf3>
 80071a8:	4602      	mov	r2, r0
 80071aa:	460b      	mov	r3, r1
 80071ac:	4630      	mov	r0, r6
 80071ae:	e9c4 2300 	strd	r2, r3, [r4]
 80071b2:	4639      	mov	r1, r7
 80071b4:	f7f8 ffd8 	bl	8000168 <__aeabi_dsub>
 80071b8:	a37b      	add	r3, pc, #492	; (adr r3, 80073a8 <__ieee754_rem_pio2+0x2f8>)
 80071ba:	e9d3 2300 	ldrd	r2, r3, [r3]
 80071be:	e7e0      	b.n	8007182 <__ieee754_rem_pio2+0xd2>
 80071c0:	4a84      	ldr	r2, [pc, #528]	; (80073d4 <__ieee754_rem_pio2+0x324>)
 80071c2:	4592      	cmp	sl, r2
 80071c4:	f300 80d5 	bgt.w	8007372 <__ieee754_rem_pio2+0x2c2>
 80071c8:	f000 fed0 	bl	8007f6c <fabs>
 80071cc:	a378      	add	r3, pc, #480	; (adr r3, 80073b0 <__ieee754_rem_pio2+0x300>)
 80071ce:	e9d3 2300 	ldrd	r2, r3, [r3]
 80071d2:	4606      	mov	r6, r0
 80071d4:	460f      	mov	r7, r1
 80071d6:	f7f9 f97f 	bl	80004d8 <__aeabi_dmul>
 80071da:	2200      	movs	r2, #0
 80071dc:	4b7e      	ldr	r3, [pc, #504]	; (80073d8 <__ieee754_rem_pio2+0x328>)
 80071de:	f7f8 ffc5 	bl	800016c <__adddf3>
 80071e2:	f7f9 fc29 	bl	8000a38 <__aeabi_d2iz>
 80071e6:	4605      	mov	r5, r0
 80071e8:	f7f9 f90c 	bl	8000404 <__aeabi_i2d>
 80071ec:	4602      	mov	r2, r0
 80071ee:	460b      	mov	r3, r1
 80071f0:	e9cd 2302 	strd	r2, r3, [sp, #8]
 80071f4:	a366      	add	r3, pc, #408	; (adr r3, 8007390 <__ieee754_rem_pio2+0x2e0>)
 80071f6:	e9d3 2300 	ldrd	r2, r3, [r3]
 80071fa:	f7f9 f96d 	bl	80004d8 <__aeabi_dmul>
 80071fe:	4602      	mov	r2, r0
 8007200:	460b      	mov	r3, r1
 8007202:	4630      	mov	r0, r6
 8007204:	4639      	mov	r1, r7
 8007206:	f7f8 ffaf 	bl	8000168 <__aeabi_dsub>
 800720a:	a363      	add	r3, pc, #396	; (adr r3, 8007398 <__ieee754_rem_pio2+0x2e8>)
 800720c:	e9d3 2300 	ldrd	r2, r3, [r3]
 8007210:	4680      	mov	r8, r0
 8007212:	4689      	mov	r9, r1
 8007214:	e9dd 0102 	ldrd	r0, r1, [sp, #8]
 8007218:	f7f9 f95e 	bl	80004d8 <__aeabi_dmul>
 800721c:	2d1f      	cmp	r5, #31
 800721e:	4606      	mov	r6, r0
 8007220:	460f      	mov	r7, r1
 8007222:	dc0e      	bgt.n	8007242 <__ieee754_rem_pio2+0x192>
 8007224:	4b6d      	ldr	r3, [pc, #436]	; (80073dc <__ieee754_rem_pio2+0x32c>)
 8007226:	1e6a      	subs	r2, r5, #1
 8007228:	f853 3022 	ldr.w	r3, [r3, r2, lsl #2]
 800722c:	4553      	cmp	r3, sl
 800722e:	d008      	beq.n	8007242 <__ieee754_rem_pio2+0x192>
 8007230:	4632      	mov	r2, r6
 8007232:	463b      	mov	r3, r7
 8007234:	4640      	mov	r0, r8
 8007236:	4649      	mov	r1, r9
 8007238:	f7f8 ff96 	bl	8000168 <__aeabi_dsub>
 800723c:	e9c4 0100 	strd	r0, r1, [r4]
 8007240:	e013      	b.n	800726a <__ieee754_rem_pio2+0x1ba>
 8007242:	463b      	mov	r3, r7
 8007244:	4632      	mov	r2, r6
 8007246:	4640      	mov	r0, r8
 8007248:	4649      	mov	r1, r9
 800724a:	f7f8 ff8d 	bl	8000168 <__aeabi_dsub>
 800724e:	ea4f 532a 	mov.w	r3, sl, asr #20
 8007252:	9305      	str	r3, [sp, #20]
 8007254:	f3c1 530a 	ubfx	r3, r1, #20, #11
 8007258:	ebc3 5a1a 	rsb	sl, r3, sl, lsr #20
 800725c:	f1ba 0f10 	cmp.w	sl, #16
 8007260:	dc1f      	bgt.n	80072a2 <__ieee754_rem_pio2+0x1f2>
 8007262:	4602      	mov	r2, r0
 8007264:	460b      	mov	r3, r1
 8007266:	e9c4 2300 	strd	r2, r3, [r4]
 800726a:	e9d4 2a00 	ldrd	r2, sl, [r4]
 800726e:	4640      	mov	r0, r8
 8007270:	4653      	mov	r3, sl
 8007272:	4649      	mov	r1, r9
 8007274:	f7f8 ff78 	bl	8000168 <__aeabi_dsub>
 8007278:	4632      	mov	r2, r6
 800727a:	463b      	mov	r3, r7
 800727c:	f7f8 ff74 	bl	8000168 <__aeabi_dsub>
 8007280:	460b      	mov	r3, r1
 8007282:	e9c4 0102 	strd	r0, r1, [r4, #8]
 8007286:	9904      	ldr	r1, [sp, #16]
 8007288:	4602      	mov	r2, r0
 800728a:	2900      	cmp	r1, #0
 800728c:	f6bf af47 	bge.w	800711e <__ieee754_rem_pio2+0x6e>
 8007290:	f10a 4100 	add.w	r1, sl, #2147483648	; 0x80000000
 8007294:	e9c4 1201 	strd	r1, r2, [r4, #4]
 8007298:	f103 4300 	add.w	r3, r3, #2147483648	; 0x80000000
 800729c:	60e3      	str	r3, [r4, #12]
 800729e:	426d      	negs	r5, r5
 80072a0:	e73d      	b.n	800711e <__ieee754_rem_pio2+0x6e>
 80072a2:	a33f      	add	r3, pc, #252	; (adr r3, 80073a0 <__ieee754_rem_pio2+0x2f0>)
 80072a4:	e9d3 2300 	ldrd	r2, r3, [r3]
 80072a8:	e9dd 0102 	ldrd	r0, r1, [sp, #8]
 80072ac:	f7f9 f914 	bl	80004d8 <__aeabi_dmul>
 80072b0:	4606      	mov	r6, r0
 80072b2:	460f      	mov	r7, r1
 80072b4:	4602      	mov	r2, r0
 80072b6:	460b      	mov	r3, r1
 80072b8:	4640      	mov	r0, r8
 80072ba:	4649      	mov	r1, r9
 80072bc:	f7f8 ff54 	bl	8000168 <__aeabi_dsub>
 80072c0:	4602      	mov	r2, r0
 80072c2:	460b      	mov	r3, r1
 80072c4:	4682      	mov	sl, r0
 80072c6:	468b      	mov	fp, r1
 80072c8:	4640      	mov	r0, r8
 80072ca:	4649      	mov	r1, r9
 80072cc:	f7f8 ff4c 	bl	8000168 <__aeabi_dsub>
 80072d0:	4632      	mov	r2, r6
 80072d2:	463b      	mov	r3, r7
 80072d4:	f7f8 ff48 	bl	8000168 <__aeabi_dsub>
 80072d8:	a333      	add	r3, pc, #204	; (adr r3, 80073a8 <__ieee754_rem_pio2+0x2f8>)
 80072da:	e9d3 2300 	ldrd	r2, r3, [r3]
 80072de:	4606      	mov	r6, r0
 80072e0:	460f      	mov	r7, r1
 80072e2:	e9dd 0102 	ldrd	r0, r1, [sp, #8]
 80072e6:	f7f9 f8f7 	bl	80004d8 <__aeabi_dmul>
 80072ea:	4632      	mov	r2, r6
 80072ec:	463b      	mov	r3, r7
 80072ee:	f7f8 ff3b 	bl	8000168 <__aeabi_dsub>
 80072f2:	4602      	mov	r2, r0
 80072f4:	460b      	mov	r3, r1
 80072f6:	4606      	mov	r6, r0
 80072f8:	460f      	mov	r7, r1
 80072fa:	4650      	mov	r0, sl
 80072fc:	4659      	mov	r1, fp
 80072fe:	f7f8 ff33 	bl	8000168 <__aeabi_dsub>
 8007302:	9a05      	ldr	r2, [sp, #20]
 8007304:	f3c1 530a 	ubfx	r3, r1, #20, #11
 8007308:	1ad3      	subs	r3, r2, r3
 800730a:	2b31      	cmp	r3, #49	; 0x31
 800730c:	dc06      	bgt.n	800731c <__ieee754_rem_pio2+0x26c>
 800730e:	4602      	mov	r2, r0
 8007310:	460b      	mov	r3, r1
 8007312:	46d0      	mov	r8, sl
 8007314:	46d9      	mov	r9, fp
 8007316:	e9c4 2300 	strd	r2, r3, [r4]
 800731a:	e7a6      	b.n	800726a <__ieee754_rem_pio2+0x1ba>
 800731c:	a326      	add	r3, pc, #152	; (adr r3, 80073b8 <__ieee754_rem_pio2+0x308>)
 800731e:	e9d3 2300 	ldrd	r2, r3, [r3]
 8007322:	e9dd 0102 	ldrd	r0, r1, [sp, #8]
 8007326:	f7f9 f8d7 	bl	80004d8 <__aeabi_dmul>
 800732a:	4606      	mov	r6, r0
 800732c:	460f      	mov	r7, r1
 800732e:	4602      	mov	r2, r0
 8007330:	460b      	mov	r3, r1
 8007332:	4650      	mov	r0, sl
 8007334:	4659      	mov	r1, fp
 8007336:	f7f8 ff17 	bl	8000168 <__aeabi_dsub>
 800733a:	4602      	mov	r2, r0
 800733c:	460b      	mov	r3, r1
 800733e:	4680      	mov	r8, r0
 8007340:	4689      	mov	r9, r1
 8007342:	4650      	mov	r0, sl
 8007344:	4659      	mov	r1, fp
 8007346:	f7f8 ff0f 	bl	8000168 <__aeabi_dsub>
 800734a:	4632      	mov	r2, r6
 800734c:	463b      	mov	r3, r7
 800734e:	f7f8 ff0b 	bl	8000168 <__aeabi_dsub>
 8007352:	a31b      	add	r3, pc, #108	; (adr r3, 80073c0 <__ieee754_rem_pio2+0x310>)
 8007354:	e9d3 2300 	ldrd	r2, r3, [r3]
 8007358:	4606      	mov	r6, r0
 800735a:	460f      	mov	r7, r1
 800735c:	e9dd 0102 	ldrd	r0, r1, [sp, #8]
 8007360:	f7f9 f8ba 	bl	80004d8 <__aeabi_dmul>
 8007364:	4632      	mov	r2, r6
 8007366:	463b      	mov	r3, r7
 8007368:	f7f8 fefe 	bl	8000168 <__aeabi_dsub>
 800736c:	4606      	mov	r6, r0
 800736e:	460f      	mov	r7, r1
 8007370:	e75e      	b.n	8007230 <__ieee754_rem_pio2+0x180>
 8007372:	4a1b      	ldr	r2, [pc, #108]	; (80073e0 <__ieee754_rem_pio2+0x330>)
 8007374:	4592      	cmp	sl, r2
 8007376:	dd35      	ble.n	80073e4 <__ieee754_rem_pio2+0x334>
 8007378:	4602      	mov	r2, r0
 800737a:	460b      	mov	r3, r1
 800737c:	f7f8 fef4 	bl	8000168 <__aeabi_dsub>
 8007380:	e9c4 0102 	strd	r0, r1, [r4, #8]
 8007384:	e9c4 0100 	strd	r0, r1, [r4]
 8007388:	e6a2      	b.n	80070d0 <__ieee754_rem_pio2+0x20>
 800738a:	bf00      	nop
 800738c:	f3af 8000 	nop.w
 8007390:	54400000 	.word	0x54400000
 8007394:	3ff921fb 	.word	0x3ff921fb
 8007398:	1a626331 	.word	0x1a626331
 800739c:	3dd0b461 	.word	0x3dd0b461
 80073a0:	1a600000 	.word	0x1a600000
 80073a4:	3dd0b461 	.word	0x3dd0b461
 80073a8:	2e037073 	.word	0x2e037073
 80073ac:	3ba3198a 	.word	0x3ba3198a
 80073b0:	6dc9c883 	.word	0x6dc9c883
 80073b4:	3fe45f30 	.word	0x3fe45f30
 80073b8:	2e000000 	.word	0x2e000000
 80073bc:	3ba3198a 	.word	0x3ba3198a
 80073c0:	252049c1 	.word	0x252049c1
 80073c4:	397b839a 	.word	0x397b839a
 80073c8:	3fe921fb 	.word	0x3fe921fb
 80073cc:	4002d97b 	.word	0x4002d97b
 80073d0:	3ff921fb 	.word	0x3ff921fb
 80073d4:	413921fb 	.word	0x413921fb
 80073d8:	3fe00000 	.word	0x3fe00000
 80073dc:	080085a4 	.word	0x080085a4
 80073e0:	7fefffff 	.word	0x7fefffff
 80073e4:	ea4f 552a 	mov.w	r5, sl, asr #20
 80073e8:	f2a5 4516 	subw	r5, r5, #1046	; 0x416
 80073ec:	ebaa 5105 	sub.w	r1, sl, r5, lsl #20
 80073f0:	460f      	mov	r7, r1
 80073f2:	4606      	mov	r6, r0
 80073f4:	f7f9 fb20 	bl	8000a38 <__aeabi_d2iz>
 80073f8:	f7f9 f804 	bl	8000404 <__aeabi_i2d>
 80073fc:	4602      	mov	r2, r0
 80073fe:	460b      	mov	r3, r1
 8007400:	4630      	mov	r0, r6
 8007402:	4639      	mov	r1, r7
 8007404:	e9cd 2306 	strd	r2, r3, [sp, #24]
 8007408:	f7f8 feae 	bl	8000168 <__aeabi_dsub>
 800740c:	2200      	movs	r2, #0
 800740e:	4b22      	ldr	r3, [pc, #136]	; (8007498 <__ieee754_rem_pio2+0x3e8>)
 8007410:	f7f9 f862 	bl	80004d8 <__aeabi_dmul>
 8007414:	460f      	mov	r7, r1
 8007416:	4606      	mov	r6, r0
 8007418:	f7f9 fb0e 	bl	8000a38 <__aeabi_d2iz>
 800741c:	f7f8 fff2 	bl	8000404 <__aeabi_i2d>
 8007420:	4602      	mov	r2, r0
 8007422:	460b      	mov	r3, r1
 8007424:	4630      	mov	r0, r6
 8007426:	4639      	mov	r1, r7
 8007428:	e9cd 2308 	strd	r2, r3, [sp, #32]
 800742c:	f7f8 fe9c 	bl	8000168 <__aeabi_dsub>
 8007430:	2200      	movs	r2, #0
 8007432:	4b19      	ldr	r3, [pc, #100]	; (8007498 <__ieee754_rem_pio2+0x3e8>)
 8007434:	f7f9 f850 	bl	80004d8 <__aeabi_dmul>
 8007438:	f04f 0803 	mov.w	r8, #3
 800743c:	2600      	movs	r6, #0
 800743e:	2700      	movs	r7, #0
 8007440:	e9cd 010a 	strd	r0, r1, [sp, #40]	; 0x28
 8007444:	f10d 0928 	add.w	r9, sp, #40	; 0x28
 8007448:	4632      	mov	r2, r6
 800744a:	e879 0102 	ldrd	r0, r1, [r9], #-8
 800744e:	463b      	mov	r3, r7
 8007450:	46c2      	mov	sl, r8
 8007452:	f108 38ff 	add.w	r8, r8, #4294967295
 8007456:	f7f9 faa7 	bl	80009a8 <__aeabi_dcmpeq>
 800745a:	2800      	cmp	r0, #0
 800745c:	d1f4      	bne.n	8007448 <__ieee754_rem_pio2+0x398>
 800745e:	4b0f      	ldr	r3, [pc, #60]	; (800749c <__ieee754_rem_pio2+0x3ec>)
 8007460:	462a      	mov	r2, r5
 8007462:	9301      	str	r3, [sp, #4]
 8007464:	2302      	movs	r3, #2
 8007466:	4621      	mov	r1, r4
 8007468:	9300      	str	r3, [sp, #0]
 800746a:	a806      	add	r0, sp, #24
 800746c:	4653      	mov	r3, sl
 800746e:	f000 f985 	bl	800777c <__kernel_rem_pio2>
 8007472:	9b04      	ldr	r3, [sp, #16]
 8007474:	4605      	mov	r5, r0
 8007476:	2b00      	cmp	r3, #0
 8007478:	f6bf ae51 	bge.w	800711e <__ieee754_rem_pio2+0x6e>
 800747c:	e9d4 2100 	ldrd	r2, r1, [r4]
 8007480:	f101 4300 	add.w	r3, r1, #2147483648	; 0x80000000
 8007484:	e9c4 2300 	strd	r2, r3, [r4]
 8007488:	e9d4 2102 	ldrd	r2, r1, [r4, #8]
 800748c:	f101 4300 	add.w	r3, r1, #2147483648	; 0x80000000
 8007490:	e9c4 2302 	strd	r2, r3, [r4, #8]
 8007494:	e703      	b.n	800729e <__ieee754_rem_pio2+0x1ee>
 8007496:	bf00      	nop
 8007498:	41700000 	.word	0x41700000
 800749c:	08008624 	.word	0x08008624

080074a0 <__ieee754_sqrt>:
 80074a0:	f8df c158 	ldr.w	ip, [pc, #344]	; 80075fc <__ieee754_sqrt+0x15c>
 80074a4:	e92d 41f0 	stmdb	sp!, {r4, r5, r6, r7, r8, lr}
 80074a8:	ea3c 0c01 	bics.w	ip, ip, r1
 80074ac:	4606      	mov	r6, r0
 80074ae:	460d      	mov	r5, r1
 80074b0:	460c      	mov	r4, r1
 80074b2:	460a      	mov	r2, r1
 80074b4:	4607      	mov	r7, r0
 80074b6:	4603      	mov	r3, r0
 80074b8:	d10f      	bne.n	80074da <__ieee754_sqrt+0x3a>
 80074ba:	4602      	mov	r2, r0
 80074bc:	460b      	mov	r3, r1
 80074be:	f7f9 f80b 	bl	80004d8 <__aeabi_dmul>
 80074c2:	4602      	mov	r2, r0
 80074c4:	460b      	mov	r3, r1
 80074c6:	4630      	mov	r0, r6
 80074c8:	4629      	mov	r1, r5
 80074ca:	f7f8 fe4f 	bl	800016c <__adddf3>
 80074ce:	4606      	mov	r6, r0
 80074d0:	460d      	mov	r5, r1
 80074d2:	4630      	mov	r0, r6
 80074d4:	4629      	mov	r1, r5
 80074d6:	e8bd 81f0 	ldmia.w	sp!, {r4, r5, r6, r7, r8, pc}
 80074da:	2900      	cmp	r1, #0
 80074dc:	dc0e      	bgt.n	80074fc <__ieee754_sqrt+0x5c>
 80074de:	f021 4c00 	bic.w	ip, r1, #2147483648	; 0x80000000
 80074e2:	ea5c 0707 	orrs.w	r7, ip, r7
 80074e6:	d0f4      	beq.n	80074d2 <__ieee754_sqrt+0x32>
 80074e8:	b141      	cbz	r1, 80074fc <__ieee754_sqrt+0x5c>
 80074ea:	4602      	mov	r2, r0
 80074ec:	460b      	mov	r3, r1
 80074ee:	f7f8 fe3b 	bl	8000168 <__aeabi_dsub>
 80074f2:	4602      	mov	r2, r0
 80074f4:	460b      	mov	r3, r1
 80074f6:	f7f9 f919 	bl	800072c <__aeabi_ddiv>
 80074fa:	e7e8      	b.n	80074ce <__ieee754_sqrt+0x2e>
 80074fc:	1521      	asrs	r1, r4, #20
 80074fe:	d075      	beq.n	80075ec <__ieee754_sqrt+0x14c>
 8007500:	07cc      	lsls	r4, r1, #31
 8007502:	f04f 0400 	mov.w	r4, #0
 8007506:	f3c2 0213 	ubfx	r2, r2, #0, #20
 800750a:	f2a1 37ff 	subw	r7, r1, #1023	; 0x3ff
 800750e:	f442 1280 	orr.w	r2, r2, #1048576	; 0x100000
 8007512:	bf5e      	ittt	pl
 8007514:	0fd9      	lsrpl	r1, r3, #31
 8007516:	005b      	lslpl	r3, r3, #1
 8007518:	eb01 0242 	addpl.w	r2, r1, r2, lsl #1
 800751c:	0fd9      	lsrs	r1, r3, #31
 800751e:	eb01 0242 	add.w	r2, r1, r2, lsl #1
 8007522:	2516      	movs	r5, #22
 8007524:	4620      	mov	r0, r4
 8007526:	f44f 1100 	mov.w	r1, #2097152	; 0x200000
 800752a:	107f      	asrs	r7, r7, #1
 800752c:	005b      	lsls	r3, r3, #1
 800752e:	1846      	adds	r6, r0, r1
 8007530:	4296      	cmp	r6, r2
 8007532:	bfde      	ittt	le
 8007534:	1b92      	suble	r2, r2, r6
 8007536:	1870      	addle	r0, r6, r1
 8007538:	1864      	addle	r4, r4, r1
 800753a:	0052      	lsls	r2, r2, #1
 800753c:	3d01      	subs	r5, #1
 800753e:	eb02 72d3 	add.w	r2, r2, r3, lsr #31
 8007542:	ea4f 0151 	mov.w	r1, r1, lsr #1
 8007546:	ea4f 0343 	mov.w	r3, r3, lsl #1
 800754a:	d1f0      	bne.n	800752e <__ieee754_sqrt+0x8e>
 800754c:	4629      	mov	r1, r5
 800754e:	f04f 0e20 	mov.w	lr, #32
 8007552:	f04f 4600 	mov.w	r6, #2147483648	; 0x80000000
 8007556:	4282      	cmp	r2, r0
 8007558:	eb06 0c05 	add.w	ip, r6, r5
 800755c:	dc02      	bgt.n	8007564 <__ieee754_sqrt+0xc4>
 800755e:	d113      	bne.n	8007588 <__ieee754_sqrt+0xe8>
 8007560:	459c      	cmp	ip, r3
 8007562:	d811      	bhi.n	8007588 <__ieee754_sqrt+0xe8>
 8007564:	f1bc 0f00 	cmp.w	ip, #0
 8007568:	eb0c 0506 	add.w	r5, ip, r6
 800756c:	da43      	bge.n	80075f6 <__ieee754_sqrt+0x156>
 800756e:	2d00      	cmp	r5, #0
 8007570:	db41      	blt.n	80075f6 <__ieee754_sqrt+0x156>
 8007572:	f100 0801 	add.w	r8, r0, #1
 8007576:	1a12      	subs	r2, r2, r0
 8007578:	4640      	mov	r0, r8
 800757a:	459c      	cmp	ip, r3
 800757c:	bf88      	it	hi
 800757e:	f102 32ff 	addhi.w	r2, r2, #4294967295
 8007582:	eba3 030c 	sub.w	r3, r3, ip
 8007586:	4431      	add	r1, r6
 8007588:	ea4f 7cd3 	mov.w	ip, r3, lsr #31
 800758c:	f1be 0e01 	subs.w	lr, lr, #1
 8007590:	eb0c 0242 	add.w	r2, ip, r2, lsl #1
 8007594:	ea4f 0343 	mov.w	r3, r3, lsl #1
 8007598:	ea4f 0656 	mov.w	r6, r6, lsr #1
 800759c:	d1db      	bne.n	8007556 <__ieee754_sqrt+0xb6>
 800759e:	4313      	orrs	r3, r2
 80075a0:	d006      	beq.n	80075b0 <__ieee754_sqrt+0x110>
 80075a2:	1c48      	adds	r0, r1, #1
 80075a4:	bf0b      	itete	eq
 80075a6:	4671      	moveq	r1, lr
 80075a8:	3101      	addne	r1, #1
 80075aa:	3401      	addeq	r4, #1
 80075ac:	f021 0101 	bicne.w	r1, r1, #1
 80075b0:	1063      	asrs	r3, r4, #1
 80075b2:	0849      	lsrs	r1, r1, #1
 80075b4:	f103 537f 	add.w	r3, r3, #1069547520	; 0x3fc00000
 80075b8:	07e2      	lsls	r2, r4, #31
 80075ba:	f503 1300 	add.w	r3, r3, #2097152	; 0x200000
 80075be:	bf48      	it	mi
 80075c0:	f041 4100 	orrmi.w	r1, r1, #2147483648	; 0x80000000
 80075c4:	460e      	mov	r6, r1
 80075c6:	eb03 5507 	add.w	r5, r3, r7, lsl #20
 80075ca:	e782      	b.n	80074d2 <__ieee754_sqrt+0x32>
 80075cc:	0ada      	lsrs	r2, r3, #11
 80075ce:	3815      	subs	r0, #21
 80075d0:	055b      	lsls	r3, r3, #21
 80075d2:	2a00      	cmp	r2, #0
 80075d4:	d0fa      	beq.n	80075cc <__ieee754_sqrt+0x12c>
 80075d6:	02d5      	lsls	r5, r2, #11
 80075d8:	d50a      	bpl.n	80075f0 <__ieee754_sqrt+0x150>
 80075da:	f1c1 0420 	rsb	r4, r1, #32
 80075de:	fa23 f404 	lsr.w	r4, r3, r4
 80075e2:	1e4d      	subs	r5, r1, #1
 80075e4:	408b      	lsls	r3, r1
 80075e6:	4322      	orrs	r2, r4
 80075e8:	1b41      	subs	r1, r0, r5
 80075ea:	e789      	b.n	8007500 <__ieee754_sqrt+0x60>
 80075ec:	4608      	mov	r0, r1
 80075ee:	e7f0      	b.n	80075d2 <__ieee754_sqrt+0x132>
 80075f0:	0052      	lsls	r2, r2, #1
 80075f2:	3101      	adds	r1, #1
 80075f4:	e7ef      	b.n	80075d6 <__ieee754_sqrt+0x136>
 80075f6:	4680      	mov	r8, r0
 80075f8:	e7bd      	b.n	8007576 <__ieee754_sqrt+0xd6>
 80075fa:	bf00      	nop
 80075fc:	7ff00000 	.word	0x7ff00000

08007600 <__kernel_cos>:
 8007600:	e92d 4ff7 	stmdb	sp!, {r0, r1, r2, r4, r5, r6, r7, r8, r9, sl, fp, lr}
 8007604:	f021 4600 	bic.w	r6, r1, #2147483648	; 0x80000000
 8007608:	f1b6 5f79 	cmp.w	r6, #1044381696	; 0x3e400000
 800760c:	4680      	mov	r8, r0
 800760e:	460f      	mov	r7, r1
 8007610:	e9cd 2300 	strd	r2, r3, [sp]
 8007614:	da04      	bge.n	8007620 <__kernel_cos+0x20>
 8007616:	f7f9 fa0f 	bl	8000a38 <__aeabi_d2iz>
 800761a:	2800      	cmp	r0, #0
 800761c:	f000 8086 	beq.w	800772c <__kernel_cos+0x12c>
 8007620:	4642      	mov	r2, r8
 8007622:	463b      	mov	r3, r7
 8007624:	4640      	mov	r0, r8
 8007626:	4639      	mov	r1, r7
 8007628:	f7f8 ff56 	bl	80004d8 <__aeabi_dmul>
 800762c:	2200      	movs	r2, #0
 800762e:	4b4e      	ldr	r3, [pc, #312]	; (8007768 <__kernel_cos+0x168>)
 8007630:	4604      	mov	r4, r0
 8007632:	460d      	mov	r5, r1
 8007634:	f7f8 ff50 	bl	80004d8 <__aeabi_dmul>
 8007638:	a33f      	add	r3, pc, #252	; (adr r3, 8007738 <__kernel_cos+0x138>)
 800763a:	e9d3 2300 	ldrd	r2, r3, [r3]
 800763e:	4682      	mov	sl, r0
 8007640:	468b      	mov	fp, r1
 8007642:	4620      	mov	r0, r4
 8007644:	4629      	mov	r1, r5
 8007646:	f7f8 ff47 	bl	80004d8 <__aeabi_dmul>
 800764a:	a33d      	add	r3, pc, #244	; (adr r3, 8007740 <__kernel_cos+0x140>)
 800764c:	e9d3 2300 	ldrd	r2, r3, [r3]
 8007650:	f7f8 fd8c 	bl	800016c <__adddf3>
 8007654:	4622      	mov	r2, r4
 8007656:	462b      	mov	r3, r5
 8007658:	f7f8 ff3e 	bl	80004d8 <__aeabi_dmul>
 800765c:	a33a      	add	r3, pc, #232	; (adr r3, 8007748 <__kernel_cos+0x148>)
 800765e:	e9d3 2300 	ldrd	r2, r3, [r3]
 8007662:	f7f8 fd81 	bl	8000168 <__aeabi_dsub>
 8007666:	4622      	mov	r2, r4
 8007668:	462b      	mov	r3, r5
 800766a:	f7f8 ff35 	bl	80004d8 <__aeabi_dmul>
 800766e:	a338      	add	r3, pc, #224	; (adr r3, 8007750 <__kernel_cos+0x150>)
 8007670:	e9d3 2300 	ldrd	r2, r3, [r3]
 8007674:	f7f8 fd7a 	bl	800016c <__adddf3>
 8007678:	4622      	mov	r2, r4
 800767a:	462b      	mov	r3, r5
 800767c:	f7f8 ff2c 	bl	80004d8 <__aeabi_dmul>
 8007680:	a335      	add	r3, pc, #212	; (adr r3, 8007758 <__kernel_cos+0x158>)
 8007682:	e9d3 2300 	ldrd	r2, r3, [r3]
 8007686:	f7f8 fd6f 	bl	8000168 <__aeabi_dsub>
 800768a:	4622      	mov	r2, r4
 800768c:	462b      	mov	r3, r5
 800768e:	f7f8 ff23 	bl	80004d8 <__aeabi_dmul>
 8007692:	a333      	add	r3, pc, #204	; (adr r3, 8007760 <__kernel_cos+0x160>)
 8007694:	e9d3 2300 	ldrd	r2, r3, [r3]
 8007698:	f7f8 fd68 	bl	800016c <__adddf3>
 800769c:	4622      	mov	r2, r4
 800769e:	462b      	mov	r3, r5
 80076a0:	f7f8 ff1a 	bl	80004d8 <__aeabi_dmul>
 80076a4:	4622      	mov	r2, r4
 80076a6:	462b      	mov	r3, r5
 80076a8:	f7f8 ff16 	bl	80004d8 <__aeabi_dmul>
 80076ac:	e9dd 2300 	ldrd	r2, r3, [sp]
 80076b0:	4604      	mov	r4, r0
 80076b2:	460d      	mov	r5, r1
 80076b4:	4640      	mov	r0, r8
 80076b6:	4639      	mov	r1, r7
 80076b8:	f7f8 ff0e 	bl	80004d8 <__aeabi_dmul>
 80076bc:	460b      	mov	r3, r1
 80076be:	4602      	mov	r2, r0
 80076c0:	4629      	mov	r1, r5
 80076c2:	4620      	mov	r0, r4
 80076c4:	f7f8 fd50 	bl	8000168 <__aeabi_dsub>
 80076c8:	4b28      	ldr	r3, [pc, #160]	; (800776c <__kernel_cos+0x16c>)
 80076ca:	4680      	mov	r8, r0
 80076cc:	429e      	cmp	r6, r3
 80076ce:	4689      	mov	r9, r1
 80076d0:	dc0e      	bgt.n	80076f0 <__kernel_cos+0xf0>
 80076d2:	4602      	mov	r2, r0
 80076d4:	460b      	mov	r3, r1
 80076d6:	4650      	mov	r0, sl
 80076d8:	4659      	mov	r1, fp
 80076da:	f7f8 fd45 	bl	8000168 <__aeabi_dsub>
 80076de:	4602      	mov	r2, r0
 80076e0:	2000      	movs	r0, #0
 80076e2:	460b      	mov	r3, r1
 80076e4:	4922      	ldr	r1, [pc, #136]	; (8007770 <__kernel_cos+0x170>)
 80076e6:	f7f8 fd3f 	bl	8000168 <__aeabi_dsub>
 80076ea:	b003      	add	sp, #12
 80076ec:	e8bd 8ff0 	ldmia.w	sp!, {r4, r5, r6, r7, r8, r9, sl, fp, pc}
 80076f0:	2400      	movs	r4, #0
 80076f2:	4b20      	ldr	r3, [pc, #128]	; (8007774 <__kernel_cos+0x174>)
 80076f4:	4622      	mov	r2, r4
 80076f6:	429e      	cmp	r6, r3
 80076f8:	bfcc      	ite	gt
 80076fa:	4d1f      	ldrgt	r5, [pc, #124]	; (8007778 <__kernel_cos+0x178>)
 80076fc:	f5a6 1500 	suble.w	r5, r6, #2097152	; 0x200000
 8007700:	462b      	mov	r3, r5
 8007702:	2000      	movs	r0, #0
 8007704:	491a      	ldr	r1, [pc, #104]	; (8007770 <__kernel_cos+0x170>)
 8007706:	f7f8 fd2f 	bl	8000168 <__aeabi_dsub>
 800770a:	4622      	mov	r2, r4
 800770c:	4606      	mov	r6, r0
 800770e:	460f      	mov	r7, r1
 8007710:	462b      	mov	r3, r5
 8007712:	4650      	mov	r0, sl
 8007714:	4659      	mov	r1, fp
 8007716:	f7f8 fd27 	bl	8000168 <__aeabi_dsub>
 800771a:	4642      	mov	r2, r8
 800771c:	464b      	mov	r3, r9
 800771e:	f7f8 fd23 	bl	8000168 <__aeabi_dsub>
 8007722:	4602      	mov	r2, r0
 8007724:	460b      	mov	r3, r1
 8007726:	4630      	mov	r0, r6
 8007728:	4639      	mov	r1, r7
 800772a:	e7dc      	b.n	80076e6 <__kernel_cos+0xe6>
 800772c:	2000      	movs	r0, #0
 800772e:	4910      	ldr	r1, [pc, #64]	; (8007770 <__kernel_cos+0x170>)
 8007730:	e7db      	b.n	80076ea <__kernel_cos+0xea>
 8007732:	bf00      	nop
 8007734:	f3af 8000 	nop.w
 8007738:	be8838d4 	.word	0xbe8838d4
 800773c:	bda8fae9 	.word	0xbda8fae9
 8007740:	bdb4b1c4 	.word	0xbdb4b1c4
 8007744:	3e21ee9e 	.word	0x3e21ee9e
 8007748:	809c52ad 	.word	0x809c52ad
 800774c:	3e927e4f 	.word	0x3e927e4f
 8007750:	19cb1590 	.word	0x19cb1590
 8007754:	3efa01a0 	.word	0x3efa01a0
 8007758:	16c15177 	.word	0x16c15177
 800775c:	3f56c16c 	.word	0x3f56c16c
 8007760:	5555554c 	.word	0x5555554c
 8007764:	3fa55555 	.word	0x3fa55555
 8007768:	3fe00000 	.word	0x3fe00000
 800776c:	3fd33332 	.word	0x3fd33332
 8007770:	3ff00000 	.word	0x3ff00000
 8007774:	3fe90000 	.word	0x3fe90000
 8007778:	3fd20000 	.word	0x3fd20000

0800777c <__kernel_rem_pio2>:
 800777c:	e92d 4ff0 	stmdb	sp!, {r4, r5, r6, r7, r8, r9, sl, fp, lr}
 8007780:	f5ad 7d19 	sub.w	sp, sp, #612	; 0x264
 8007784:	9308      	str	r3, [sp, #32]
 8007786:	9106      	str	r1, [sp, #24]
 8007788:	4bb6      	ldr	r3, [pc, #728]	; (8007a64 <__kernel_rem_pio2+0x2e8>)
 800778a:	99a2      	ldr	r1, [sp, #648]	; 0x288
 800778c:	f112 0f14 	cmn.w	r2, #20
 8007790:	f853 3021 	ldr.w	r3, [r3, r1, lsl #2]
 8007794:	bfa8      	it	ge
 8007796:	1ed4      	subge	r4, r2, #3
 8007798:	9302      	str	r3, [sp, #8]
 800779a:	9b08      	ldr	r3, [sp, #32]
 800779c:	bfb8      	it	lt
 800779e:	2400      	movlt	r4, #0
 80077a0:	f103 33ff 	add.w	r3, r3, #4294967295
 80077a4:	9307      	str	r3, [sp, #28]
 80077a6:	bfa4      	itt	ge
 80077a8:	2318      	movge	r3, #24
 80077aa:	fb94 f4f3 	sdivge	r4, r4, r3
 80077ae:	f06f 0317 	mvn.w	r3, #23
 80077b2:	fb04 3303 	mla	r3, r4, r3, r3
 80077b6:	eb03 0b02 	add.w	fp, r3, r2
 80077ba:	9a07      	ldr	r2, [sp, #28]
 80077bc:	9b02      	ldr	r3, [sp, #8]
 80077be:	1aa7      	subs	r7, r4, r2
 80077c0:	eb03 0802 	add.w	r8, r3, r2
 80077c4:	9ba3      	ldr	r3, [sp, #652]	; 0x28c
 80077c6:	2500      	movs	r5, #0
 80077c8:	eb03 0987 	add.w	r9, r3, r7, lsl #2
 80077cc:	2200      	movs	r2, #0
 80077ce:	2300      	movs	r3, #0
 80077d0:	9009      	str	r0, [sp, #36]	; 0x24
 80077d2:	ae20      	add	r6, sp, #128	; 0x80
 80077d4:	4545      	cmp	r5, r8
 80077d6:	dd14      	ble.n	8007802 <__kernel_rem_pio2+0x86>
 80077d8:	f04f 0800 	mov.w	r8, #0
 80077dc:	9a08      	ldr	r2, [sp, #32]
 80077de:	ab20      	add	r3, sp, #128	; 0x80
 80077e0:	eb03 05c2 	add.w	r5, r3, r2, lsl #3
 80077e4:	f50d 7ae0 	add.w	sl, sp, #448	; 0x1c0
 80077e8:	9b02      	ldr	r3, [sp, #8]
 80077ea:	4598      	cmp	r8, r3
 80077ec:	dc35      	bgt.n	800785a <__kernel_rem_pio2+0xde>
 80077ee:	9b09      	ldr	r3, [sp, #36]	; 0x24
 80077f0:	2200      	movs	r2, #0
 80077f2:	f1a3 0908 	sub.w	r9, r3, #8
 80077f6:	2300      	movs	r3, #0
 80077f8:	462f      	mov	r7, r5
 80077fa:	2600      	movs	r6, #0
 80077fc:	e9cd 2300 	strd	r2, r3, [sp]
 8007800:	e01f      	b.n	8007842 <__kernel_rem_pio2+0xc6>
 8007802:	42ef      	cmn	r7, r5
 8007804:	d40b      	bmi.n	800781e <__kernel_rem_pio2+0xa2>
 8007806:	f859 0025 	ldr.w	r0, [r9, r5, lsl #2]
 800780a:	e9cd 2300 	strd	r2, r3, [sp]
 800780e:	f7f8 fdf9 	bl	8000404 <__aeabi_i2d>
 8007812:	e9dd 2300 	ldrd	r2, r3, [sp]
 8007816:	e8e6 0102 	strd	r0, r1, [r6], #8
 800781a:	3501      	adds	r5, #1
 800781c:	e7da      	b.n	80077d4 <__kernel_rem_pio2+0x58>
 800781e:	4610      	mov	r0, r2
 8007820:	4619      	mov	r1, r3
 8007822:	e7f8      	b.n	8007816 <__kernel_rem_pio2+0x9a>
 8007824:	e9d7 2300 	ldrd	r2, r3, [r7]
 8007828:	e9f9 0102 	ldrd	r0, r1, [r9, #8]!
 800782c:	f7f8 fe54 	bl	80004d8 <__aeabi_dmul>
 8007830:	4602      	mov	r2, r0
 8007832:	460b      	mov	r3, r1
 8007834:	e9dd 0100 	ldrd	r0, r1, [sp]
 8007838:	f7f8 fc98 	bl	800016c <__adddf3>
 800783c:	e9cd 0100 	strd	r0, r1, [sp]
 8007840:	3601      	adds	r6, #1
 8007842:	9b07      	ldr	r3, [sp, #28]
 8007844:	3f08      	subs	r7, #8
 8007846:	429e      	cmp	r6, r3
 8007848:	ddec      	ble.n	8007824 <__kernel_rem_pio2+0xa8>
 800784a:	e9dd 2300 	ldrd	r2, r3, [sp]
 800784e:	f108 0801 	add.w	r8, r8, #1
 8007852:	e8ea 2302 	strd	r2, r3, [sl], #8
 8007856:	3508      	adds	r5, #8
 8007858:	e7c6      	b.n	80077e8 <__kernel_rem_pio2+0x6c>
 800785a:	9b02      	ldr	r3, [sp, #8]
 800785c:	aa0c      	add	r2, sp, #48	; 0x30
 800785e:	eb02 0383 	add.w	r3, r2, r3, lsl #2
 8007862:	930b      	str	r3, [sp, #44]	; 0x2c
 8007864:	9ba3      	ldr	r3, [sp, #652]	; 0x28c
 8007866:	9e02      	ldr	r6, [sp, #8]
 8007868:	eb03 0384 	add.w	r3, r3, r4, lsl #2
 800786c:	930a      	str	r3, [sp, #40]	; 0x28
 800786e:	ab98      	add	r3, sp, #608	; 0x260
 8007870:	eb03 03c6 	add.w	r3, r3, r6, lsl #3
 8007874:	e953 4528 	ldrd	r4, r5, [r3, #-160]	; 0xa0
 8007878:	ab70      	add	r3, sp, #448	; 0x1c0
 800787a:	eb03 0ac6 	add.w	sl, r3, r6, lsl #3
 800787e:	46d0      	mov	r8, sl
 8007880:	46b1      	mov	r9, r6
 8007882:	af0c      	add	r7, sp, #48	; 0x30
 8007884:	9700      	str	r7, [sp, #0]
 8007886:	f1b9 0f00 	cmp.w	r9, #0
 800788a:	f1a8 0808 	sub.w	r8, r8, #8
 800788e:	dc71      	bgt.n	8007974 <__kernel_rem_pio2+0x1f8>
 8007890:	465a      	mov	r2, fp
 8007892:	4620      	mov	r0, r4
 8007894:	4629      	mov	r1, r5
 8007896:	f000 fbf7 	bl	8008088 <scalbn>
 800789a:	2200      	movs	r2, #0
 800789c:	f04f 537f 	mov.w	r3, #1069547520	; 0x3fc00000
 80078a0:	4604      	mov	r4, r0
 80078a2:	460d      	mov	r5, r1
 80078a4:	f7f8 fe18 	bl	80004d8 <__aeabi_dmul>
 80078a8:	f000 fb66 	bl	8007f78 <floor>
 80078ac:	2200      	movs	r2, #0
 80078ae:	4b6e      	ldr	r3, [pc, #440]	; (8007a68 <__kernel_rem_pio2+0x2ec>)
 80078b0:	f7f8 fe12 	bl	80004d8 <__aeabi_dmul>
 80078b4:	4602      	mov	r2, r0
 80078b6:	460b      	mov	r3, r1
 80078b8:	4620      	mov	r0, r4
 80078ba:	4629      	mov	r1, r5
 80078bc:	f7f8 fc54 	bl	8000168 <__aeabi_dsub>
 80078c0:	460d      	mov	r5, r1
 80078c2:	4604      	mov	r4, r0
 80078c4:	f7f9 f8b8 	bl	8000a38 <__aeabi_d2iz>
 80078c8:	9004      	str	r0, [sp, #16]
 80078ca:	f7f8 fd9b 	bl	8000404 <__aeabi_i2d>
 80078ce:	4602      	mov	r2, r0
 80078d0:	460b      	mov	r3, r1
 80078d2:	4620      	mov	r0, r4
 80078d4:	4629      	mov	r1, r5
 80078d6:	f7f8 fc47 	bl	8000168 <__aeabi_dsub>
 80078da:	f1bb 0f00 	cmp.w	fp, #0
 80078de:	4680      	mov	r8, r0
 80078e0:	4689      	mov	r9, r1
 80078e2:	dd70      	ble.n	80079c6 <__kernel_rem_pio2+0x24a>
 80078e4:	1e72      	subs	r2, r6, #1
 80078e6:	ab0c      	add	r3, sp, #48	; 0x30
 80078e8:	f853 0022 	ldr.w	r0, [r3, r2, lsl #2]
 80078ec:	9c04      	ldr	r4, [sp, #16]
 80078ee:	f1cb 0118 	rsb	r1, fp, #24
 80078f2:	fa40 f301 	asr.w	r3, r0, r1
 80078f6:	441c      	add	r4, r3
 80078f8:	408b      	lsls	r3, r1
 80078fa:	1ac0      	subs	r0, r0, r3
 80078fc:	ab0c      	add	r3, sp, #48	; 0x30
 80078fe:	f843 0022 	str.w	r0, [r3, r2, lsl #2]
 8007902:	f1cb 0317 	rsb	r3, fp, #23
 8007906:	9404      	str	r4, [sp, #16]
 8007908:	fa40 f303 	asr.w	r3, r0, r3
 800790c:	9300      	str	r3, [sp, #0]
 800790e:	9b00      	ldr	r3, [sp, #0]
 8007910:	2b00      	cmp	r3, #0
 8007912:	dd66      	ble.n	80079e2 <__kernel_rem_pio2+0x266>
 8007914:	2200      	movs	r2, #0
 8007916:	f06f 417f 	mvn.w	r1, #4278190080	; 0xff000000
 800791a:	4614      	mov	r4, r2
 800791c:	9b04      	ldr	r3, [sp, #16]
 800791e:	3301      	adds	r3, #1
 8007920:	9304      	str	r3, [sp, #16]
 8007922:	4296      	cmp	r6, r2
 8007924:	f300 80ac 	bgt.w	8007a80 <__kernel_rem_pio2+0x304>
 8007928:	f1bb 0f00 	cmp.w	fp, #0
 800792c:	dd07      	ble.n	800793e <__kernel_rem_pio2+0x1c2>
 800792e:	f1bb 0f01 	cmp.w	fp, #1
 8007932:	f000 80b4 	beq.w	8007a9e <__kernel_rem_pio2+0x322>
 8007936:	f1bb 0f02 	cmp.w	fp, #2
 800793a:	f000 80ba 	beq.w	8007ab2 <__kernel_rem_pio2+0x336>
 800793e:	9b00      	ldr	r3, [sp, #0]
 8007940:	2b02      	cmp	r3, #2
 8007942:	d14e      	bne.n	80079e2 <__kernel_rem_pio2+0x266>
 8007944:	4642      	mov	r2, r8
 8007946:	464b      	mov	r3, r9
 8007948:	2000      	movs	r0, #0
 800794a:	4948      	ldr	r1, [pc, #288]	; (8007a6c <__kernel_rem_pio2+0x2f0>)
 800794c:	f7f8 fc0c 	bl	8000168 <__aeabi_dsub>
 8007950:	4680      	mov	r8, r0
 8007952:	4689      	mov	r9, r1
 8007954:	2c00      	cmp	r4, #0
 8007956:	d044      	beq.n	80079e2 <__kernel_rem_pio2+0x266>
 8007958:	465a      	mov	r2, fp
 800795a:	2000      	movs	r0, #0
 800795c:	4943      	ldr	r1, [pc, #268]	; (8007a6c <__kernel_rem_pio2+0x2f0>)
 800795e:	f000 fb93 	bl	8008088 <scalbn>
 8007962:	4602      	mov	r2, r0
 8007964:	460b      	mov	r3, r1
 8007966:	4640      	mov	r0, r8
 8007968:	4649      	mov	r1, r9
 800796a:	f7f8 fbfd 	bl	8000168 <__aeabi_dsub>
 800796e:	4680      	mov	r8, r0
 8007970:	4689      	mov	r9, r1
 8007972:	e036      	b.n	80079e2 <__kernel_rem_pio2+0x266>
 8007974:	2200      	movs	r2, #0
 8007976:	4b3e      	ldr	r3, [pc, #248]	; (8007a70 <__kernel_rem_pio2+0x2f4>)
 8007978:	4620      	mov	r0, r4
 800797a:	4629      	mov	r1, r5
 800797c:	f7f8 fdac 	bl	80004d8 <__aeabi_dmul>
 8007980:	f7f9 f85a 	bl	8000a38 <__aeabi_d2iz>
 8007984:	f7f8 fd3e 	bl	8000404 <__aeabi_i2d>
 8007988:	4602      	mov	r2, r0
 800798a:	460b      	mov	r3, r1
 800798c:	e9cd 2304 	strd	r2, r3, [sp, #16]
 8007990:	2200      	movs	r2, #0
 8007992:	4b38      	ldr	r3, [pc, #224]	; (8007a74 <__kernel_rem_pio2+0x2f8>)
 8007994:	f7f8 fda0 	bl	80004d8 <__aeabi_dmul>
 8007998:	4602      	mov	r2, r0
 800799a:	460b      	mov	r3, r1
 800799c:	4620      	mov	r0, r4
 800799e:	4629      	mov	r1, r5
 80079a0:	f7f8 fbe2 	bl	8000168 <__aeabi_dsub>
 80079a4:	f7f9 f848 	bl	8000a38 <__aeabi_d2iz>
 80079a8:	9b00      	ldr	r3, [sp, #0]
 80079aa:	f109 39ff 	add.w	r9, r9, #4294967295
 80079ae:	f843 0b04 	str.w	r0, [r3], #4
 80079b2:	9300      	str	r3, [sp, #0]
 80079b4:	e9dd 0104 	ldrd	r0, r1, [sp, #16]
 80079b8:	e9d8 2300 	ldrd	r2, r3, [r8]
 80079bc:	f7f8 fbd6 	bl	800016c <__adddf3>
 80079c0:	4604      	mov	r4, r0
 80079c2:	460d      	mov	r5, r1
 80079c4:	e75f      	b.n	8007886 <__kernel_rem_pio2+0x10a>
 80079c6:	d105      	bne.n	80079d4 <__kernel_rem_pio2+0x258>
 80079c8:	1e73      	subs	r3, r6, #1
 80079ca:	aa0c      	add	r2, sp, #48	; 0x30
 80079cc:	f852 0023 	ldr.w	r0, [r2, r3, lsl #2]
 80079d0:	15c3      	asrs	r3, r0, #23
 80079d2:	e79b      	b.n	800790c <__kernel_rem_pio2+0x190>
 80079d4:	2200      	movs	r2, #0
 80079d6:	4b28      	ldr	r3, [pc, #160]	; (8007a78 <__kernel_rem_pio2+0x2fc>)
 80079d8:	f7f9 f804 	bl	80009e4 <__aeabi_dcmpge>
 80079dc:	2800      	cmp	r0, #0
 80079de:	d13e      	bne.n	8007a5e <__kernel_rem_pio2+0x2e2>
 80079e0:	9000      	str	r0, [sp, #0]
 80079e2:	2200      	movs	r2, #0
 80079e4:	2300      	movs	r3, #0
 80079e6:	4640      	mov	r0, r8
 80079e8:	4649      	mov	r1, r9
 80079ea:	f7f8 ffdd 	bl	80009a8 <__aeabi_dcmpeq>
 80079ee:	2800      	cmp	r0, #0
 80079f0:	f000 80b1 	beq.w	8007b56 <__kernel_rem_pio2+0x3da>
 80079f4:	1e74      	subs	r4, r6, #1
 80079f6:	4623      	mov	r3, r4
 80079f8:	2200      	movs	r2, #0
 80079fa:	9902      	ldr	r1, [sp, #8]
 80079fc:	428b      	cmp	r3, r1
 80079fe:	da5f      	bge.n	8007ac0 <__kernel_rem_pio2+0x344>
 8007a00:	2a00      	cmp	r2, #0
 8007a02:	d074      	beq.n	8007aee <__kernel_rem_pio2+0x372>
 8007a04:	ab0c      	add	r3, sp, #48	; 0x30
 8007a06:	f853 3024 	ldr.w	r3, [r3, r4, lsl #2]
 8007a0a:	f1ab 0b18 	sub.w	fp, fp, #24
 8007a0e:	2b00      	cmp	r3, #0
 8007a10:	f000 809f 	beq.w	8007b52 <__kernel_rem_pio2+0x3d6>
 8007a14:	465a      	mov	r2, fp
 8007a16:	2000      	movs	r0, #0
 8007a18:	4914      	ldr	r1, [pc, #80]	; (8007a6c <__kernel_rem_pio2+0x2f0>)
 8007a1a:	f000 fb35 	bl	8008088 <scalbn>
 8007a1e:	46a2      	mov	sl, r4
 8007a20:	4606      	mov	r6, r0
 8007a22:	460f      	mov	r7, r1
 8007a24:	f04f 0800 	mov.w	r8, #0
 8007a28:	ab70      	add	r3, sp, #448	; 0x1c0
 8007a2a:	f8df 9044 	ldr.w	r9, [pc, #68]	; 8007a70 <__kernel_rem_pio2+0x2f4>
 8007a2e:	00e5      	lsls	r5, r4, #3
 8007a30:	eb03 0bc4 	add.w	fp, r3, r4, lsl #3
 8007a34:	f1ba 0f00 	cmp.w	sl, #0
 8007a38:	f280 80c3 	bge.w	8007bc2 <__kernel_rem_pio2+0x446>
 8007a3c:	4626      	mov	r6, r4
 8007a3e:	2e00      	cmp	r6, #0
 8007a40:	f2c0 80f5 	blt.w	8007c2e <__kernel_rem_pio2+0x4b2>
 8007a44:	4b0d      	ldr	r3, [pc, #52]	; (8007a7c <__kernel_rem_pio2+0x300>)
 8007a46:	f04f 0a00 	mov.w	sl, #0
 8007a4a:	9307      	str	r3, [sp, #28]
 8007a4c:	ab70      	add	r3, sp, #448	; 0x1c0
 8007a4e:	f04f 0b00 	mov.w	fp, #0
 8007a52:	f04f 0800 	mov.w	r8, #0
 8007a56:	eb03 09c6 	add.w	r9, r3, r6, lsl #3
 8007a5a:	1ba7      	subs	r7, r4, r6
 8007a5c:	e0db      	b.n	8007c16 <__kernel_rem_pio2+0x49a>
 8007a5e:	2302      	movs	r3, #2
 8007a60:	9300      	str	r3, [sp, #0]
 8007a62:	e757      	b.n	8007914 <__kernel_rem_pio2+0x198>
 8007a64:	08008770 	.word	0x08008770
 8007a68:	40200000 	.word	0x40200000
 8007a6c:	3ff00000 	.word	0x3ff00000
 8007a70:	3e700000 	.word	0x3e700000
 8007a74:	41700000 	.word	0x41700000
 8007a78:	3fe00000 	.word	0x3fe00000
 8007a7c:	08008730 	.word	0x08008730
 8007a80:	683b      	ldr	r3, [r7, #0]
 8007a82:	b944      	cbnz	r4, 8007a96 <__kernel_rem_pio2+0x31a>
 8007a84:	b11b      	cbz	r3, 8007a8e <__kernel_rem_pio2+0x312>
 8007a86:	f1c3 7380 	rsb	r3, r3, #16777216	; 0x1000000
 8007a8a:	603b      	str	r3, [r7, #0]
 8007a8c:	2301      	movs	r3, #1
 8007a8e:	461c      	mov	r4, r3
 8007a90:	3201      	adds	r2, #1
 8007a92:	3704      	adds	r7, #4
 8007a94:	e745      	b.n	8007922 <__kernel_rem_pio2+0x1a6>
 8007a96:	1acb      	subs	r3, r1, r3
 8007a98:	603b      	str	r3, [r7, #0]
 8007a9a:	4623      	mov	r3, r4
 8007a9c:	e7f7      	b.n	8007a8e <__kernel_rem_pio2+0x312>
 8007a9e:	1e72      	subs	r2, r6, #1
 8007aa0:	ab0c      	add	r3, sp, #48	; 0x30
 8007aa2:	f853 3022 	ldr.w	r3, [r3, r2, lsl #2]
 8007aa6:	f3c3 0316 	ubfx	r3, r3, #0, #23
 8007aaa:	a90c      	add	r1, sp, #48	; 0x30
 8007aac:	f841 3022 	str.w	r3, [r1, r2, lsl #2]
 8007ab0:	e745      	b.n	800793e <__kernel_rem_pio2+0x1c2>
 8007ab2:	1e72      	subs	r2, r6, #1
 8007ab4:	ab0c      	add	r3, sp, #48	; 0x30
 8007ab6:	f853 3022 	ldr.w	r3, [r3, r2, lsl #2]
 8007aba:	f3c3 0315 	ubfx	r3, r3, #0, #22
 8007abe:	e7f4      	b.n	8007aaa <__kernel_rem_pio2+0x32e>
 8007ac0:	a90c      	add	r1, sp, #48	; 0x30
 8007ac2:	f851 1023 	ldr.w	r1, [r1, r3, lsl #2]
 8007ac6:	3b01      	subs	r3, #1
 8007ac8:	430a      	orrs	r2, r1
 8007aca:	e796      	b.n	80079fa <__kernel_rem_pio2+0x27e>
 8007acc:	3401      	adds	r4, #1
 8007ace:	f853 2d04 	ldr.w	r2, [r3, #-4]!
 8007ad2:	2a00      	cmp	r2, #0
 8007ad4:	d0fa      	beq.n	8007acc <__kernel_rem_pio2+0x350>
 8007ad6:	9b08      	ldr	r3, [sp, #32]
 8007ad8:	f106 0801 	add.w	r8, r6, #1
 8007adc:	18f5      	adds	r5, r6, r3
 8007ade:	ab20      	add	r3, sp, #128	; 0x80
 8007ae0:	eb03 05c5 	add.w	r5, r3, r5, lsl #3
 8007ae4:	4434      	add	r4, r6
 8007ae6:	4544      	cmp	r4, r8
 8007ae8:	da04      	bge.n	8007af4 <__kernel_rem_pio2+0x378>
 8007aea:	4626      	mov	r6, r4
 8007aec:	e6bf      	b.n	800786e <__kernel_rem_pio2+0xf2>
 8007aee:	2401      	movs	r4, #1
 8007af0:	9b0b      	ldr	r3, [sp, #44]	; 0x2c
 8007af2:	e7ec      	b.n	8007ace <__kernel_rem_pio2+0x352>
 8007af4:	9b0a      	ldr	r3, [sp, #40]	; 0x28
 8007af6:	f04f 0900 	mov.w	r9, #0
 8007afa:	f853 0028 	ldr.w	r0, [r3, r8, lsl #2]
 8007afe:	f7f8 fc81 	bl	8000404 <__aeabi_i2d>
 8007b02:	2600      	movs	r6, #0
 8007b04:	2700      	movs	r7, #0
 8007b06:	9b09      	ldr	r3, [sp, #36]	; 0x24
 8007b08:	e9c5 0100 	strd	r0, r1, [r5]
 8007b0c:	3b08      	subs	r3, #8
 8007b0e:	9300      	str	r3, [sp, #0]
 8007b10:	9504      	str	r5, [sp, #16]
 8007b12:	9b07      	ldr	r3, [sp, #28]
 8007b14:	4599      	cmp	r9, r3
 8007b16:	dd05      	ble.n	8007b24 <__kernel_rem_pio2+0x3a8>
 8007b18:	e9ea 6702 	strd	r6, r7, [sl, #8]!
 8007b1c:	f108 0801 	add.w	r8, r8, #1
 8007b20:	3508      	adds	r5, #8
 8007b22:	e7e0      	b.n	8007ae6 <__kernel_rem_pio2+0x36a>
 8007b24:	f8dd c010 	ldr.w	ip, [sp, #16]
 8007b28:	9900      	ldr	r1, [sp, #0]
 8007b2a:	f109 0901 	add.w	r9, r9, #1
 8007b2e:	e9f1 2302 	ldrd	r2, r3, [r1, #8]!
 8007b32:	9100      	str	r1, [sp, #0]
 8007b34:	e87c 0102 	ldrd	r0, r1, [ip], #-8
 8007b38:	f8cd c010 	str.w	ip, [sp, #16]
 8007b3c:	f7f8 fccc 	bl	80004d8 <__aeabi_dmul>
 8007b40:	4602      	mov	r2, r0
 8007b42:	460b      	mov	r3, r1
 8007b44:	4630      	mov	r0, r6
 8007b46:	4639      	mov	r1, r7
 8007b48:	f7f8 fb10 	bl	800016c <__adddf3>
 8007b4c:	4606      	mov	r6, r0
 8007b4e:	460f      	mov	r7, r1
 8007b50:	e7df      	b.n	8007b12 <__kernel_rem_pio2+0x396>
 8007b52:	3c01      	subs	r4, #1
 8007b54:	e756      	b.n	8007a04 <__kernel_rem_pio2+0x288>
 8007b56:	f1cb 0200 	rsb	r2, fp, #0
 8007b5a:	4640      	mov	r0, r8
 8007b5c:	4649      	mov	r1, r9
 8007b5e:	f000 fa93 	bl	8008088 <scalbn>
 8007b62:	2200      	movs	r2, #0
 8007b64:	4ba4      	ldr	r3, [pc, #656]	; (8007df8 <__kernel_rem_pio2+0x67c>)
 8007b66:	4604      	mov	r4, r0
 8007b68:	460d      	mov	r5, r1
 8007b6a:	f7f8 ff3b 	bl	80009e4 <__aeabi_dcmpge>
 8007b6e:	b1f8      	cbz	r0, 8007bb0 <__kernel_rem_pio2+0x434>
 8007b70:	2200      	movs	r2, #0
 8007b72:	4ba2      	ldr	r3, [pc, #648]	; (8007dfc <__kernel_rem_pio2+0x680>)
 8007b74:	4620      	mov	r0, r4
 8007b76:	4629      	mov	r1, r5
 8007b78:	f7f8 fcae 	bl	80004d8 <__aeabi_dmul>
 8007b7c:	f7f8 ff5c 	bl	8000a38 <__aeabi_d2iz>
 8007b80:	4607      	mov	r7, r0
 8007b82:	f7f8 fc3f 	bl	8000404 <__aeabi_i2d>
 8007b86:	2200      	movs	r2, #0
 8007b88:	4b9b      	ldr	r3, [pc, #620]	; (8007df8 <__kernel_rem_pio2+0x67c>)
 8007b8a:	f7f8 fca5 	bl	80004d8 <__aeabi_dmul>
 8007b8e:	460b      	mov	r3, r1
 8007b90:	4602      	mov	r2, r0
 8007b92:	4629      	mov	r1, r5
 8007b94:	4620      	mov	r0, r4
 8007b96:	f7f8 fae7 	bl	8000168 <__aeabi_dsub>
 8007b9a:	f7f8 ff4d 	bl	8000a38 <__aeabi_d2iz>
 8007b9e:	1c74      	adds	r4, r6, #1
 8007ba0:	ab0c      	add	r3, sp, #48	; 0x30
 8007ba2:	f843 0026 	str.w	r0, [r3, r6, lsl #2]
 8007ba6:	f10b 0b18 	add.w	fp, fp, #24
 8007baa:	f843 7024 	str.w	r7, [r3, r4, lsl #2]
 8007bae:	e731      	b.n	8007a14 <__kernel_rem_pio2+0x298>
 8007bb0:	4620      	mov	r0, r4
 8007bb2:	4629      	mov	r1, r5
 8007bb4:	f7f8 ff40 	bl	8000a38 <__aeabi_d2iz>
 8007bb8:	ab0c      	add	r3, sp, #48	; 0x30
 8007bba:	4634      	mov	r4, r6
 8007bbc:	f843 0026 	str.w	r0, [r3, r6, lsl #2]
 8007bc0:	e728      	b.n	8007a14 <__kernel_rem_pio2+0x298>
 8007bc2:	ab0c      	add	r3, sp, #48	; 0x30
 8007bc4:	f853 002a 	ldr.w	r0, [r3, sl, lsl #2]
 8007bc8:	f7f8 fc1c 	bl	8000404 <__aeabi_i2d>
 8007bcc:	4632      	mov	r2, r6
 8007bce:	463b      	mov	r3, r7
 8007bd0:	f7f8 fc82 	bl	80004d8 <__aeabi_dmul>
 8007bd4:	4642      	mov	r2, r8
 8007bd6:	e86b 0102 	strd	r0, r1, [fp], #-8
 8007bda:	464b      	mov	r3, r9
 8007bdc:	4630      	mov	r0, r6
 8007bde:	4639      	mov	r1, r7
 8007be0:	f7f8 fc7a 	bl	80004d8 <__aeabi_dmul>
 8007be4:	f10a 3aff 	add.w	sl, sl, #4294967295
 8007be8:	4606      	mov	r6, r0
 8007bea:	460f      	mov	r7, r1
 8007bec:	e722      	b.n	8007a34 <__kernel_rem_pio2+0x2b8>
 8007bee:	f8dd c01c 	ldr.w	ip, [sp, #28]
 8007bf2:	e8f9 2302 	ldrd	r2, r3, [r9], #8
 8007bf6:	e8fc 0102 	ldrd	r0, r1, [ip], #8
 8007bfa:	f8cd c01c 	str.w	ip, [sp, #28]
 8007bfe:	f7f8 fc6b 	bl	80004d8 <__aeabi_dmul>
 8007c02:	4602      	mov	r2, r0
 8007c04:	460b      	mov	r3, r1
 8007c06:	4650      	mov	r0, sl
 8007c08:	4659      	mov	r1, fp
 8007c0a:	f7f8 faaf 	bl	800016c <__adddf3>
 8007c0e:	4682      	mov	sl, r0
 8007c10:	468b      	mov	fp, r1
 8007c12:	f108 0801 	add.w	r8, r8, #1
 8007c16:	9b02      	ldr	r3, [sp, #8]
 8007c18:	4598      	cmp	r8, r3
 8007c1a:	dc01      	bgt.n	8007c20 <__kernel_rem_pio2+0x4a4>
 8007c1c:	45b8      	cmp	r8, r7
 8007c1e:	dde6      	ble.n	8007bee <__kernel_rem_pio2+0x472>
 8007c20:	ab48      	add	r3, sp, #288	; 0x120
 8007c22:	eb03 07c7 	add.w	r7, r3, r7, lsl #3
 8007c26:	e9c7 ab00 	strd	sl, fp, [r7]
 8007c2a:	3e01      	subs	r6, #1
 8007c2c:	e707      	b.n	8007a3e <__kernel_rem_pio2+0x2c2>
 8007c2e:	9ba2      	ldr	r3, [sp, #648]	; 0x288
 8007c30:	2b02      	cmp	r3, #2
 8007c32:	dc09      	bgt.n	8007c48 <__kernel_rem_pio2+0x4cc>
 8007c34:	2b00      	cmp	r3, #0
 8007c36:	dc32      	bgt.n	8007c9e <__kernel_rem_pio2+0x522>
 8007c38:	d05a      	beq.n	8007cf0 <__kernel_rem_pio2+0x574>
 8007c3a:	9b04      	ldr	r3, [sp, #16]
 8007c3c:	f003 0007 	and.w	r0, r3, #7
 8007c40:	f50d 7d19 	add.w	sp, sp, #612	; 0x264
 8007c44:	e8bd 8ff0 	ldmia.w	sp!, {r4, r5, r6, r7, r8, r9, sl, fp, pc}
 8007c48:	9ba2      	ldr	r3, [sp, #648]	; 0x288
 8007c4a:	2b03      	cmp	r3, #3
 8007c4c:	d1f5      	bne.n	8007c3a <__kernel_rem_pio2+0x4be>
 8007c4e:	ab48      	add	r3, sp, #288	; 0x120
 8007c50:	441d      	add	r5, r3
 8007c52:	46aa      	mov	sl, r5
 8007c54:	46a3      	mov	fp, r4
 8007c56:	f1bb 0f00 	cmp.w	fp, #0
 8007c5a:	dc76      	bgt.n	8007d4a <__kernel_rem_pio2+0x5ce>
 8007c5c:	46aa      	mov	sl, r5
 8007c5e:	46a3      	mov	fp, r4
 8007c60:	f1bb 0f01 	cmp.w	fp, #1
 8007c64:	f300 8090 	bgt.w	8007d88 <__kernel_rem_pio2+0x60c>
 8007c68:	2700      	movs	r7, #0
 8007c6a:	463e      	mov	r6, r7
 8007c6c:	2c01      	cmp	r4, #1
 8007c6e:	f300 80aa 	bgt.w	8007dc6 <__kernel_rem_pio2+0x64a>
 8007c72:	e9dd 5048 	ldrd	r5, r0, [sp, #288]	; 0x120
 8007c76:	e9dd 414a 	ldrd	r4, r1, [sp, #296]	; 0x128
 8007c7a:	9b00      	ldr	r3, [sp, #0]
 8007c7c:	2b00      	cmp	r3, #0
 8007c7e:	f040 80ac 	bne.w	8007dda <__kernel_rem_pio2+0x65e>
 8007c82:	4603      	mov	r3, r0
 8007c84:	462a      	mov	r2, r5
 8007c86:	9806      	ldr	r0, [sp, #24]
 8007c88:	e9c0 2300 	strd	r2, r3, [r0]
 8007c8c:	4622      	mov	r2, r4
 8007c8e:	460b      	mov	r3, r1
 8007c90:	e9c0 2302 	strd	r2, r3, [r0, #8]
 8007c94:	463a      	mov	r2, r7
 8007c96:	4633      	mov	r3, r6
 8007c98:	e9c0 2304 	strd	r2, r3, [r0, #16]
 8007c9c:	e7cd      	b.n	8007c3a <__kernel_rem_pio2+0x4be>
 8007c9e:	2000      	movs	r0, #0
 8007ca0:	46a0      	mov	r8, r4
 8007ca2:	4601      	mov	r1, r0
 8007ca4:	ab48      	add	r3, sp, #288	; 0x120
 8007ca6:	441d      	add	r5, r3
 8007ca8:	f1b8 0f00 	cmp.w	r8, #0
 8007cac:	da3a      	bge.n	8007d24 <__kernel_rem_pio2+0x5a8>
 8007cae:	9b00      	ldr	r3, [sp, #0]
 8007cb0:	2b00      	cmp	r3, #0
 8007cb2:	d03e      	beq.n	8007d32 <__kernel_rem_pio2+0x5b6>
 8007cb4:	f101 4500 	add.w	r5, r1, #2147483648	; 0x80000000
 8007cb8:	4602      	mov	r2, r0
 8007cba:	462b      	mov	r3, r5
 8007cbc:	9d06      	ldr	r5, [sp, #24]
 8007cbe:	2601      	movs	r6, #1
 8007cc0:	e9c5 2300 	strd	r2, r3, [r5]
 8007cc4:	460b      	mov	r3, r1
 8007cc6:	e9dd 0148 	ldrd	r0, r1, [sp, #288]	; 0x120
 8007cca:	f7f8 fa4d 	bl	8000168 <__aeabi_dsub>
 8007cce:	4684      	mov	ip, r0
 8007cd0:	460f      	mov	r7, r1
 8007cd2:	ad48      	add	r5, sp, #288	; 0x120
 8007cd4:	42b4      	cmp	r4, r6
 8007cd6:	f105 0508 	add.w	r5, r5, #8
 8007cda:	da2c      	bge.n	8007d36 <__kernel_rem_pio2+0x5ba>
 8007cdc:	9b00      	ldr	r3, [sp, #0]
 8007cde:	b10b      	cbz	r3, 8007ce4 <__kernel_rem_pio2+0x568>
 8007ce0:	f107 4700 	add.w	r7, r7, #2147483648	; 0x80000000
 8007ce4:	4662      	mov	r2, ip
 8007ce6:	463b      	mov	r3, r7
 8007ce8:	9906      	ldr	r1, [sp, #24]
 8007cea:	e9c1 2302 	strd	r2, r3, [r1, #8]
 8007cee:	e7a4      	b.n	8007c3a <__kernel_rem_pio2+0x4be>
 8007cf0:	9ea2      	ldr	r6, [sp, #648]	; 0x288
 8007cf2:	ab48      	add	r3, sp, #288	; 0x120
 8007cf4:	4637      	mov	r7, r6
 8007cf6:	441d      	add	r5, r3
 8007cf8:	2c00      	cmp	r4, #0
 8007cfa:	da09      	bge.n	8007d10 <__kernel_rem_pio2+0x594>
 8007cfc:	9b00      	ldr	r3, [sp, #0]
 8007cfe:	b10b      	cbz	r3, 8007d04 <__kernel_rem_pio2+0x588>
 8007d00:	f107 4700 	add.w	r7, r7, #2147483648	; 0x80000000
 8007d04:	4632      	mov	r2, r6
 8007d06:	463b      	mov	r3, r7
 8007d08:	9906      	ldr	r1, [sp, #24]
 8007d0a:	e9c1 2300 	strd	r2, r3, [r1]
 8007d0e:	e794      	b.n	8007c3a <__kernel_rem_pio2+0x4be>
 8007d10:	4630      	mov	r0, r6
 8007d12:	e875 2302 	ldrd	r2, r3, [r5], #-8
 8007d16:	4639      	mov	r1, r7
 8007d18:	f7f8 fa28 	bl	800016c <__adddf3>
 8007d1c:	3c01      	subs	r4, #1
 8007d1e:	4606      	mov	r6, r0
 8007d20:	460f      	mov	r7, r1
 8007d22:	e7e9      	b.n	8007cf8 <__kernel_rem_pio2+0x57c>
 8007d24:	e875 2302 	ldrd	r2, r3, [r5], #-8
 8007d28:	f7f8 fa20 	bl	800016c <__adddf3>
 8007d2c:	f108 38ff 	add.w	r8, r8, #4294967295
 8007d30:	e7ba      	b.n	8007ca8 <__kernel_rem_pio2+0x52c>
 8007d32:	460d      	mov	r5, r1
 8007d34:	e7c0      	b.n	8007cb8 <__kernel_rem_pio2+0x53c>
 8007d36:	4660      	mov	r0, ip
 8007d38:	e9d5 2300 	ldrd	r2, r3, [r5]
 8007d3c:	4639      	mov	r1, r7
 8007d3e:	f7f8 fa15 	bl	800016c <__adddf3>
 8007d42:	3601      	adds	r6, #1
 8007d44:	4684      	mov	ip, r0
 8007d46:	460f      	mov	r7, r1
 8007d48:	e7c4      	b.n	8007cd4 <__kernel_rem_pio2+0x558>
 8007d4a:	e9da 6700 	ldrd	r6, r7, [sl]
 8007d4e:	e95a 8902 	ldrd	r8, r9, [sl, #-8]
 8007d52:	4632      	mov	r2, r6
 8007d54:	463b      	mov	r3, r7
 8007d56:	4640      	mov	r0, r8
 8007d58:	4649      	mov	r1, r9
 8007d5a:	f7f8 fa07 	bl	800016c <__adddf3>
 8007d5e:	4602      	mov	r2, r0
 8007d60:	460b      	mov	r3, r1
 8007d62:	e9cd 0102 	strd	r0, r1, [sp, #8]
 8007d66:	4640      	mov	r0, r8
 8007d68:	4649      	mov	r1, r9
 8007d6a:	f7f8 f9fd 	bl	8000168 <__aeabi_dsub>
 8007d6e:	4632      	mov	r2, r6
 8007d70:	463b      	mov	r3, r7
 8007d72:	f7f8 f9fb 	bl	800016c <__adddf3>
 8007d76:	e9dd 2302 	ldrd	r2, r3, [sp, #8]
 8007d7a:	e86a 0102 	strd	r0, r1, [sl], #-8
 8007d7e:	f10b 3bff 	add.w	fp, fp, #4294967295
 8007d82:	e9ca 2300 	strd	r2, r3, [sl]
 8007d86:	e766      	b.n	8007c56 <__kernel_rem_pio2+0x4da>
 8007d88:	e9da 8900 	ldrd	r8, r9, [sl]
 8007d8c:	e95a 6702 	ldrd	r6, r7, [sl, #-8]
 8007d90:	4642      	mov	r2, r8
 8007d92:	464b      	mov	r3, r9
 8007d94:	4630      	mov	r0, r6
 8007d96:	4639      	mov	r1, r7
 8007d98:	f7f8 f9e8 	bl	800016c <__adddf3>
 8007d9c:	4602      	mov	r2, r0
 8007d9e:	460b      	mov	r3, r1
 8007da0:	e9cd 0102 	strd	r0, r1, [sp, #8]
 8007da4:	4630      	mov	r0, r6
 8007da6:	4639      	mov	r1, r7
 8007da8:	f7f8 f9de 	bl	8000168 <__aeabi_dsub>
 8007dac:	4642      	mov	r2, r8
 8007dae:	464b      	mov	r3, r9
 8007db0:	f7f8 f9dc 	bl	800016c <__adddf3>
 8007db4:	e9dd 2302 	ldrd	r2, r3, [sp, #8]
 8007db8:	e86a 0102 	strd	r0, r1, [sl], #-8
 8007dbc:	f10b 3bff 	add.w	fp, fp, #4294967295
 8007dc0:	e9ca 2300 	strd	r2, r3, [sl]
 8007dc4:	e74c      	b.n	8007c60 <__kernel_rem_pio2+0x4e4>
 8007dc6:	4638      	mov	r0, r7
 8007dc8:	e875 2302 	ldrd	r2, r3, [r5], #-8
 8007dcc:	4631      	mov	r1, r6
 8007dce:	f7f8 f9cd 	bl	800016c <__adddf3>
 8007dd2:	3c01      	subs	r4, #1
 8007dd4:	4607      	mov	r7, r0
 8007dd6:	460e      	mov	r6, r1
 8007dd8:	e748      	b.n	8007c6c <__kernel_rem_pio2+0x4f0>
 8007dda:	9b06      	ldr	r3, [sp, #24]
 8007ddc:	f100 4000 	add.w	r0, r0, #2147483648	; 0x80000000
 8007de0:	f101 4100 	add.w	r1, r1, #2147483648	; 0x80000000
 8007de4:	f106 4600 	add.w	r6, r6, #2147483648	; 0x80000000
 8007de8:	e9c3 0401 	strd	r0, r4, [r3, #4]
 8007dec:	e9c3 1703 	strd	r1, r7, [r3, #12]
 8007df0:	601d      	str	r5, [r3, #0]
 8007df2:	615e      	str	r6, [r3, #20]
 8007df4:	e721      	b.n	8007c3a <__kernel_rem_pio2+0x4be>
 8007df6:	bf00      	nop
 8007df8:	41700000 	.word	0x41700000
 8007dfc:	3e700000 	.word	0x3e700000

08007e00 <__kernel_sin>:
 8007e00:	e92d 47f0 	stmdb	sp!, {r4, r5, r6, r7, r8, r9, sl, lr}
 8007e04:	b086      	sub	sp, #24
 8007e06:	e9cd 2300 	strd	r2, r3, [sp]
 8007e0a:	f021 4300 	bic.w	r3, r1, #2147483648	; 0x80000000
 8007e0e:	f1b3 5f79 	cmp.w	r3, #1044381696	; 0x3e400000
 8007e12:	4682      	mov	sl, r0
 8007e14:	460c      	mov	r4, r1
 8007e16:	9d0e      	ldr	r5, [sp, #56]	; 0x38
 8007e18:	da03      	bge.n	8007e22 <__kernel_sin+0x22>
 8007e1a:	f7f8 fe0d 	bl	8000a38 <__aeabi_d2iz>
 8007e1e:	2800      	cmp	r0, #0
 8007e20:	d050      	beq.n	8007ec4 <__kernel_sin+0xc4>
 8007e22:	4652      	mov	r2, sl
 8007e24:	4623      	mov	r3, r4
 8007e26:	4650      	mov	r0, sl
 8007e28:	4621      	mov	r1, r4
 8007e2a:	f7f8 fb55 	bl	80004d8 <__aeabi_dmul>
 8007e2e:	4606      	mov	r6, r0
 8007e30:	460f      	mov	r7, r1
 8007e32:	4602      	mov	r2, r0
 8007e34:	460b      	mov	r3, r1
 8007e36:	4650      	mov	r0, sl
 8007e38:	4621      	mov	r1, r4
 8007e3a:	f7f8 fb4d 	bl	80004d8 <__aeabi_dmul>
 8007e3e:	a33e      	add	r3, pc, #248	; (adr r3, 8007f38 <__kernel_sin+0x138>)
 8007e40:	e9d3 2300 	ldrd	r2, r3, [r3]
 8007e44:	4680      	mov	r8, r0
 8007e46:	4689      	mov	r9, r1
 8007e48:	4630      	mov	r0, r6
 8007e4a:	4639      	mov	r1, r7
 8007e4c:	f7f8 fb44 	bl	80004d8 <__aeabi_dmul>
 8007e50:	a33b      	add	r3, pc, #236	; (adr r3, 8007f40 <__kernel_sin+0x140>)
 8007e52:	e9d3 2300 	ldrd	r2, r3, [r3]
 8007e56:	f7f8 f987 	bl	8000168 <__aeabi_dsub>
 8007e5a:	4632      	mov	r2, r6
 8007e5c:	463b      	mov	r3, r7
 8007e5e:	f7f8 fb3b 	bl	80004d8 <__aeabi_dmul>
 8007e62:	a339      	add	r3, pc, #228	; (adr r3, 8007f48 <__kernel_sin+0x148>)
 8007e64:	e9d3 2300 	ldrd	r2, r3, [r3]
 8007e68:	f7f8 f980 	bl	800016c <__adddf3>
 8007e6c:	4632      	mov	r2, r6
 8007e6e:	463b      	mov	r3, r7
 8007e70:	f7f8 fb32 	bl	80004d8 <__aeabi_dmul>
 8007e74:	a336      	add	r3, pc, #216	; (adr r3, 8007f50 <__kernel_sin+0x150>)
 8007e76:	e9d3 2300 	ldrd	r2, r3, [r3]
 8007e7a:	f7f8 f975 	bl	8000168 <__aeabi_dsub>
 8007e7e:	4632      	mov	r2, r6
 8007e80:	463b      	mov	r3, r7
 8007e82:	f7f8 fb29 	bl	80004d8 <__aeabi_dmul>
 8007e86:	a334      	add	r3, pc, #208	; (adr r3, 8007f58 <__kernel_sin+0x158>)
 8007e88:	e9d3 2300 	ldrd	r2, r3, [r3]
 8007e8c:	f7f8 f96e 	bl	800016c <__adddf3>
 8007e90:	e9cd 0102 	strd	r0, r1, [sp, #8]
 8007e94:	b9dd      	cbnz	r5, 8007ece <__kernel_sin+0xce>
 8007e96:	4602      	mov	r2, r0
 8007e98:	460b      	mov	r3, r1
 8007e9a:	4630      	mov	r0, r6
 8007e9c:	4639      	mov	r1, r7
 8007e9e:	f7f8 fb1b 	bl	80004d8 <__aeabi_dmul>
 8007ea2:	a32f      	add	r3, pc, #188	; (adr r3, 8007f60 <__kernel_sin+0x160>)
 8007ea4:	e9d3 2300 	ldrd	r2, r3, [r3]
 8007ea8:	f7f8 f95e 	bl	8000168 <__aeabi_dsub>
 8007eac:	4642      	mov	r2, r8
 8007eae:	464b      	mov	r3, r9
 8007eb0:	f7f8 fb12 	bl	80004d8 <__aeabi_dmul>
 8007eb4:	4602      	mov	r2, r0
 8007eb6:	460b      	mov	r3, r1
 8007eb8:	4650      	mov	r0, sl
 8007eba:	4621      	mov	r1, r4
 8007ebc:	f7f8 f956 	bl	800016c <__adddf3>
 8007ec0:	4682      	mov	sl, r0
 8007ec2:	460c      	mov	r4, r1
 8007ec4:	4650      	mov	r0, sl
 8007ec6:	4621      	mov	r1, r4
 8007ec8:	b006      	add	sp, #24
 8007eca:	e8bd 87f0 	ldmia.w	sp!, {r4, r5, r6, r7, r8, r9, sl, pc}
 8007ece:	2200      	movs	r2, #0
 8007ed0:	e9dd 0100 	ldrd	r0, r1, [sp]
 8007ed4:	4b24      	ldr	r3, [pc, #144]	; (8007f68 <__kernel_sin+0x168>)
 8007ed6:	f7f8 faff 	bl	80004d8 <__aeabi_dmul>
 8007eda:	e9dd 2302 	ldrd	r2, r3, [sp, #8]
 8007ede:	e9cd 0104 	strd	r0, r1, [sp, #16]
 8007ee2:	4640      	mov	r0, r8
 8007ee4:	4649      	mov	r1, r9
 8007ee6:	f7f8 faf7 	bl	80004d8 <__aeabi_dmul>
 8007eea:	4602      	mov	r2, r0
 8007eec:	460b      	mov	r3, r1
 8007eee:	e9dd 0104 	ldrd	r0, r1, [sp, #16]
 8007ef2:	f7f8 f939 	bl	8000168 <__aeabi_dsub>
 8007ef6:	4632      	mov	r2, r6
 8007ef8:	463b      	mov	r3, r7
 8007efa:	f7f8 faed 	bl	80004d8 <__aeabi_dmul>
 8007efe:	e9dd 2300 	ldrd	r2, r3, [sp]
 8007f02:	f7f8 f931 	bl	8000168 <__aeabi_dsub>
 8007f06:	a316      	add	r3, pc, #88	; (adr r3, 8007f60 <__kernel_sin+0x160>)
 8007f08:	e9d3 2300 	ldrd	r2, r3, [r3]
 8007f0c:	4606      	mov	r6, r0
 8007f0e:	460f      	mov	r7, r1
 8007f10:	4640      	mov	r0, r8
 8007f12:	4649      	mov	r1, r9
 8007f14:	f7f8 fae0 	bl	80004d8 <__aeabi_dmul>
 8007f18:	4602      	mov	r2, r0
 8007f1a:	460b      	mov	r3, r1
 8007f1c:	4630      	mov	r0, r6
 8007f1e:	4639      	mov	r1, r7
 8007f20:	f7f8 f924 	bl	800016c <__adddf3>
 8007f24:	4602      	mov	r2, r0
 8007f26:	460b      	mov	r3, r1
 8007f28:	4650      	mov	r0, sl
 8007f2a:	4621      	mov	r1, r4
 8007f2c:	f7f8 f91c 	bl	8000168 <__aeabi_dsub>
 8007f30:	e7c6      	b.n	8007ec0 <__kernel_sin+0xc0>
 8007f32:	bf00      	nop
 8007f34:	f3af 8000 	nop.w
 8007f38:	5acfd57c 	.word	0x5acfd57c
 8007f3c:	3de5d93a 	.word	0x3de5d93a
 8007f40:	8a2b9ceb 	.word	0x8a2b9ceb
 8007f44:	3e5ae5e6 	.word	0x3e5ae5e6
 8007f48:	57b1fe7d 	.word	0x57b1fe7d
 8007f4c:	3ec71de3 	.word	0x3ec71de3
 8007f50:	19c161d5 	.word	0x19c161d5
 8007f54:	3f2a01a0 	.word	0x3f2a01a0
 8007f58:	1110f8a6 	.word	0x1110f8a6
 8007f5c:	3f811111 	.word	0x3f811111
 8007f60:	55555549 	.word	0x55555549
 8007f64:	3fc55555 	.word	0x3fc55555
 8007f68:	3fe00000 	.word	0x3fe00000

08007f6c <fabs>:
 8007f6c:	f021 4100 	bic.w	r1, r1, #2147483648	; 0x80000000
 8007f70:	4770      	bx	lr
 8007f72:	0000      	movs	r0, r0
 8007f74:	0000      	movs	r0, r0
	...

08007f78 <floor>:
 8007f78:	e92d 43f8 	stmdb	sp!, {r3, r4, r5, r6, r7, r8, r9, lr}
 8007f7c:	f3c1 580a 	ubfx	r8, r1, #20, #11
 8007f80:	f2a8 36ff 	subw	r6, r8, #1023	; 0x3ff
 8007f84:	2e13      	cmp	r6, #19
 8007f86:	4602      	mov	r2, r0
 8007f88:	460b      	mov	r3, r1
 8007f8a:	4607      	mov	r7, r0
 8007f8c:	460c      	mov	r4, r1
 8007f8e:	4605      	mov	r5, r0
 8007f90:	dc33      	bgt.n	8007ffa <floor+0x82>
 8007f92:	2e00      	cmp	r6, #0
 8007f94:	da14      	bge.n	8007fc0 <floor+0x48>
 8007f96:	a334      	add	r3, pc, #208	; (adr r3, 8008068 <floor+0xf0>)
 8007f98:	e9d3 2300 	ldrd	r2, r3, [r3]
 8007f9c:	f7f8 f8e6 	bl	800016c <__adddf3>
 8007fa0:	2200      	movs	r2, #0
 8007fa2:	2300      	movs	r3, #0
 8007fa4:	f7f8 fd28 	bl	80009f8 <__aeabi_dcmpgt>
 8007fa8:	b138      	cbz	r0, 8007fba <floor+0x42>
 8007faa:	2c00      	cmp	r4, #0
 8007fac:	da58      	bge.n	8008060 <floor+0xe8>
 8007fae:	f024 4300 	bic.w	r3, r4, #2147483648	; 0x80000000
 8007fb2:	431d      	orrs	r5, r3
 8007fb4:	d001      	beq.n	8007fba <floor+0x42>
 8007fb6:	2500      	movs	r5, #0
 8007fb8:	4c2d      	ldr	r4, [pc, #180]	; (8008070 <floor+0xf8>)
 8007fba:	4623      	mov	r3, r4
 8007fbc:	462f      	mov	r7, r5
 8007fbe:	e025      	b.n	800800c <floor+0x94>
 8007fc0:	4a2c      	ldr	r2, [pc, #176]	; (8008074 <floor+0xfc>)
 8007fc2:	fa42 f806 	asr.w	r8, r2, r6
 8007fc6:	ea01 0208 	and.w	r2, r1, r8
 8007fca:	4302      	orrs	r2, r0
 8007fcc:	d01e      	beq.n	800800c <floor+0x94>
 8007fce:	a326      	add	r3, pc, #152	; (adr r3, 8008068 <floor+0xf0>)
 8007fd0:	e9d3 2300 	ldrd	r2, r3, [r3]
 8007fd4:	f7f8 f8ca 	bl	800016c <__adddf3>
 8007fd8:	2200      	movs	r2, #0
 8007fda:	2300      	movs	r3, #0
 8007fdc:	f7f8 fd0c 	bl	80009f8 <__aeabi_dcmpgt>
 8007fe0:	2800      	cmp	r0, #0
 8007fe2:	d0ea      	beq.n	8007fba <floor+0x42>
 8007fe4:	2c00      	cmp	r4, #0
 8007fe6:	bfbe      	ittt	lt
 8007fe8:	f44f 1380 	movlt.w	r3, #1048576	; 0x100000
 8007fec:	fa43 f606 	asrlt.w	r6, r3, r6
 8007ff0:	19a4      	addlt	r4, r4, r6
 8007ff2:	2500      	movs	r5, #0
 8007ff4:	ea24 0408 	bic.w	r4, r4, r8
 8007ff8:	e7df      	b.n	8007fba <floor+0x42>
 8007ffa:	2e33      	cmp	r6, #51	; 0x33
 8007ffc:	dd0a      	ble.n	8008014 <floor+0x9c>
 8007ffe:	f5b6 6f80 	cmp.w	r6, #1024	; 0x400
 8008002:	d103      	bne.n	800800c <floor+0x94>
 8008004:	f7f8 f8b2 	bl	800016c <__adddf3>
 8008008:	4607      	mov	r7, r0
 800800a:	460b      	mov	r3, r1
 800800c:	4638      	mov	r0, r7
 800800e:	4619      	mov	r1, r3
 8008010:	e8bd 83f8 	ldmia.w	sp!, {r3, r4, r5, r6, r7, r8, r9, pc}
 8008014:	f04f 32ff 	mov.w	r2, #4294967295
 8008018:	f2a8 4813 	subw	r8, r8, #1043	; 0x413
 800801c:	fa22 f808 	lsr.w	r8, r2, r8
 8008020:	ea18 0f00 	tst.w	r8, r0
 8008024:	d0f2      	beq.n	800800c <floor+0x94>
 8008026:	a310      	add	r3, pc, #64	; (adr r3, 8008068 <floor+0xf0>)
 8008028:	e9d3 2300 	ldrd	r2, r3, [r3]
 800802c:	f7f8 f89e 	bl	800016c <__adddf3>
 8008030:	2200      	movs	r2, #0
 8008032:	2300      	movs	r3, #0
 8008034:	f7f8 fce0 	bl	80009f8 <__aeabi_dcmpgt>
 8008038:	2800      	cmp	r0, #0
 800803a:	d0be      	beq.n	8007fba <floor+0x42>
 800803c:	2c00      	cmp	r4, #0
 800803e:	da02      	bge.n	8008046 <floor+0xce>
 8008040:	2e14      	cmp	r6, #20
 8008042:	d103      	bne.n	800804c <floor+0xd4>
 8008044:	3401      	adds	r4, #1
 8008046:	ea25 0508 	bic.w	r5, r5, r8
 800804a:	e7b6      	b.n	8007fba <floor+0x42>
 800804c:	2301      	movs	r3, #1
 800804e:	f1c6 0634 	rsb	r6, r6, #52	; 0x34
 8008052:	fa03 f606 	lsl.w	r6, r3, r6
 8008056:	4435      	add	r5, r6
 8008058:	42bd      	cmp	r5, r7
 800805a:	bf38      	it	cc
 800805c:	18e4      	addcc	r4, r4, r3
 800805e:	e7f2      	b.n	8008046 <floor+0xce>
 8008060:	2500      	movs	r5, #0
 8008062:	462c      	mov	r4, r5
 8008064:	e7a9      	b.n	8007fba <floor+0x42>
 8008066:	bf00      	nop
 8008068:	8800759c 	.word	0x8800759c
 800806c:	7e37e43c 	.word	0x7e37e43c
 8008070:	bff00000 	.word	0xbff00000
 8008074:	000fffff 	.word	0x000fffff

08008078 <nan>:
 8008078:	2000      	movs	r0, #0
 800807a:	4901      	ldr	r1, [pc, #4]	; (8008080 <nan+0x8>)
 800807c:	4770      	bx	lr
 800807e:	bf00      	nop
 8008080:	7ff80000 	.word	0x7ff80000
 8008084:	00000000 	.word	0x00000000

08008088 <scalbn>:
 8008088:	b5f8      	push	{r3, r4, r5, r6, r7, lr}
 800808a:	f3c1 560a 	ubfx	r6, r1, #20, #11
 800808e:	4604      	mov	r4, r0
 8008090:	460d      	mov	r5, r1
 8008092:	4617      	mov	r7, r2
 8008094:	460b      	mov	r3, r1
 8008096:	b996      	cbnz	r6, 80080be <scalbn+0x36>
 8008098:	f021 4300 	bic.w	r3, r1, #2147483648	; 0x80000000
 800809c:	4303      	orrs	r3, r0
 800809e:	d039      	beq.n	8008114 <scalbn+0x8c>
 80080a0:	4b33      	ldr	r3, [pc, #204]	; (8008170 <scalbn+0xe8>)
 80080a2:	2200      	movs	r2, #0
 80080a4:	f7f8 fa18 	bl	80004d8 <__aeabi_dmul>
 80080a8:	4b32      	ldr	r3, [pc, #200]	; (8008174 <scalbn+0xec>)
 80080aa:	4604      	mov	r4, r0
 80080ac:	429f      	cmp	r7, r3
 80080ae:	460d      	mov	r5, r1
 80080b0:	da0f      	bge.n	80080d2 <scalbn+0x4a>
 80080b2:	a32b      	add	r3, pc, #172	; (adr r3, 8008160 <scalbn+0xd8>)
 80080b4:	e9d3 2300 	ldrd	r2, r3, [r3]
 80080b8:	f7f8 fa0e 	bl	80004d8 <__aeabi_dmul>
 80080bc:	e006      	b.n	80080cc <scalbn+0x44>
 80080be:	f240 72ff 	movw	r2, #2047	; 0x7ff
 80080c2:	4296      	cmp	r6, r2
 80080c4:	d10a      	bne.n	80080dc <scalbn+0x54>
 80080c6:	4602      	mov	r2, r0
 80080c8:	f7f8 f850 	bl	800016c <__adddf3>
 80080cc:	4604      	mov	r4, r0
 80080ce:	460d      	mov	r5, r1
 80080d0:	e020      	b.n	8008114 <scalbn+0x8c>
 80080d2:	460b      	mov	r3, r1
 80080d4:	f3c1 510a 	ubfx	r1, r1, #20, #11
 80080d8:	f1a1 0636 	sub.w	r6, r1, #54	; 0x36
 80080dc:	f240 72fe 	movw	r2, #2046	; 0x7fe
 80080e0:	19b9      	adds	r1, r7, r6
 80080e2:	4291      	cmp	r1, r2
 80080e4:	dd0e      	ble.n	8008104 <scalbn+0x7c>
 80080e6:	f005 4400 	and.w	r4, r5, #2147483648	; 0x80000000
 80080ea:	f044 41fc 	orr.w	r1, r4, #2113929216	; 0x7e000000
 80080ee:	f441 115f 	orr.w	r1, r1, #3653632	; 0x37c000
 80080f2:	f441 5110 	orr.w	r1, r1, #9216	; 0x2400
 80080f6:	4820      	ldr	r0, [pc, #128]	; (8008178 <scalbn+0xf0>)
 80080f8:	f041 013c 	orr.w	r1, r1, #60	; 0x3c
 80080fc:	a31a      	add	r3, pc, #104	; (adr r3, 8008168 <scalbn+0xe0>)
 80080fe:	e9d3 2300 	ldrd	r2, r3, [r3]
 8008102:	e7d9      	b.n	80080b8 <scalbn+0x30>
 8008104:	2900      	cmp	r1, #0
 8008106:	dd08      	ble.n	800811a <scalbn+0x92>
 8008108:	f023 43ff 	bic.w	r3, r3, #2139095040	; 0x7f800000
 800810c:	f423 03e0 	bic.w	r3, r3, #7340032	; 0x700000
 8008110:	ea43 5501 	orr.w	r5, r3, r1, lsl #20
 8008114:	4620      	mov	r0, r4
 8008116:	4629      	mov	r1, r5
 8008118:	bdf8      	pop	{r3, r4, r5, r6, r7, pc}
 800811a:	f111 0f35 	cmn.w	r1, #53	; 0x35
 800811e:	da12      	bge.n	8008146 <scalbn+0xbe>
 8008120:	f24c 3350 	movw	r3, #50000	; 0xc350
 8008124:	429f      	cmp	r7, r3
 8008126:	ea4f 73d5 	mov.w	r3, r5, lsr #31
 800812a:	ea4f 74c3 	mov.w	r4, r3, lsl #31
 800812e:	dcdc      	bgt.n	80080ea <scalbn+0x62>
 8008130:	a30b      	add	r3, pc, #44	; (adr r3, 8008160 <scalbn+0xd8>)
 8008132:	e9d3 2300 	ldrd	r2, r3, [r3]
 8008136:	f044 71d2 	orr.w	r1, r4, #27525120	; 0x1a40000
 800813a:	f441 31b7 	orr.w	r1, r1, #93696	; 0x16e00
 800813e:	480f      	ldr	r0, [pc, #60]	; (800817c <scalbn+0xf4>)
 8008140:	f041 011f 	orr.w	r1, r1, #31
 8008144:	e7b8      	b.n	80080b8 <scalbn+0x30>
 8008146:	f023 43ff 	bic.w	r3, r3, #2139095040	; 0x7f800000
 800814a:	3136      	adds	r1, #54	; 0x36
 800814c:	f423 03e0 	bic.w	r3, r3, #7340032	; 0x700000
 8008150:	ea43 5501 	orr.w	r5, r3, r1, lsl #20
 8008154:	4620      	mov	r0, r4
 8008156:	4629      	mov	r1, r5
 8008158:	2200      	movs	r2, #0
 800815a:	4b09      	ldr	r3, [pc, #36]	; (8008180 <scalbn+0xf8>)
 800815c:	e7ac      	b.n	80080b8 <scalbn+0x30>
 800815e:	bf00      	nop
 8008160:	c2f8f359 	.word	0xc2f8f359
 8008164:	01a56e1f 	.word	0x01a56e1f
 8008168:	8800759c 	.word	0x8800759c
 800816c:	7e37e43c 	.word	0x7e37e43c
 8008170:	43500000 	.word	0x43500000
 8008174:	ffff3cb0 	.word	0xffff3cb0
 8008178:	8800759c 	.word	0x8800759c
 800817c:	c2f8f359 	.word	0xc2f8f359
 8008180:	3c900000 	.word	0x3c900000

08008184 <_init>:
 8008184:	b5f8      	push	{r3, r4, r5, r6, r7, lr}
 8008186:	bf00      	nop
 8008188:	bcf8      	pop	{r3, r4, r5, r6, r7}
 800818a:	bc08      	pop	{r3}
 800818c:	469e      	mov	lr, r3
 800818e:	4770      	bx	lr

08008190 <_fini>:
 8008190:	b5f8      	push	{r3, r4, r5, r6, r7, lr}
 8008192:	bf00      	nop
 8008194:	bcf8      	pop	{r3, r4, r5, r6, r7}
 8008196:	bc08      	pop	{r3}
 8008198:	469e      	mov	lr, r3
 800819a:	4770      	bx	lr
